
STM32H723.elf:     file format elf32-littlearm

Sections:
Idx Name          Size      VMA       LMA       File off  Algn
  0 .isr_vector   000002cc  08000000  08000000  00001000  2**0
                  CONTENTS, ALLOC, LOAD, READONLY, DATA
  1 .text         0000717c  080002d0  080002d0  000012d0  2**4
                  CONTENTS, ALLOC, LOAD, READONLY, CODE
  2 .rodata       000001a4  0800744c  0800744c  0000844c  2**2
                  CONTENTS, ALLOC, LOAD, READONLY, DATA
  3 .ARM          00000008  080075f0  080075f0  000085f0  2**2
                  CONTENTS, ALLOC, LOAD, READONLY, DATA
  4 .init_array   00000004  080075f8  080075f8  000085f8  2**2
                  CONTENTS, ALLOC, LOAD, READONLY, DATA
  5 .fini_array   00000004  080075fc  080075fc  000085fc  2**2
                  CONTENTS, ALLOC, LOAD, READONLY, DATA
  6 .data         00000168  24000000  08007600  00009000  2**2
                  CONTENTS, ALLOC, LOAD, DATA
  7 .bss          00000bf4  24000168  08007768  00009168  2**2
                  ALLOC
  8 ._user_heap_stack 00000604  24000d5c  08007768  00009d5c  2**0
                  ALLOC
  9 .ARM.attributes 0000002e  00000000  00000000  00009168  2**0
                  CONTENTS, READONLY
 10 .comment      00000043  00000000  00000000  00009196  2**0
                  CONTENTS, READONLY
 11 .debug_info   0001f30e  00000000  00000000  000091d9  2**0
                  CONTENTS, READONLY, DEBUGGING, OCTETS
 12 .debug_abbrev 00004087  00000000  00000000  000284e7  2**0
                  CONTENTS, READONLY, DEBUGGING, OCTETS
 13 .debug_loclists 0000dc56  00000000  00000000  0002c56e  2**0
                  CONTENTS, READONLY, DEBUGGING, OCTETS
 14 .debug_aranges 00001018  00000000  00000000  0003a1c8  2**3
                  CONTENTS, READONLY, DEBUGGING, OCTETS
 15 .debug_rnglists 00001751  00000000  00000000  0003b1e0  2**0
                  CONTENTS, READONLY, DEBUGGING, OCTETS
 16 .debug_line   000181c1  00000000  00000000  0003c931  2**0
                  CONTENTS, READONLY, DEBUGGING, OCTETS
 17 .debug_str    0000626d  00000000  00000000  00054af2  2**0
                  CONTENTS, READONLY, DEBUGGING, OCTETS
 18 .debug_frame  00002f10  00000000  00000000  0005ad60  2**2
                  CONTENTS, READONLY, DEBUGGING, OCTETS
 19 .debug_line_str 00000055  00000000  00000000  0005dc70  2**0
                  CONTENTS, READONLY, DEBUGGING, OCTETS

Disassembly of section .text:

080002d0 <__do_global_dtors_aux>:
 80002d0:	b510      	push	{r4, lr}
 80002d2:	4c05      	ldr	r4, [pc, #20]	@ (80002e8 <__do_global_dtors_aux+0x18>)
 80002d4:	7823      	ldrb	r3, [r4, #0]
 80002d6:	b933      	cbnz	r3, 80002e6 <__do_global_dtors_aux+0x16>
 80002d8:	4b04      	ldr	r3, [pc, #16]	@ (80002ec <__do_global_dtors_aux+0x1c>)
 80002da:	b113      	cbz	r3, 80002e2 <__do_global_dtors_aux+0x12>
 80002dc:	4804      	ldr	r0, [pc, #16]	@ (80002f0 <__do_global_dtors_aux+0x20>)
 80002de:	f3af 8000 	nop.w
 80002e2:	2301      	movs	r3, #1
 80002e4:	7023      	strb	r3, [r4, #0]
 80002e6:	bd10      	pop	{r4, pc}
 80002e8:	24000168 	.word	0x24000168
 80002ec:	00000000 	.word	0x00000000
 80002f0:	08007434 	.word	0x08007434

080002f4 <frame_dummy>:
 80002f4:	b508      	push	{r3, lr}
 80002f6:	4b03      	ldr	r3, [pc, #12]	@ (8000304 <frame_dummy+0x10>)
 80002f8:	b11b      	cbz	r3, 8000302 <frame_dummy+0xe>
 80002fa:	4903      	ldr	r1, [pc, #12]	@ (8000308 <frame_dummy+0x14>)
 80002fc:	4803      	ldr	r0, [pc, #12]	@ (800030c <frame_dummy+0x18>)
 80002fe:	f3af 8000 	nop.w
 8000302:	bd08      	pop	{r3, pc}
 8000304:	00000000 	.word	0x00000000
 8000308:	2400016c 	.word	0x2400016c
 800030c:	08007434 	.word	0x08007434

08000310 <strlen>:
 8000310:	4603      	mov	r3, r0
 8000312:	f813 2b01 	ldrb.w	r2, [r3], #1
 8000316:	2a00      	cmp	r2, #0
 8000318:	d1fb      	bne.n	8000312 <strlen+0x2>
 800031a:	1a18      	subs	r0, r3, r0
 800031c:	3801      	subs	r0, #1
 800031e:	4770      	bx	lr

08000320 <memchr>:
 8000320:	f001 01ff 	and.w	r1, r1, #255	@ 0xff
 8000324:	2a10      	cmp	r2, #16
 8000326:	db2b      	blt.n	8000380 <memchr+0x60>
 8000328:	f010 0f07 	tst.w	r0, #7
 800032c:	d008      	beq.n	8000340 <memchr+0x20>
 800032e:	f810 3b01 	ldrb.w	r3, [r0], #1
 8000332:	3a01      	subs	r2, #1
 8000334:	428b      	cmp	r3, r1
 8000336:	d02d      	beq.n	8000394 <memchr+0x74>
 8000338:	f010 0f07 	tst.w	r0, #7
 800033c:	b342      	cbz	r2, 8000390 <memchr+0x70>
 800033e:	d1f6      	bne.n	800032e <memchr+0xe>
 8000340:	b4f0      	push	{r4, r5, r6, r7}
 8000342:	ea41 2101 	orr.w	r1, r1, r1, lsl #8
 8000346:	ea41 4101 	orr.w	r1, r1, r1, lsl #16
 800034a:	f022 0407 	bic.w	r4, r2, #7
 800034e:	f07f 0700 	mvns.w	r7, #0
 8000352:	2300      	movs	r3, #0
 8000354:	e8f0 5602 	ldrd	r5, r6, [r0], #8
 8000358:	3c08      	subs	r4, #8
 800035a:	ea85 0501 	eor.w	r5, r5, r1
 800035e:	ea86 0601 	eor.w	r6, r6, r1
 8000362:	fa85 f547 	uadd8	r5, r5, r7
 8000366:	faa3 f587 	sel	r5, r3, r7
 800036a:	fa86 f647 	uadd8	r6, r6, r7
 800036e:	faa5 f687 	sel	r6, r5, r7
 8000372:	b98e      	cbnz	r6, 8000398 <memchr+0x78>
 8000374:	d1ee      	bne.n	8000354 <memchr+0x34>
 8000376:	bcf0      	pop	{r4, r5, r6, r7}
 8000378:	f001 01ff 	and.w	r1, r1, #255	@ 0xff
 800037c:	f002 0207 	and.w	r2, r2, #7
 8000380:	b132      	cbz	r2, 8000390 <memchr+0x70>
 8000382:	f810 3b01 	ldrb.w	r3, [r0], #1
 8000386:	3a01      	subs	r2, #1
 8000388:	ea83 0301 	eor.w	r3, r3, r1
 800038c:	b113      	cbz	r3, 8000394 <memchr+0x74>
 800038e:	d1f8      	bne.n	8000382 <memchr+0x62>
 8000390:	2000      	movs	r0, #0
 8000392:	4770      	bx	lr
 8000394:	3801      	subs	r0, #1
 8000396:	4770      	bx	lr
 8000398:	2d00      	cmp	r5, #0
 800039a:	bf06      	itte	eq
 800039c:	4635      	moveq	r5, r6
 800039e:	3803      	subeq	r0, #3
 80003a0:	3807      	subne	r0, #7
 80003a2:	f015 0f01 	tst.w	r5, #1
 80003a6:	d107      	bne.n	80003b8 <memchr+0x98>
 80003a8:	3001      	adds	r0, #1
 80003aa:	f415 7f80 	tst.w	r5, #256	@ 0x100
 80003ae:	bf02      	ittt	eq
 80003b0:	3001      	addeq	r0, #1
 80003b2:	f415 3fc0 	tsteq.w	r5, #98304	@ 0x18000
 80003b6:	3001      	addeq	r0, #1
 80003b8:	bcf0      	pop	{r4, r5, r6, r7}
 80003ba:	3801      	subs	r0, #1
 80003bc:	4770      	bx	lr
 80003be:	bf00      	nop

080003c0 <__aeabi_uldivmod>:
 80003c0:	b953      	cbnz	r3, 80003d8 <__aeabi_uldivmod+0x18>
 80003c2:	b94a      	cbnz	r2, 80003d8 <__aeabi_uldivmod+0x18>
 80003c4:	2900      	cmp	r1, #0
 80003c6:	bf08      	it	eq
 80003c8:	2800      	cmpeq	r0, #0
 80003ca:	bf1c      	itt	ne
 80003cc:	f04f 31ff 	movne.w	r1, #4294967295
 80003d0:	f04f 30ff 	movne.w	r0, #4294967295
 80003d4:	f000 b96a 	b.w	80006ac <__aeabi_idiv0>
 80003d8:	f1ad 0c08 	sub.w	ip, sp, #8
 80003dc:	e96d ce04 	strd	ip, lr, [sp, #-16]!
 80003e0:	f000 f806 	bl	80003f0 <__udivmoddi4>
 80003e4:	f8dd e004 	ldr.w	lr, [sp, #4]
 80003e8:	e9dd 2302 	ldrd	r2, r3, [sp, #8]
 80003ec:	b004      	add	sp, #16
 80003ee:	4770      	bx	lr

080003f0 <__udivmoddi4>:
 80003f0:	e92d 47f0 	stmdb	sp!, {r4, r5, r6, r7, r8, r9, sl, lr}
 80003f4:	9d08      	ldr	r5, [sp, #32]
 80003f6:	460c      	mov	r4, r1
 80003f8:	2b00      	cmp	r3, #0
 80003fa:	d14e      	bne.n	800049a <__udivmoddi4+0xaa>
 80003fc:	4694      	mov	ip, r2
 80003fe:	458c      	cmp	ip, r1
 8000400:	4686      	mov	lr, r0
 8000402:	fab2 f282 	clz	r2, r2
 8000406:	d962      	bls.n	80004ce <__udivmoddi4+0xde>
 8000408:	b14a      	cbz	r2, 800041e <__udivmoddi4+0x2e>
 800040a:	f1c2 0320 	rsb	r3, r2, #32
 800040e:	4091      	lsls	r1, r2
 8000410:	fa20 f303 	lsr.w	r3, r0, r3
 8000414:	fa0c fc02 	lsl.w	ip, ip, r2
 8000418:	4319      	orrs	r1, r3
 800041a:	fa00 fe02 	lsl.w	lr, r0, r2
 800041e:	ea4f 471c 	mov.w	r7, ip, lsr #16
 8000422:	fa1f f68c 	uxth.w	r6, ip
 8000426:	fbb1 f4f7 	udiv	r4, r1, r7
 800042a:	ea4f 431e 	mov.w	r3, lr, lsr #16
 800042e:	fb07 1114 	mls	r1, r7, r4, r1
 8000432:	ea43 4301 	orr.w	r3, r3, r1, lsl #16
 8000436:	fb04 f106 	mul.w	r1, r4, r6
 800043a:	4299      	cmp	r1, r3
 800043c:	d90a      	bls.n	8000454 <__udivmoddi4+0x64>
 800043e:	eb1c 0303 	adds.w	r3, ip, r3
 8000442:	f104 30ff 	add.w	r0, r4, #4294967295
 8000446:	f080 8112 	bcs.w	800066e <__udivmoddi4+0x27e>
 800044a:	4299      	cmp	r1, r3
 800044c:	f240 810f 	bls.w	800066e <__udivmoddi4+0x27e>
 8000450:	3c02      	subs	r4, #2
 8000452:	4463      	add	r3, ip
 8000454:	1a59      	subs	r1, r3, r1
 8000456:	fa1f f38e 	uxth.w	r3, lr
 800045a:	fbb1 f0f7 	udiv	r0, r1, r7
 800045e:	fb07 1110 	mls	r1, r7, r0, r1
 8000462:	ea43 4301 	orr.w	r3, r3, r1, lsl #16
 8000466:	fb00 f606 	mul.w	r6, r0, r6
 800046a:	429e      	cmp	r6, r3
 800046c:	d90a      	bls.n	8000484 <__udivmoddi4+0x94>
 800046e:	eb1c 0303 	adds.w	r3, ip, r3
 8000472:	f100 31ff 	add.w	r1, r0, #4294967295
 8000476:	f080 80fc 	bcs.w	8000672 <__udivmoddi4+0x282>
 800047a:	429e      	cmp	r6, r3
 800047c:	f240 80f9 	bls.w	8000672 <__udivmoddi4+0x282>
 8000480:	4463      	add	r3, ip
 8000482:	3802      	subs	r0, #2
 8000484:	1b9b      	subs	r3, r3, r6
 8000486:	ea40 4004 	orr.w	r0, r0, r4, lsl #16
 800048a:	2100      	movs	r1, #0
 800048c:	b11d      	cbz	r5, 8000496 <__udivmoddi4+0xa6>
 800048e:	40d3      	lsrs	r3, r2
 8000490:	2200      	movs	r2, #0
 8000492:	e9c5 3200 	strd	r3, r2, [r5]
 8000496:	e8bd 87f0 	ldmia.w	sp!, {r4, r5, r6, r7, r8, r9, sl, pc}
 800049a:	428b      	cmp	r3, r1
 800049c:	d905      	bls.n	80004aa <__udivmoddi4+0xba>
 800049e:	b10d      	cbz	r5, 80004a4 <__udivmoddi4+0xb4>
 80004a0:	e9c5 0100 	strd	r0, r1, [r5]
 80004a4:	2100      	movs	r1, #0
 80004a6:	4608      	mov	r0, r1
 80004a8:	e7f5      	b.n	8000496 <__udivmoddi4+0xa6>
 80004aa:	fab3 f183 	clz	r1, r3
 80004ae:	2900      	cmp	r1, #0
 80004b0:	d146      	bne.n	8000540 <__udivmoddi4+0x150>
 80004b2:	42a3      	cmp	r3, r4
 80004b4:	d302      	bcc.n	80004bc <__udivmoddi4+0xcc>
 80004b6:	4290      	cmp	r0, r2
 80004b8:	f0c0 80f0 	bcc.w	800069c <__udivmoddi4+0x2ac>
 80004bc:	1a86      	subs	r6, r0, r2
 80004be:	eb64 0303 	sbc.w	r3, r4, r3
 80004c2:	2001      	movs	r0, #1
 80004c4:	2d00      	cmp	r5, #0
 80004c6:	d0e6      	beq.n	8000496 <__udivmoddi4+0xa6>
 80004c8:	e9c5 6300 	strd	r6, r3, [r5]
 80004cc:	e7e3      	b.n	8000496 <__udivmoddi4+0xa6>
 80004ce:	2a00      	cmp	r2, #0
 80004d0:	f040 8090 	bne.w	80005f4 <__udivmoddi4+0x204>
 80004d4:	eba1 040c 	sub.w	r4, r1, ip
 80004d8:	ea4f 481c 	mov.w	r8, ip, lsr #16
 80004dc:	fa1f f78c 	uxth.w	r7, ip
 80004e0:	2101      	movs	r1, #1
 80004e2:	fbb4 f6f8 	udiv	r6, r4, r8
 80004e6:	ea4f 431e 	mov.w	r3, lr, lsr #16
 80004ea:	fb08 4416 	mls	r4, r8, r6, r4
 80004ee:	ea43 4304 	orr.w	r3, r3, r4, lsl #16
 80004f2:	fb07 f006 	mul.w	r0, r7, r6
 80004f6:	4298      	cmp	r0, r3
 80004f8:	d908      	bls.n	800050c <__udivmoddi4+0x11c>
 80004fa:	eb1c 0303 	adds.w	r3, ip, r3
 80004fe:	f106 34ff 	add.w	r4, r6, #4294967295
 8000502:	d202      	bcs.n	800050a <__udivmoddi4+0x11a>
 8000504:	4298      	cmp	r0, r3
 8000506:	f200 80cd 	bhi.w	80006a4 <__udivmoddi4+0x2b4>
 800050a:	4626      	mov	r6, r4
 800050c:	1a1c      	subs	r4, r3, r0
 800050e:	fa1f f38e 	uxth.w	r3, lr
 8000512:	fbb4 f0f8 	udiv	r0, r4, r8
 8000516:	fb08 4410 	mls	r4, r8, r0, r4
 800051a:	ea43 4304 	orr.w	r3, r3, r4, lsl #16
 800051e:	fb00 f707 	mul.w	r7, r0, r7
 8000522:	429f      	cmp	r7, r3
 8000524:	d908      	bls.n	8000538 <__udivmoddi4+0x148>
 8000526:	eb1c 0303 	adds.w	r3, ip, r3
 800052a:	f100 34ff 	add.w	r4, r0, #4294967295
 800052e:	d202      	bcs.n	8000536 <__udivmoddi4+0x146>
 8000530:	429f      	cmp	r7, r3
 8000532:	f200 80b0 	bhi.w	8000696 <__udivmoddi4+0x2a6>
 8000536:	4620      	mov	r0, r4
 8000538:	1bdb      	subs	r3, r3, r7
 800053a:	ea40 4006 	orr.w	r0, r0, r6, lsl #16
 800053e:	e7a5      	b.n	800048c <__udivmoddi4+0x9c>
 8000540:	f1c1 0620 	rsb	r6, r1, #32
 8000544:	408b      	lsls	r3, r1
 8000546:	fa22 f706 	lsr.w	r7, r2, r6
 800054a:	431f      	orrs	r7, r3
 800054c:	fa20 fc06 	lsr.w	ip, r0, r6
 8000550:	fa04 f301 	lsl.w	r3, r4, r1
 8000554:	ea43 030c 	orr.w	r3, r3, ip
 8000558:	40f4      	lsrs	r4, r6
 800055a:	fa00 f801 	lsl.w	r8, r0, r1
 800055e:	0c38      	lsrs	r0, r7, #16
 8000560:	ea4f 4913 	mov.w	r9, r3, lsr #16
 8000564:	fbb4 fef0 	udiv	lr, r4, r0
 8000568:	fa1f fc87 	uxth.w	ip, r7
 800056c:	fb00 441e 	mls	r4, r0, lr, r4
 8000570:	ea49 4404 	orr.w	r4, r9, r4, lsl #16
 8000574:	fb0e f90c 	mul.w	r9, lr, ip
 8000578:	45a1      	cmp	r9, r4
 800057a:	fa02 f201 	lsl.w	r2, r2, r1
 800057e:	d90a      	bls.n	8000596 <__udivmoddi4+0x1a6>
 8000580:	193c      	adds	r4, r7, r4
 8000582:	f10e 3aff 	add.w	sl, lr, #4294967295
 8000586:	f080 8084 	bcs.w	8000692 <__udivmoddi4+0x2a2>
 800058a:	45a1      	cmp	r9, r4
 800058c:	f240 8081 	bls.w	8000692 <__udivmoddi4+0x2a2>
 8000590:	f1ae 0e02 	sub.w	lr, lr, #2
 8000594:	443c      	add	r4, r7
 8000596:	eba4 0409 	sub.w	r4, r4, r9
 800059a:	fa1f f983 	uxth.w	r9, r3
 800059e:	fbb4 f3f0 	udiv	r3, r4, r0
 80005a2:	fb00 4413 	mls	r4, r0, r3, r4
 80005a6:	ea49 4404 	orr.w	r4, r9, r4, lsl #16
 80005aa:	fb03 fc0c 	mul.w	ip, r3, ip
 80005ae:	45a4      	cmp	ip, r4
 80005b0:	d907      	bls.n	80005c2 <__udivmoddi4+0x1d2>
 80005b2:	193c      	adds	r4, r7, r4
 80005b4:	f103 30ff 	add.w	r0, r3, #4294967295
 80005b8:	d267      	bcs.n	800068a <__udivmoddi4+0x29a>
 80005ba:	45a4      	cmp	ip, r4
 80005bc:	d965      	bls.n	800068a <__udivmoddi4+0x29a>
 80005be:	3b02      	subs	r3, #2
 80005c0:	443c      	add	r4, r7
 80005c2:	ea43 400e 	orr.w	r0, r3, lr, lsl #16
 80005c6:	fba0 9302 	umull	r9, r3, r0, r2
 80005ca:	eba4 040c 	sub.w	r4, r4, ip
 80005ce:	429c      	cmp	r4, r3
 80005d0:	46ce      	mov	lr, r9
 80005d2:	469c      	mov	ip, r3
 80005d4:	d351      	bcc.n	800067a <__udivmoddi4+0x28a>
 80005d6:	d04e      	beq.n	8000676 <__udivmoddi4+0x286>
 80005d8:	b155      	cbz	r5, 80005f0 <__udivmoddi4+0x200>
 80005da:	ebb8 030e 	subs.w	r3, r8, lr
 80005de:	eb64 040c 	sbc.w	r4, r4, ip
 80005e2:	fa04 f606 	lsl.w	r6, r4, r6
 80005e6:	40cb      	lsrs	r3, r1
 80005e8:	431e      	orrs	r6, r3
 80005ea:	40cc      	lsrs	r4, r1
 80005ec:	e9c5 6400 	strd	r6, r4, [r5]
 80005f0:	2100      	movs	r1, #0
 80005f2:	e750      	b.n	8000496 <__udivmoddi4+0xa6>
 80005f4:	f1c2 0320 	rsb	r3, r2, #32
 80005f8:	fa20 f103 	lsr.w	r1, r0, r3
 80005fc:	fa0c fc02 	lsl.w	ip, ip, r2
 8000600:	fa24 f303 	lsr.w	r3, r4, r3
 8000604:	4094      	lsls	r4, r2
 8000606:	430c      	orrs	r4, r1
 8000608:	ea4f 481c 	mov.w	r8, ip, lsr #16
 800060c:	fa00 fe02 	lsl.w	lr, r0, r2
 8000610:	fa1f f78c 	uxth.w	r7, ip
 8000614:	fbb3 f0f8 	udiv	r0, r3, r8
 8000618:	fb08 3110 	mls	r1, r8, r0, r3
 800061c:	0c23      	lsrs	r3, r4, #16
 800061e:	ea43 4301 	orr.w	r3, r3, r1, lsl #16
 8000622:	fb00 f107 	mul.w	r1, r0, r7
 8000626:	4299      	cmp	r1, r3
 8000628:	d908      	bls.n	800063c <__udivmoddi4+0x24c>
 800062a:	eb1c 0303 	adds.w	r3, ip, r3
 800062e:	f100 36ff 	add.w	r6, r0, #4294967295
 8000632:	d22c      	bcs.n	800068e <__udivmoddi4+0x29e>
 8000634:	4299      	cmp	r1, r3
 8000636:	d92a      	bls.n	800068e <__udivmoddi4+0x29e>
 8000638:	3802      	subs	r0, #2
 800063a:	4463      	add	r3, ip
 800063c:	1a5b      	subs	r3, r3, r1
 800063e:	b2a4      	uxth	r4, r4
 8000640:	fbb3 f1f8 	udiv	r1, r3, r8
 8000644:	fb08 3311 	mls	r3, r8, r1, r3
 8000648:	ea44 4403 	orr.w	r4, r4, r3, lsl #16
 800064c:	fb01 f307 	mul.w	r3, r1, r7
 8000650:	42a3      	cmp	r3, r4
 8000652:	d908      	bls.n	8000666 <__udivmoddi4+0x276>
 8000654:	eb1c 0404 	adds.w	r4, ip, r4
 8000658:	f101 36ff 	add.w	r6, r1, #4294967295
 800065c:	d213      	bcs.n	8000686 <__udivmoddi4+0x296>
 800065e:	42a3      	cmp	r3, r4
 8000660:	d911      	bls.n	8000686 <__udivmoddi4+0x296>
 8000662:	3902      	subs	r1, #2
 8000664:	4464      	add	r4, ip
 8000666:	1ae4      	subs	r4, r4, r3
 8000668:	ea41 4100 	orr.w	r1, r1, r0, lsl #16
 800066c:	e739      	b.n	80004e2 <__udivmoddi4+0xf2>
 800066e:	4604      	mov	r4, r0
 8000670:	e6f0      	b.n	8000454 <__udivmoddi4+0x64>
 8000672:	4608      	mov	r0, r1
 8000674:	e706      	b.n	8000484 <__udivmoddi4+0x94>
 8000676:	45c8      	cmp	r8, r9
 8000678:	d2ae      	bcs.n	80005d8 <__udivmoddi4+0x1e8>
 800067a:	ebb9 0e02 	subs.w	lr, r9, r2
 800067e:	eb63 0c07 	sbc.w	ip, r3, r7
 8000682:	3801      	subs	r0, #1
 8000684:	e7a8      	b.n	80005d8 <__udivmoddi4+0x1e8>
 8000686:	4631      	mov	r1, r6
 8000688:	e7ed      	b.n	8000666 <__udivmoddi4+0x276>
 800068a:	4603      	mov	r3, r0
 800068c:	e799      	b.n	80005c2 <__udivmoddi4+0x1d2>
 800068e:	4630      	mov	r0, r6
 8000690:	e7d4      	b.n	800063c <__udivmoddi4+0x24c>
 8000692:	46d6      	mov	lr, sl
 8000694:	e77f      	b.n	8000596 <__udivmoddi4+0x1a6>
 8000696:	4463      	add	r3, ip
 8000698:	3802      	subs	r0, #2
 800069a:	e74d      	b.n	8000538 <__udivmoddi4+0x148>
 800069c:	4606      	mov	r6, r0
 800069e:	4623      	mov	r3, r4
 80006a0:	4608      	mov	r0, r1
 80006a2:	e70f      	b.n	80004c4 <__udivmoddi4+0xd4>
 80006a4:	3e02      	subs	r6, #2
 80006a6:	4463      	add	r3, ip
 80006a8:	e730      	b.n	800050c <__udivmoddi4+0x11c>
 80006aa:	bf00      	nop

080006ac <__aeabi_idiv0>:
 80006ac:	4770      	bx	lr
 80006ae:	bf00      	nop

080006b0 <MatrixScan>:
 80006b0:	4b5f      	ldr	r3, [pc, #380]	@ (8000830 <MatrixScan+0x180>)
 80006b2:	4960      	ldr	r1, [pc, #384]	@ (8000834 <MatrixScan+0x184>)
 80006b4:	4a60      	ldr	r2, [pc, #384]	@ (8000838 <MatrixScan+0x188>)
 80006b6:	e92d 4ff0 	stmdb	sp!, {r4, r5, r6, r7, r8, r9, sl, fp, lr}
 80006ba:	691f      	ldr	r7, [r3, #16]
 80006bc:	f503 6340 	add.w	r3, r3, #3072	@ 0xc00
 80006c0:	f8df b19c 	ldr.w	fp, [pc, #412]	@ 8000860 <MatrixScan+0x1b0>
 80006c4:	b09f      	sub	sp, #124	@ 0x7c
 80006c6:	6909      	ldr	r1, [r1, #16]
 80006c8:	4606      	mov	r6, r0
 80006ca:	6912      	ldr	r2, [r2, #16]
 80006cc:	f8db 4000 	ldr.w	r4, [fp]
 80006d0:	691b      	ldr	r3, [r3, #16]
 80006d2:	407c      	eors	r4, r7
 80006d4:	9201      	str	r2, [sp, #4]
 80006d6:	9302      	str	r3, [sp, #8]
 80006d8:	4a58      	ldr	r2, [pc, #352]	@ (800083c <MatrixScan+0x18c>)
 80006da:	4b59      	ldr	r3, [pc, #356]	@ (8000840 <MatrixScan+0x190>)
 80006dc:	6912      	ldr	r2, [r2, #16]
 80006de:	f8df a184 	ldr.w	sl, [pc, #388]	@ 8000864 <MatrixScan+0x1b4>
 80006e2:	4023      	ands	r3, r4
 80006e4:	f8df 9180 	ldr.w	r9, [pc, #384]	@ 8000868 <MatrixScan+0x1b8>
 80006e8:	f8df 8180 	ldr.w	r8, [pc, #384]	@ 800086c <MatrixScan+0x1bc>
 80006ec:	4855      	ldr	r0, [pc, #340]	@ (8000844 <MatrixScan+0x194>)
 80006ee:	9100      	str	r1, [sp, #0]
 80006f0:	9203      	str	r2, [sp, #12]
 80006f2:	f8d9 1000 	ldr.w	r1, [r9]
 80006f6:	f8da 2000 	ldr.w	r2, [sl]
 80006fa:	6800      	ldr	r0, [r0, #0]
 80006fc:	f8d8 5000 	ldr.w	r5, [r8]
 8000700:	b373      	cbz	r3, 8000760 <MatrixScan+0xb0>
 8000702:	f014 0401 	ands.w	r4, r4, #1
 8000706:	d155      	bne.n	80007b4 <MatrixScan+0x104>
 8000708:	085b      	lsrs	r3, r3, #1
 800070a:	3401      	adds	r4, #1
 800070c:	07d9      	lsls	r1, r3, #31
 800070e:	d5fb      	bpl.n	8000708 <MatrixScan+0x58>
 8000710:	fa27 f504 	lsr.w	r5, r7, r4
 8000714:	f005 0501 	and.w	r5, r5, #1
 8000718:	4622      	mov	r2, r4
 800071a:	494b      	ldr	r1, [pc, #300]	@ (8000848 <MatrixScan+0x198>)
 800071c:	462b      	mov	r3, r5
 800071e:	a805      	add	r0, sp, #20
 8000720:	f006 f9e8 	bl	8006af4 <siprintf>
 8000724:	a805      	add	r0, sp, #20
 8000726:	f7ff fdf3 	bl	8000310 <strlen>
 800072a:	a905      	add	r1, sp, #20
 800072c:	b282      	uxth	r2, r0
 800072e:	f04f 33ff 	mov.w	r3, #4294967295
 8000732:	4846      	ldr	r0, [pc, #280]	@ (800084c <MatrixScan+0x19c>)
 8000734:	f003 fe6a 	bl	800440c <HAL_UART_Transmit>
 8000738:	9b00      	ldr	r3, [sp, #0]
 800073a:	4630      	mov	r0, r6
 800073c:	9a02      	ldr	r2, [sp, #8]
 800073e:	f8ca 3000 	str.w	r3, [sl]
 8000742:	9b01      	ldr	r3, [sp, #4]
 8000744:	f8cb 7000 	str.w	r7, [fp]
 8000748:	f8c9 3000 	str.w	r3, [r9]
 800074c:	4b3d      	ldr	r3, [pc, #244]	@ (8000844 <MatrixScan+0x194>)
 800074e:	6034      	str	r4, [r6, #0]
 8000750:	601a      	str	r2, [r3, #0]
 8000752:	9b03      	ldr	r3, [sp, #12]
 8000754:	7135      	strb	r5, [r6, #4]
 8000756:	f8c8 3000 	str.w	r3, [r8]
 800075a:	b01f      	add	sp, #124	@ 0x7c
 800075c:	e8bd 8ff0 	ldmia.w	sp!, {r4, r5, r6, r7, r8, r9, sl, fp, pc}
 8000760:	9b00      	ldr	r3, [sp, #0]
 8000762:	429a      	cmp	r2, r3
 8000764:	d011      	beq.n	800078a <MatrixScan+0xda>
 8000766:	4053      	eors	r3, r2
 8000768:	f013 0501 	ands.w	r5, r3, #1
 800076c:	d14f      	bne.n	800080e <MatrixScan+0x15e>
 800076e:	085b      	lsrs	r3, r3, #1
 8000770:	462c      	mov	r4, r5
 8000772:	3501      	adds	r5, #1
 8000774:	07da      	lsls	r2, r3, #31
 8000776:	d5fa      	bpl.n	800076e <MatrixScan+0xbe>
 8000778:	9b00      	ldr	r3, [sp, #0]
 800077a:	3411      	adds	r4, #17
 800077c:	fa23 f505 	lsr.w	r5, r3, r5
 8000780:	f005 0501 	and.w	r5, r5, #1
 8000784:	4622      	mov	r2, r4
 8000786:	4932      	ldr	r1, [pc, #200]	@ (8000850 <MatrixScan+0x1a0>)
 8000788:	e7c8      	b.n	800071c <MatrixScan+0x6c>
 800078a:	9b01      	ldr	r3, [sp, #4]
 800078c:	4299      	cmp	r1, r3
 800078e:	d014      	beq.n	80007ba <MatrixScan+0x10a>
 8000790:	404b      	eors	r3, r1
 8000792:	f013 0501 	ands.w	r5, r3, #1
 8000796:	d13d      	bne.n	8000814 <MatrixScan+0x164>
 8000798:	085b      	lsrs	r3, r3, #1
 800079a:	462c      	mov	r4, r5
 800079c:	3501      	adds	r5, #1
 800079e:	07d8      	lsls	r0, r3, #31
 80007a0:	d5fa      	bpl.n	8000798 <MatrixScan+0xe8>
 80007a2:	9b01      	ldr	r3, [sp, #4]
 80007a4:	3421      	adds	r4, #33	@ 0x21
 80007a6:	fa23 f505 	lsr.w	r5, r3, r5
 80007aa:	f005 0501 	and.w	r5, r5, #1
 80007ae:	4622      	mov	r2, r4
 80007b0:	4928      	ldr	r1, [pc, #160]	@ (8000854 <MatrixScan+0x1a4>)
 80007b2:	e7b3      	b.n	800071c <MatrixScan+0x6c>
 80007b4:	463d      	mov	r5, r7
 80007b6:	2400      	movs	r4, #0
 80007b8:	e7ac      	b.n	8000714 <MatrixScan+0x64>
 80007ba:	9b02      	ldr	r3, [sp, #8]
 80007bc:	4298      	cmp	r0, r3
 80007be:	d011      	beq.n	80007e4 <MatrixScan+0x134>
 80007c0:	4058      	eors	r0, r3
 80007c2:	f010 0301 	ands.w	r3, r0, #1
 80007c6:	d12c      	bne.n	8000822 <MatrixScan+0x172>
 80007c8:	0840      	lsrs	r0, r0, #1
 80007ca:	461c      	mov	r4, r3
 80007cc:	3301      	adds	r3, #1
 80007ce:	07c1      	lsls	r1, r0, #31
 80007d0:	d5fa      	bpl.n	80007c8 <MatrixScan+0x118>
 80007d2:	9a02      	ldr	r2, [sp, #8]
 80007d4:	3431      	adds	r4, #49	@ 0x31
 80007d6:	fa22 f303 	lsr.w	r3, r2, r3
 80007da:	f003 0501 	and.w	r5, r3, #1
 80007de:	4622      	mov	r2, r4
 80007e0:	491d      	ldr	r1, [pc, #116]	@ (8000858 <MatrixScan+0x1a8>)
 80007e2:	e79b      	b.n	800071c <MatrixScan+0x6c>
 80007e4:	9b03      	ldr	r3, [sp, #12]
 80007e6:	429d      	cmp	r5, r3
 80007e8:	d017      	beq.n	800081a <MatrixScan+0x16a>
 80007ea:	405d      	eors	r5, r3
 80007ec:	f015 0301 	ands.w	r3, r5, #1
 80007f0:	d11a      	bne.n	8000828 <MatrixScan+0x178>
 80007f2:	086d      	lsrs	r5, r5, #1
 80007f4:	461c      	mov	r4, r3
 80007f6:	3301      	adds	r3, #1
 80007f8:	07ea      	lsls	r2, r5, #31
 80007fa:	d5fa      	bpl.n	80007f2 <MatrixScan+0x142>
 80007fc:	9a03      	ldr	r2, [sp, #12]
 80007fe:	3441      	adds	r4, #65	@ 0x41
 8000800:	fa22 f303 	lsr.w	r3, r2, r3
 8000804:	f003 0501 	and.w	r5, r3, #1
 8000808:	4622      	mov	r2, r4
 800080a:	4914      	ldr	r1, [pc, #80]	@ (800085c <MatrixScan+0x1ac>)
 800080c:	e786      	b.n	800071c <MatrixScan+0x6c>
 800080e:	9d00      	ldr	r5, [sp, #0]
 8000810:	2410      	movs	r4, #16
 8000812:	e7b5      	b.n	8000780 <MatrixScan+0xd0>
 8000814:	9d01      	ldr	r5, [sp, #4]
 8000816:	2420      	movs	r4, #32
 8000818:	e7c7      	b.n	80007aa <MatrixScan+0xfa>
 800081a:	25ff      	movs	r5, #255	@ 0xff
 800081c:	f04f 34ff 	mov.w	r4, #4294967295
 8000820:	e78a      	b.n	8000738 <MatrixScan+0x88>
 8000822:	9b02      	ldr	r3, [sp, #8]
 8000824:	2430      	movs	r4, #48	@ 0x30
 8000826:	e7d8      	b.n	80007da <MatrixScan+0x12a>
 8000828:	9b03      	ldr	r3, [sp, #12]
 800082a:	2440      	movs	r4, #64	@ 0x40
 800082c:	e7ea      	b.n	8000804 <MatrixScan+0x154>
 800082e:	bf00      	nop
 8000830:	58020000 	.word	0x58020000
 8000834:	58020400 	.word	0x58020400
 8000838:	58020800 	.word	0x58020800
 800083c:	58021000 	.word	0x58021000
 8000840:	b71571c7 	.word	0xb71571c7
 8000844:	24000188 	.word	0x24000188
 8000848:	0800744c 	.word	0x0800744c
 800084c:	240001a0 	.word	0x240001a0
 8000850:	08007474 	.word	0x08007474
 8000854:	0800749c 	.word	0x0800749c
 8000858:	080074c4 	.word	0x080074c4
 800085c:	080074ec 	.word	0x080074ec
 8000860:	24000194 	.word	0x24000194
 8000864:	24000190 	.word	0x24000190
 8000868:	2400018c 	.word	0x2400018c
 800086c:	24000184 	.word	0x24000184

08000870 <SystemClock_Config>:
 8000870:	b510      	push	{r4, lr}
 8000872:	b09e      	sub	sp, #120	@ 0x78
 8000874:	224c      	movs	r2, #76	@ 0x4c
 8000876:	2100      	movs	r1, #0
 8000878:	a80a      	add	r0, sp, #40	@ 0x28
 800087a:	f006 f95b 	bl	8006b34 <memset>
 800087e:	2220      	movs	r2, #32
 8000880:	2100      	movs	r1, #0
 8000882:	a802      	add	r0, sp, #8
 8000884:	f006 f956 	bl	8006b34 <memset>
 8000888:	2002      	movs	r0, #2
 800088a:	f001 fec7 	bl	800261c <HAL_PWREx_ConfigSupply>
 800088e:	4a20      	ldr	r2, [pc, #128]	@ (8000910 <SystemClock_Config+0xa0>)
 8000890:	2300      	movs	r3, #0
 8000892:	9301      	str	r3, [sp, #4]
 8000894:	6993      	ldr	r3, [r2, #24]
 8000896:	f423 4340 	bic.w	r3, r3, #49152	@ 0xc000
 800089a:	6193      	str	r3, [r2, #24]
 800089c:	6993      	ldr	r3, [r2, #24]
 800089e:	f403 4340 	and.w	r3, r3, #49152	@ 0xc000
 80008a2:	9301      	str	r3, [sp, #4]
 80008a4:	9b01      	ldr	r3, [sp, #4]
 80008a6:	6993      	ldr	r3, [r2, #24]
 80008a8:	049b      	lsls	r3, r3, #18
 80008aa:	d5fc      	bpl.n	80008a6 <SystemClock_Config+0x36>
 80008ac:	2021      	movs	r0, #33	@ 0x21
 80008ae:	f44f 3180 	mov.w	r1, #65536	@ 0x10000
 80008b2:	2201      	movs	r2, #1
 80008b4:	2302      	movs	r3, #2
 80008b6:	2408      	movs	r4, #8
 80008b8:	9210      	str	r2, [sp, #64]	@ 0x40
 80008ba:	e9cd 010a 	strd	r0, r1, [sp, #40]	@ 0x28
 80008be:	2105      	movs	r1, #5
 80008c0:	a80a      	add	r0, sp, #40	@ 0x28
 80008c2:	9115      	str	r1, [sp, #84]	@ 0x54
 80008c4:	216e      	movs	r1, #110	@ 0x6e
 80008c6:	e9cd 2217 	strd	r2, r2, [sp, #92]	@ 0x5c
 80008ca:	2200      	movs	r2, #0
 80008cc:	9116      	str	r1, [sp, #88]	@ 0x58
 80008ce:	e9cd 3313 	strd	r3, r3, [sp, #76]	@ 0x4c
 80008d2:	e9cd 3419 	strd	r3, r4, [sp, #100]	@ 0x64
 80008d6:	e9cd 221b 	strd	r2, r2, [sp, #108]	@ 0x6c
 80008da:	f001 ff3d 	bl	8002758 <HAL_RCC_OscConfig>
 80008de:	b108      	cbz	r0, 80008e4 <SystemClock_Config+0x74>
 80008e0:	b672      	cpsid	i
 80008e2:	e7fe      	b.n	80008e2 <SystemClock_Config+0x72>
 80008e4:	2340      	movs	r3, #64	@ 0x40
 80008e6:	223f      	movs	r2, #63	@ 0x3f
 80008e8:	2103      	movs	r1, #3
 80008ea:	9004      	str	r0, [sp, #16]
 80008ec:	9202      	str	r2, [sp, #8]
 80008ee:	f44f 6280 	mov.w	r2, #1024	@ 0x400
 80008f2:	9307      	str	r3, [sp, #28]
 80008f4:	a802      	add	r0, sp, #8
 80008f6:	9103      	str	r1, [sp, #12]
 80008f8:	e9cd 4305 	strd	r4, r3, [sp, #20]
 80008fc:	2350      	movs	r3, #80	@ 0x50
 80008fe:	e9cd 2308 	strd	r2, r3, [sp, #32]
 8000902:	f002 fa5d 	bl	8002dc0 <HAL_RCC_ClockConfig>
 8000906:	b108      	cbz	r0, 800090c <SystemClock_Config+0x9c>
 8000908:	b672      	cpsid	i
 800090a:	e7fe      	b.n	800090a <SystemClock_Config+0x9a>
 800090c:	b01e      	add	sp, #120	@ 0x78
 800090e:	bd10      	pop	{r4, pc}
 8000910:	58024800 	.word	0x58024800

08000914 <main>:
 8000914:	b580      	push	{r7, lr}
 8000916:	2400      	movs	r4, #0
 8000918:	b0a2      	sub	sp, #136	@ 0x88
 800091a:	2501      	movs	r5, #1
 800091c:	f64f 76ff 	movw	r6, #65535	@ 0xffff
 8000920:	e9cd 4409 	strd	r4, r4, [sp, #36]	@ 0x24
 8000924:	e9cd 440b 	strd	r4, r4, [sp, #44]	@ 0x2c
 8000928:	f000 fb3a 	bl	8000fa0 <HAL_MPU_Disable>
 800092c:	f248 721f 	movw	r2, #34591	@ 0x871f
 8000930:	f240 1301 	movw	r3, #257	@ 0x101
 8000934:	a809      	add	r0, sp, #36	@ 0x24
 8000936:	f8ad 5024 	strh.w	r5, [sp, #36]	@ 0x24
 800093a:	930c      	str	r3, [sp, #48]	@ 0x30
 800093c:	e9cd 420a 	strd	r4, r2, [sp, #40]	@ 0x28
 8000940:	f000 fb4c 	bl	8000fdc <HAL_MPU_ConfigRegion>
 8000944:	2004      	movs	r0, #4
 8000946:	f000 fb39 	bl	8000fbc <HAL_MPU_Enable>
 800094a:	f000 fa63 	bl	8000e14 <HAL_Init>
 800094e:	f7ff ff8f 	bl	8000870 <SystemClock_Config>
 8000952:	4b6f      	ldr	r3, [pc, #444]	@ (8000b10 <main+0x1fc>)
 8000954:	940d      	str	r4, [sp, #52]	@ 0x34
 8000956:	a909      	add	r1, sp, #36	@ 0x24
 8000958:	940a      	str	r4, [sp, #40]	@ 0x28
 800095a:	486e      	ldr	r0, [pc, #440]	@ (8000b14 <main+0x200>)
 800095c:	e9cd 440b 	strd	r4, r4, [sp, #44]	@ 0x2c
 8000960:	f8d3 20e0 	ldr.w	r2, [r3, #224]	@ 0xe0
 8000964:	f042 0210 	orr.w	r2, r2, #16
 8000968:	f8c3 20e0 	str.w	r2, [r3, #224]	@ 0xe0
 800096c:	f8d3 20e0 	ldr.w	r2, [r3, #224]	@ 0xe0
 8000970:	f002 0210 	and.w	r2, r2, #16
 8000974:	9203      	str	r2, [sp, #12]
 8000976:	9a03      	ldr	r2, [sp, #12]
 8000978:	f8d3 20e0 	ldr.w	r2, [r3, #224]	@ 0xe0
 800097c:	f042 0204 	orr.w	r2, r2, #4
 8000980:	f8c3 20e0 	str.w	r2, [r3, #224]	@ 0xe0
 8000984:	f8d3 20e0 	ldr.w	r2, [r3, #224]	@ 0xe0
 8000988:	f002 0204 	and.w	r2, r2, #4
 800098c:	9204      	str	r2, [sp, #16]
 800098e:	9a04      	ldr	r2, [sp, #16]
 8000990:	f8d3 20e0 	ldr.w	r2, [r3, #224]	@ 0xe0
 8000994:	f042 0280 	orr.w	r2, r2, #128	@ 0x80
 8000998:	f8c3 20e0 	str.w	r2, [r3, #224]	@ 0xe0
 800099c:	f8d3 20e0 	ldr.w	r2, [r3, #224]	@ 0xe0
 80009a0:	f002 0280 	and.w	r2, r2, #128	@ 0x80
 80009a4:	9205      	str	r2, [sp, #20]
 80009a6:	9a05      	ldr	r2, [sp, #20]
 80009a8:	f8d3 20e0 	ldr.w	r2, [r3, #224]	@ 0xe0
 80009ac:	432a      	orrs	r2, r5
 80009ae:	f8c3 20e0 	str.w	r2, [r3, #224]	@ 0xe0
 80009b2:	f8d3 20e0 	ldr.w	r2, [r3, #224]	@ 0xe0
 80009b6:	402a      	ands	r2, r5
 80009b8:	9206      	str	r2, [sp, #24]
 80009ba:	9a06      	ldr	r2, [sp, #24]
 80009bc:	f8d3 20e0 	ldr.w	r2, [r3, #224]	@ 0xe0
 80009c0:	f042 0202 	orr.w	r2, r2, #2
 80009c4:	f8c3 20e0 	str.w	r2, [r3, #224]	@ 0xe0
 80009c8:	f8d3 20e0 	ldr.w	r2, [r3, #224]	@ 0xe0
 80009cc:	f002 0202 	and.w	r2, r2, #2
 80009d0:	9207      	str	r2, [sp, #28]
 80009d2:	9a07      	ldr	r2, [sp, #28]
 80009d4:	f8d3 20e0 	ldr.w	r2, [r3, #224]	@ 0xe0
 80009d8:	f042 0208 	orr.w	r2, r2, #8
 80009dc:	f8c3 20e0 	str.w	r2, [r3, #224]	@ 0xe0
 80009e0:	f8d3 30e0 	ldr.w	r3, [r3, #224]	@ 0xe0
 80009e4:	f003 0308 	and.w	r3, r3, #8
 80009e8:	9308      	str	r3, [sp, #32]
 80009ea:	9b08      	ldr	r3, [sp, #32]
 80009ec:	950b      	str	r5, [sp, #44]	@ 0x2c
 80009ee:	9609      	str	r6, [sp, #36]	@ 0x24
 80009f0:	f000 fb24 	bl	800103c <HAL_GPIO_Init>
 80009f4:	f64f 73f2 	movw	r3, #65522	@ 0xfff2
 80009f8:	a909      	add	r1, sp, #36	@ 0x24
 80009fa:	4847      	ldr	r0, [pc, #284]	@ (8000b18 <main+0x204>)
 80009fc:	9309      	str	r3, [sp, #36]	@ 0x24
 80009fe:	e9cd 450a 	strd	r4, r5, [sp, #40]	@ 0x28
 8000a02:	f000 fb1b 	bl	800103c <HAL_GPIO_Init>
 8000a06:	f649 73d4 	movw	r3, #40916	@ 0x9fd4
 8000a0a:	a909      	add	r1, sp, #36	@ 0x24
 8000a0c:	4843      	ldr	r0, [pc, #268]	@ (8000b1c <main+0x208>)
 8000a0e:	9309      	str	r3, [sp, #36]	@ 0x24
 8000a10:	e9cd 450a 	strd	r4, r5, [sp, #40]	@ 0x28
 8000a14:	f000 fb12 	bl	800103c <HAL_GPIO_Init>
 8000a18:	f244 33dc 	movw	r3, #17372	@ 0x43dc
 8000a1c:	a909      	add	r1, sp, #36	@ 0x24
 8000a1e:	4840      	ldr	r0, [pc, #256]	@ (8000b20 <main+0x20c>)
 8000a20:	9309      	str	r3, [sp, #36]	@ 0x24
 8000a22:	e9cd 450a 	strd	r4, r5, [sp, #40]	@ 0x28
 8000a26:	f000 fb09 	bl	800103c <HAL_GPIO_Init>
 8000a2a:	f44f 1388 	mov.w	r3, #1114112	@ 0x110000
 8000a2e:	f44f 4200 	mov.w	r2, #32768	@ 0x8000
 8000a32:	a909      	add	r1, sp, #36	@ 0x24
 8000a34:	483a      	ldr	r0, [pc, #232]	@ (8000b20 <main+0x20c>)
 8000a36:	950b      	str	r5, [sp, #44]	@ 0x2c
 8000a38:	e9cd 2309 	strd	r2, r3, [sp, #36]	@ 0x24
 8000a3c:	f000 fafe 	bl	800103c <HAL_GPIO_Init>
 8000a40:	4838      	ldr	r0, [pc, #224]	@ (8000b24 <main+0x210>)
 8000a42:	a909      	add	r1, sp, #36	@ 0x24
 8000a44:	9609      	str	r6, [sp, #36]	@ 0x24
 8000a46:	e9cd 450a 	strd	r4, r5, [sp, #40]	@ 0x28
 8000a4a:	4d37      	ldr	r5, [pc, #220]	@ (8000b28 <main+0x214>)
 8000a4c:	f000 faf6 	bl	800103c <HAL_GPIO_Init>
 8000a50:	f005 fd86 	bl	8006560 <MX_USB_DEVICE_Init>
 8000a54:	4b35      	ldr	r3, [pc, #212]	@ (8000b2c <main+0x218>)
 8000a56:	4628      	mov	r0, r5
 8000a58:	612c      	str	r4, [r5, #16]
 8000a5a:	602b      	str	r3, [r5, #0]
 8000a5c:	f44f 33e1 	mov.w	r3, #115200	@ 0x1c200
 8000a60:	62ac      	str	r4, [r5, #40]	@ 0x28
 8000a62:	606b      	str	r3, [r5, #4]
 8000a64:	230c      	movs	r3, #12
 8000a66:	e9c5 4402 	strd	r4, r4, [r5, #8]
 8000a6a:	e9c5 4406 	strd	r4, r4, [r5, #24]
 8000a6e:	e9c5 4408 	strd	r4, r4, [r5, #32]
 8000a72:	616b      	str	r3, [r5, #20]
 8000a74:	f004 f88e 	bl	8004b94 <HAL_UART_Init>
 8000a78:	b108      	cbz	r0, 8000a7e <main+0x16a>
 8000a7a:	b672      	cpsid	i
 8000a7c:	e7fe      	b.n	8000a7c <main+0x168>
 8000a7e:	4601      	mov	r1, r0
 8000a80:	4628      	mov	r0, r5
 8000a82:	f004 f8d9 	bl	8004c38 <HAL_UARTEx_SetTxFifoThreshold>
 8000a86:	b108      	cbz	r0, 8000a8c <main+0x178>
 8000a88:	b672      	cpsid	i
 8000a8a:	e7fe      	b.n	8000a8a <main+0x176>
 8000a8c:	4601      	mov	r1, r0
 8000a8e:	4628      	mov	r0, r5
 8000a90:	f004 f914 	bl	8004cbc <HAL_UARTEx_SetRxFifoThreshold>
 8000a94:	b108      	cbz	r0, 8000a9a <main+0x186>
 8000a96:	b672      	cpsid	i
 8000a98:	e7fe      	b.n	8000a98 <main+0x184>
 8000a9a:	4628      	mov	r0, r5
 8000a9c:	f004 f8ae 	bl	8004bfc <HAL_UARTEx_DisableFifoMode>
 8000aa0:	bb98      	cbnz	r0, 8000b0a <main+0x1f6>
 8000aa2:	4f23      	ldr	r7, [pc, #140]	@ (8000b30 <main+0x21c>)
 8000aa4:	4e23      	ldr	r6, [pc, #140]	@ (8000b34 <main+0x220>)
 8000aa6:	f8df 9090 	ldr.w	r9, [pc, #144]	@ 8000b38 <main+0x224>
 8000aaa:	f8df 8090 	ldr.w	r8, [pc, #144]	@ 8000b3c <main+0x228>
 8000aae:	e021      	b.n	8000af4 <main+0x1e0>
 8000ab0:	f000 f9ec 	bl	8000e8c <HAL_GetTick>
 8000ab4:	6834      	ldr	r4, [r6, #0]
 8000ab6:	4602      	mov	r2, r0
 8000ab8:	4641      	mov	r1, r8
 8000aba:	fb89 c304 	smull	ip, r3, r9, r4
 8000abe:	17e4      	asrs	r4, r4, #31
 8000ac0:	a809      	add	r0, sp, #36	@ 0x24
 8000ac2:	ebc4 03a3 	rsb	r3, r4, r3, asr #2
 8000ac6:	f006 f815 	bl	8006af4 <siprintf>
 8000aca:	a809      	add	r0, sp, #36	@ 0x24
 8000acc:	f7ff fc20 	bl	8000310 <strlen>
 8000ad0:	f04f 33ff 	mov.w	r3, #4294967295
 8000ad4:	b282      	uxth	r2, r0
 8000ad6:	a909      	add	r1, sp, #36	@ 0x24
 8000ad8:	4628      	mov	r0, r5
 8000ada:	f003 fc97 	bl	800440c <HAL_UART_Transmit>
 8000ade:	f000 f9d5 	bl	8000e8c <HAL_GetTick>
 8000ae2:	2301      	movs	r3, #1
 8000ae4:	6038      	str	r0, [r7, #0]
 8000ae6:	4668      	mov	r0, sp
 8000ae8:	6033      	str	r3, [r6, #0]
 8000aea:	f7ff fde1 	bl	80006b0 <MatrixScan>
 8000aee:	4668      	mov	r0, sp
 8000af0:	f7ff fdde 	bl	80006b0 <MatrixScan>
 8000af4:	f000 f9ca 	bl	8000e8c <HAL_GetTick>
 8000af8:	683b      	ldr	r3, [r7, #0]
 8000afa:	1ac0      	subs	r0, r0, r3
 8000afc:	f242 730f 	movw	r3, #9999	@ 0x270f
 8000b00:	4298      	cmp	r0, r3
 8000b02:	d8d5      	bhi.n	8000ab0 <main+0x19c>
 8000b04:	6833      	ldr	r3, [r6, #0]
 8000b06:	3301      	adds	r3, #1
 8000b08:	e7ed      	b.n	8000ae6 <main+0x1d2>
 8000b0a:	b672      	cpsid	i
 8000b0c:	e7fe      	b.n	8000b0c <main+0x1f8>
 8000b0e:	bf00      	nop
 8000b10:	58024400 	.word	0x58024400
 8000b14:	58021000 	.word	0x58021000
 8000b18:	58020800 	.word	0x58020800
 8000b1c:	58020000 	.word	0x58020000
 8000b20:	58020400 	.word	0x58020400
 8000b24:	58020c00 	.word	0x58020c00
 8000b28:	240001a0 	.word	0x240001a0
 8000b2c:	40004c00 	.word	0x40004c00
 8000b30:	24000198 	.word	0x24000198
 8000b34:	2400019c 	.word	0x2400019c
 8000b38:	66666667 	.word	0x66666667
 8000b3c:	08007514 	.word	0x08007514

08000b40 <Error_Handler>:
 8000b40:	b672      	cpsid	i
 8000b42:	e7fe      	b.n	8000b42 <Error_Handler+0x2>

08000b44 <HAL_MspInit>:

  /* USER CODE BEGIN MspInit 0 */

  /* USER CODE END MspInit 0 */

  __HAL_RCC_SYSCFG_CLK_ENABLE();
 8000b44:	4b07      	ldr	r3, [pc, #28]	@ (8000b64 <HAL_MspInit+0x20>)
{
 8000b46:	b082      	sub	sp, #8
  __HAL_RCC_SYSCFG_CLK_ENABLE();
 8000b48:	f8d3 20f4 	ldr.w	r2, [r3, #244]	@ 0xf4
 8000b4c:	f042 0202 	orr.w	r2, r2, #2
 8000b50:	f8c3 20f4 	str.w	r2, [r3, #244]	@ 0xf4
 8000b54:	f8d3 30f4 	ldr.w	r3, [r3, #244]	@ 0xf4
 8000b58:	f003 0302 	and.w	r3, r3, #2
 8000b5c:	9301      	str	r3, [sp, #4]
 8000b5e:	9b01      	ldr	r3, [sp, #4]
  /* System interrupt init*/

  /* USER CODE BEGIN MspInit 1 */

  /* USER CODE END MspInit 1 */
}
 8000b60:	b002      	add	sp, #8
 8000b62:	4770      	bx	lr
 8000b64:	58024400 	.word	0x58024400

08000b68 <HAL_UART_MspInit>:
* This function configures the hardware resources used in this example
* @param huart: UART handle pointer
* @retval None
*/
void HAL_UART_MspInit(UART_HandleTypeDef* huart)
{
 8000b68:	b510      	push	{r4, lr}
 8000b6a:	b0b6      	sub	sp, #216	@ 0xd8
  GPIO_InitTypeDef GPIO_InitStruct = {0};
 8000b6c:	2100      	movs	r1, #0
{
 8000b6e:	4604      	mov	r4, r0
  RCC_PeriphCLKInitTypeDef PeriphClkInitStruct = {0};
 8000b70:	22b8      	movs	r2, #184	@ 0xb8
 8000b72:	a808      	add	r0, sp, #32
  GPIO_InitTypeDef GPIO_InitStruct = {0};
 8000b74:	9106      	str	r1, [sp, #24]
 8000b76:	e9cd 1102 	strd	r1, r1, [sp, #8]
 8000b7a:	e9cd 1104 	strd	r1, r1, [sp, #16]
  RCC_PeriphCLKInitTypeDef PeriphClkInitStruct = {0};
 8000b7e:	f005 ffd9 	bl	8006b34 <memset>
  if(huart->Instance==UART4)
 8000b82:	4b21      	ldr	r3, [pc, #132]	@ (8000c08 <HAL_UART_MspInit+0xa0>)
 8000b84:	6822      	ldr	r2, [r4, #0]
 8000b86:	429a      	cmp	r2, r3
 8000b88:	d001      	beq.n	8000b8e <HAL_UART_MspInit+0x26>

  /* USER CODE END UART4_MspInit 1 */

  }

}
 8000b8a:	b036      	add	sp, #216	@ 0xd8
 8000b8c:	bd10      	pop	{r4, pc}
    PeriphClkInitStruct.PeriphClockSelection = RCC_PERIPHCLK_UART4;
 8000b8e:	2202      	movs	r2, #2
 8000b90:	2300      	movs	r3, #0
    if (HAL_RCCEx_PeriphCLKConfig(&PeriphClkInitStruct) != HAL_OK)
 8000b92:	a808      	add	r0, sp, #32
    PeriphClkInitStruct.PeriphClockSelection = RCC_PERIPHCLK_UART4;
 8000b94:	e9cd 2308 	strd	r2, r3, [sp, #32]
    if (HAL_RCCEx_PeriphCLKConfig(&PeriphClkInitStruct) != HAL_OK)
 8000b98:	f002 fbf0 	bl	800337c <HAL_RCCEx_PeriphCLKConfig>
 8000b9c:	bb48      	cbnz	r0, 8000bf2 <HAL_UART_MspInit+0x8a>
    __HAL_RCC_UART4_CLK_ENABLE();
 8000b9e:	4b1b      	ldr	r3, [pc, #108]	@ (8000c0c <HAL_UART_MspInit+0xa4>)
    GPIO_InitStruct.Alternate = GPIO_AF8_UART4;
 8000ba0:	2408      	movs	r4, #8
    HAL_GPIO_Init(GPIOA, &GPIO_InitStruct);
 8000ba2:	481b      	ldr	r0, [pc, #108]	@ (8000c10 <HAL_UART_MspInit+0xa8>)
    __HAL_RCC_UART4_CLK_ENABLE();
 8000ba4:	f8d3 20e8 	ldr.w	r2, [r3, #232]	@ 0xe8
    HAL_GPIO_Init(GPIOA, &GPIO_InitStruct);
 8000ba8:	eb0d 0104 	add.w	r1, sp, r4
    __HAL_RCC_UART4_CLK_ENABLE();
 8000bac:	f442 2200 	orr.w	r2, r2, #524288	@ 0x80000
 8000bb0:	f8c3 20e8 	str.w	r2, [r3, #232]	@ 0xe8
 8000bb4:	f8d3 20e8 	ldr.w	r2, [r3, #232]	@ 0xe8
 8000bb8:	f402 2200 	and.w	r2, r2, #524288	@ 0x80000
 8000bbc:	9200      	str	r2, [sp, #0]
 8000bbe:	9a00      	ldr	r2, [sp, #0]
    __HAL_RCC_GPIOA_CLK_ENABLE();
 8000bc0:	f8d3 20e0 	ldr.w	r2, [r3, #224]	@ 0xe0
 8000bc4:	f042 0201 	orr.w	r2, r2, #1
 8000bc8:	f8c3 20e0 	str.w	r2, [r3, #224]	@ 0xe0
 8000bcc:	f8d3 30e0 	ldr.w	r3, [r3, #224]	@ 0xe0
    GPIO_InitStruct.Alternate = GPIO_AF8_UART4;
 8000bd0:	9406      	str	r4, [sp, #24]
    __HAL_RCC_GPIOA_CLK_ENABLE();
 8000bd2:	f003 0301 	and.w	r3, r3, #1
    GPIO_InitStruct.Pin = GPIO_PIN_0|GPIO_PIN_1;
 8000bd6:	ed9f 7b08 	vldr	d7, [pc, #32]	@ 8000bf8 <HAL_UART_MspInit+0x90>
    __HAL_RCC_GPIOA_CLK_ENABLE();
 8000bda:	9301      	str	r3, [sp, #4]
 8000bdc:	9b01      	ldr	r3, [sp, #4]
    GPIO_InitStruct.Pin = GPIO_PIN_0|GPIO_PIN_1;
 8000bde:	ed8d 7b02 	vstr	d7, [sp, #8]
 8000be2:	ed9f 7b07 	vldr	d7, [pc, #28]	@ 8000c00 <HAL_UART_MspInit+0x98>
 8000be6:	ed8d 7b04 	vstr	d7, [sp, #16]
    HAL_GPIO_Init(GPIOA, &GPIO_InitStruct);
 8000bea:	f000 fa27 	bl	800103c <HAL_GPIO_Init>
}
 8000bee:	b036      	add	sp, #216	@ 0xd8
 8000bf0:	bd10      	pop	{r4, pc}
      Error_Handler();
 8000bf2:	f7ff ffa5 	bl	8000b40 <Error_Handler>
 8000bf6:	e7d2      	b.n	8000b9e <HAL_UART_MspInit+0x36>
 8000bf8:	00000003 	.word	0x00000003
 8000bfc:	00000002 	.word	0x00000002
	...
 8000c08:	40004c00 	.word	0x40004c00
 8000c0c:	58024400 	.word	0x58024400
 8000c10:	58020000 	.word	0x58020000

08000c14 <NMI_Handler>:
{
  /* USER CODE BEGIN NonMaskableInt_IRQn 0 */

  /* USER CODE END NonMaskableInt_IRQn 0 */
  /* USER CODE BEGIN NonMaskableInt_IRQn 1 */
   while (1)
 8000c14:	e7fe      	b.n	8000c14 <NMI_Handler>
 8000c16:	bf00      	nop

08000c18 <HardFault_Handler>:
void HardFault_Handler(void)
{
  /* USER CODE BEGIN HardFault_IRQn 0 */

  /* USER CODE END HardFault_IRQn 0 */
  while (1)
 8000c18:	e7fe      	b.n	8000c18 <HardFault_Handler>
 8000c1a:	bf00      	nop

08000c1c <MemManage_Handler>:
void MemManage_Handler(void)
{
  /* USER CODE BEGIN MemoryManagement_IRQn 0 */

  /* USER CODE END MemoryManagement_IRQn 0 */
  while (1)
 8000c1c:	e7fe      	b.n	8000c1c <MemManage_Handler>
 8000c1e:	bf00      	nop

08000c20 <BusFault_Handler>:
void BusFault_Handler(void)
{
  /* USER CODE BEGIN BusFault_IRQn 0 */

  /* USER CODE END BusFault_IRQn 0 */
  while (1)
 8000c20:	e7fe      	b.n	8000c20 <BusFault_Handler>
 8000c22:	bf00      	nop

08000c24 <UsageFault_Handler>:
void UsageFault_Handler(void)
{
  /* USER CODE BEGIN UsageFault_IRQn 0 */

  /* USER CODE END UsageFault_IRQn 0 */
  while (1)
 8000c24:	e7fe      	b.n	8000c24 <UsageFault_Handler>
 8000c26:	bf00      	nop

08000c28 <SVC_Handler>:

  /* USER CODE END SVCall_IRQn 0 */
  /* USER CODE BEGIN SVCall_IRQn 1 */

  /* USER CODE END SVCall_IRQn 1 */
}
 8000c28:	4770      	bx	lr
 8000c2a:	bf00      	nop

08000c2c <DebugMon_Handler>:

/**
  * @brief This function handles Debug monitor.
  */
void DebugMon_Handler(void)
 8000c2c:	4770      	bx	lr
 8000c2e:	bf00      	nop

08000c30 <PendSV_Handler>:
}

/**
  * @brief This function handles Pendable request for system service.
  */
void PendSV_Handler(void)
 8000c30:	4770      	bx	lr
 8000c32:	bf00      	nop

08000c34 <SysTick_Handler>:
void SysTick_Handler(void)
{
  /* USER CODE BEGIN SysTick_IRQn 0 */

  /* USER CODE END SysTick_IRQn 0 */
  HAL_IncTick();
 8000c34:	f000 b91e 	b.w	8000e74 <HAL_IncTick>

08000c38 <OTG_HS_IRQHandler>:
void OTG_HS_IRQHandler(void)
{
  /* USER CODE BEGIN OTG_HS_IRQn 0 */

  /* USER CODE END OTG_HS_IRQn 0 */
  HAL_PCD_IRQHandler(&hpcd_USB_OTG_HS);
 8000c38:	4801      	ldr	r0, [pc, #4]	@ (8000c40 <OTG_HS_IRQHandler+0x8>)
 8000c3a:	f000 bd5d 	b.w	80016f8 <HAL_PCD_IRQHandler>
 8000c3e:	bf00      	nop
 8000c40:	24000730 	.word	0x24000730

08000c44 <_sbrk>:
  const uint32_t stack_limit = (uint32_t)&_estack - (uint32_t)&_Min_Stack_Size;
  const uint8_t *max_heap = (uint8_t *)stack_limit;
  uint8_t *prev_heap_end;

  /* Initialize heap end at first call */
  if (NULL == __sbrk_heap_end)
 8000c44:	490d      	ldr	r1, [pc, #52]	@ (8000c7c <_sbrk+0x38>)
{
 8000c46:	4603      	mov	r3, r0
  const uint32_t stack_limit = (uint32_t)&_estack - (uint32_t)&_Min_Stack_Size;
 8000c48:	4a0d      	ldr	r2, [pc, #52]	@ (8000c80 <_sbrk+0x3c>)
  if (NULL == __sbrk_heap_end)
 8000c4a:	6808      	ldr	r0, [r1, #0]
{
 8000c4c:	b510      	push	{r4, lr}
  const uint32_t stack_limit = (uint32_t)&_estack - (uint32_t)&_Min_Stack_Size;
 8000c4e:	4c0d      	ldr	r4, [pc, #52]	@ (8000c84 <_sbrk+0x40>)
 8000c50:	1b12      	subs	r2, r2, r4
  if (NULL == __sbrk_heap_end)
 8000c52:	b120      	cbz	r0, 8000c5e <_sbrk+0x1a>
  {
    __sbrk_heap_end = &_end;
  }

  /* Protect heap from growing into the reserved MSP stack */
  if (__sbrk_heap_end + incr > max_heap)
 8000c54:	4403      	add	r3, r0
 8000c56:	4293      	cmp	r3, r2
 8000c58:	d807      	bhi.n	8000c6a <_sbrk+0x26>
    errno = ENOMEM;
    return (void *)-1;
  }

  prev_heap_end = __sbrk_heap_end;
  __sbrk_heap_end += incr;
 8000c5a:	600b      	str	r3, [r1, #0]

  return (void *)prev_heap_end;
}
 8000c5c:	bd10      	pop	{r4, pc}
    __sbrk_heap_end = &_end;
 8000c5e:	4c0a      	ldr	r4, [pc, #40]	@ (8000c88 <_sbrk+0x44>)
 8000c60:	4620      	mov	r0, r4
 8000c62:	600c      	str	r4, [r1, #0]
  if (__sbrk_heap_end + incr > max_heap)
 8000c64:	4403      	add	r3, r0
 8000c66:	4293      	cmp	r3, r2
 8000c68:	d9f7      	bls.n	8000c5a <_sbrk+0x16>
    errno = ENOMEM;
 8000c6a:	f005 ff6b 	bl	8006b44 <__errno>
 8000c6e:	220c      	movs	r2, #12
 8000c70:	4603      	mov	r3, r0
    return (void *)-1;
 8000c72:	f04f 30ff 	mov.w	r0, #4294967295
    errno = ENOMEM;
 8000c76:	601a      	str	r2, [r3, #0]
}
 8000c78:	bd10      	pop	{r4, pc}
 8000c7a:	bf00      	nop
 8000c7c:	24000234 	.word	0x24000234
 8000c80:	24050000 	.word	0x24050000
 8000c84:	00000400 	.word	0x00000400
 8000c88:	24000d60 	.word	0x24000d60

08000c8c <SystemInit>:
 __IO uint32_t tmpreg;
#endif /* DATA_IN_D2_SRAM */

  /* FPU settings ------------------------------------------------------------*/
  #if (__FPU_PRESENT == 1) && (__FPU_USED == 1)
    SCB->CPACR |= ((3UL << (10*2))|(3UL << (11*2)));  /* set CP10 and CP11 Full Access */
 8000c8c:	492a      	ldr	r1, [pc, #168]	@ (8000d38 <SystemInit+0xac>)
  #endif
  /* Reset the RCC clock configuration to the default reset state ------------*/

   /* Increasing the CPU frequency */
  if(FLASH_LATENCY_DEFAULT  > (READ_BIT((FLASH->ACR), FLASH_ACR_LATENCY)))
 8000c8e:	4a2b      	ldr	r2, [pc, #172]	@ (8000d3c <SystemInit+0xb0>)
    SCB->CPACR |= ((3UL << (10*2))|(3UL << (11*2)));  /* set CP10 and CP11 Full Access */
 8000c90:	f8d1 3088 	ldr.w	r3, [r1, #136]	@ 0x88
 8000c94:	f443 0370 	orr.w	r3, r3, #15728640	@ 0xf00000
{
 8000c98:	b410      	push	{r4}
    SCB->CPACR |= ((3UL << (10*2))|(3UL << (11*2)));  /* set CP10 and CP11 Full Access */
 8000c9a:	f8c1 3088 	str.w	r3, [r1, #136]	@ 0x88
  if(FLASH_LATENCY_DEFAULT  > (READ_BIT((FLASH->ACR), FLASH_ACR_LATENCY)))
 8000c9e:	6813      	ldr	r3, [r2, #0]
 8000ca0:	f003 030f 	and.w	r3, r3, #15
 8000ca4:	2b06      	cmp	r3, #6
 8000ca6:	d805      	bhi.n	8000cb4 <SystemInit+0x28>
  {
    /* Program the new number of wait states to the LATENCY bits in the FLASH_ACR register */
    MODIFY_REG(FLASH->ACR, FLASH_ACR_LATENCY, (uint32_t)(FLASH_LATENCY_DEFAULT));
 8000ca8:	6813      	ldr	r3, [r2, #0]
 8000caa:	f023 030f 	bic.w	r3, r3, #15
 8000cae:	f043 0307 	orr.w	r3, r3, #7
 8000cb2:	6013      	str	r3, [r2, #0]
  }

  /* Set HSION bit */
  RCC->CR |= RCC_CR_HSION;
 8000cb4:	4b22      	ldr	r3, [pc, #136]	@ (8000d40 <SystemInit+0xb4>)

  /* Reset CFGR register */
  RCC->CFGR = 0x00000000;
 8000cb6:	2400      	movs	r4, #0

  /* Reset HSEON, HSECSSON, CSION, HSI48ON, CSIKERON, PLL1ON, PLL2ON and PLL3ON bits */
  RCC->CR &= 0xEAF6ED7FU;
 8000cb8:	4a22      	ldr	r2, [pc, #136]	@ (8000d44 <SystemInit+0xb8>)
  RCC->CR |= RCC_CR_HSION;
 8000cba:	6819      	ldr	r1, [r3, #0]

   /* Decreasing the number of wait states because of lower CPU frequency */
  if(FLASH_LATENCY_DEFAULT  < (READ_BIT((FLASH->ACR), FLASH_ACR_LATENCY)))
 8000cbc:	481f      	ldr	r0, [pc, #124]	@ (8000d3c <SystemInit+0xb0>)
  RCC->CR |= RCC_CR_HSION;
 8000cbe:	f041 0101 	orr.w	r1, r1, #1
 8000cc2:	6019      	str	r1, [r3, #0]
  RCC->CFGR = 0x00000000;
 8000cc4:	611c      	str	r4, [r3, #16]
  RCC->CR &= 0xEAF6ED7FU;
 8000cc6:	6819      	ldr	r1, [r3, #0]
 8000cc8:	400a      	ands	r2, r1
 8000cca:	601a      	str	r2, [r3, #0]
  if(FLASH_LATENCY_DEFAULT  < (READ_BIT((FLASH->ACR), FLASH_ACR_LATENCY)))
 8000ccc:	6803      	ldr	r3, [r0, #0]
 8000cce:	0719      	lsls	r1, r3, #28
 8000cd0:	d505      	bpl.n	8000cde <SystemInit+0x52>
  {
    /* Program the new number of wait states to the LATENCY bits in the FLASH_ACR register */
    MODIFY_REG(FLASH->ACR, FLASH_ACR_LATENCY, (uint32_t)(FLASH_LATENCY_DEFAULT));
 8000cd2:	6803      	ldr	r3, [r0, #0]
 8000cd4:	f023 030f 	bic.w	r3, r3, #15
 8000cd8:	f043 0307 	orr.w	r3, r3, #7
 8000cdc:	6003      	str	r3, [r0, #0]
  }

#if defined(D3_SRAM_BASE)
  /* Reset D1CFGR register */
  RCC->D1CFGR = 0x00000000;
 8000cde:	4b18      	ldr	r3, [pc, #96]	@ (8000d40 <SystemInit+0xb4>)
 8000ce0:	2200      	movs	r2, #0
  RCC->PLLCKSELR = 0x02020200;

  /* Reset PLLCFGR register */
  RCC->PLLCFGR = 0x01FF0000;
  /* Reset PLL1DIVR register */
  RCC->PLL1DIVR = 0x01010280;
 8000ce2:	4919      	ldr	r1, [pc, #100]	@ (8000d48 <SystemInit+0xbc>)
  RCC->PLLCKSELR = 0x02020200;
 8000ce4:	4c19      	ldr	r4, [pc, #100]	@ (8000d4c <SystemInit+0xc0>)
  RCC->PLLCFGR = 0x01FF0000;
 8000ce6:	481a      	ldr	r0, [pc, #104]	@ (8000d50 <SystemInit+0xc4>)
  RCC->D1CFGR = 0x00000000;
 8000ce8:	619a      	str	r2, [r3, #24]
  RCC->D2CFGR = 0x00000000;
 8000cea:	61da      	str	r2, [r3, #28]
  RCC->D3CFGR = 0x00000000;
 8000cec:	621a      	str	r2, [r3, #32]
  RCC->PLLCKSELR = 0x02020200;
 8000cee:	629c      	str	r4, [r3, #40]	@ 0x28
  RCC->PLLCFGR = 0x01FF0000;
 8000cf0:	62d8      	str	r0, [r3, #44]	@ 0x2c
  RCC->PLL1DIVR = 0x01010280;
 8000cf2:	6319      	str	r1, [r3, #48]	@ 0x30
  /* Reset PLL1FRACR register */
  RCC->PLL1FRACR = 0x00000000;
 8000cf4:	635a      	str	r2, [r3, #52]	@ 0x34

  /* Reset PLL2DIVR register */
  RCC->PLL2DIVR = 0x01010280;
 8000cf6:	6399      	str	r1, [r3, #56]	@ 0x38

  /* Reset PLL2FRACR register */

  RCC->PLL2FRACR = 0x00000000;
 8000cf8:	63da      	str	r2, [r3, #60]	@ 0x3c
  /* Reset PLL3DIVR register */
  RCC->PLL3DIVR = 0x01010280;
 8000cfa:	6419      	str	r1, [r3, #64]	@ 0x40

  /* Reset PLL3FRACR register */
  RCC->PLL3FRACR = 0x00000000;
 8000cfc:	645a      	str	r2, [r3, #68]	@ 0x44

  /* Reset HSEBYP bit */
  RCC->CR &= 0xFFFBFFFFU;
 8000cfe:	6819      	ldr	r1, [r3, #0]
 8000d00:	f421 2180 	bic.w	r1, r1, #262144	@ 0x40000
 8000d04:	6019      	str	r1, [r3, #0]

  /* Disable all interrupts */
  RCC->CIER = 0x00000000;
 8000d06:	661a      	str	r2, [r3, #96]	@ 0x60
#if defined(USER_VECT_TAB_ADDRESS)
  SCB->VTOR = VECT_TAB_BASE_ADDRESS | VECT_TAB_OFFSET; /* Vector Table Relocation in Internal D2 AXI-RAM or in Internal FLASH */
#endif /* USER_VECT_TAB_ADDRESS */

#else
  if(READ_BIT(RCC->AHB3ENR, RCC_AHB3ENR_FMCEN) == 0U)
 8000d08:	f8d3 20d4 	ldr.w	r2, [r3, #212]	@ 0xd4
 8000d0c:	04d2      	lsls	r2, r2, #19
 8000d0e:	d40f      	bmi.n	8000d30 <SystemInit+0xa4>
  {
    /* Enable the FMC interface clock */
    SET_BIT(RCC->AHB3ENR, RCC_AHB3ENR_FMCEN);
 8000d10:	f8d3 20d4 	ldr.w	r2, [r3, #212]	@ 0xd4
    /*
     * Disable the FMC bank1 (enabled after reset).
     * This, prevents CPU speculation access on this bank which blocks the use of FMC during
     * 24us. During this time the others FMC master (such as LTDC) cannot use it!
     */
    FMC_Bank1_R->BTCR[0] = 0x000030D2;
 8000d14:	f243 00d2 	movw	r0, #12498	@ 0x30d2
 8000d18:	490e      	ldr	r1, [pc, #56]	@ (8000d54 <SystemInit+0xc8>)
    SET_BIT(RCC->AHB3ENR, RCC_AHB3ENR_FMCEN);
 8000d1a:	f442 5280 	orr.w	r2, r2, #4096	@ 0x1000
 8000d1e:	f8c3 20d4 	str.w	r2, [r3, #212]	@ 0xd4
    FMC_Bank1_R->BTCR[0] = 0x000030D2;
 8000d22:	6008      	str	r0, [r1, #0]

    /* Disable the FMC interface clock */
    CLEAR_BIT(RCC->AHB3ENR, RCC_AHB3ENR_FMCEN);
 8000d24:	f8d3 20d4 	ldr.w	r2, [r3, #212]	@ 0xd4
 8000d28:	f422 5280 	bic.w	r2, r2, #4096	@ 0x1000
 8000d2c:	f8c3 20d4 	str.w	r2, [r3, #212]	@ 0xd4
#if defined(USER_VECT_TAB_ADDRESS)
  SCB->VTOR = VECT_TAB_BASE_ADDRESS | VECT_TAB_OFFSET; /* Vector Table Relocation in Internal D1 AXI-RAM or in Internal FLASH */
#endif /* USER_VECT_TAB_ADDRESS */

#endif /*DUAL_CORE && CORE_CM4*/
}
 8000d30:	f85d 4b04 	ldr.w	r4, [sp], #4
 8000d34:	4770      	bx	lr
 8000d36:	bf00      	nop
 8000d38:	e000ed00 	.word	0xe000ed00
 8000d3c:	52002000 	.word	0x52002000
 8000d40:	58024400 	.word	0x58024400
 8000d44:	eaf6ed7f 	.word	0xeaf6ed7f
 8000d48:	01010280 	.word	0x01010280
 8000d4c:	02020200 	.word	0x02020200
 8000d50:	01ff0000 	.word	0x01ff0000
 8000d54:	52004000 	.word	0x52004000

08000d58 <ExitRun0Mode>:
  #if defined(SMPS)
    /* Exit Run* mode by disabling SMPS and enabling LDO */
    PWR->CR3 = (PWR->CR3 & ~PWR_CR3_SMPSEN) | PWR_CR3_LDOEN;
  #else
    /* Enable LDO mode */
    PWR->CR3 |= PWR_CR3_LDOEN;
 8000d58:	4a04      	ldr	r2, [pc, #16]	@ (8000d6c <ExitRun0Mode+0x14>)
 8000d5a:	68d3      	ldr	r3, [r2, #12]
 8000d5c:	f043 0302 	orr.w	r3, r3, #2
 8000d60:	60d3      	str	r3, [r2, #12]
  #endif /* SMPS */
  /* Wait till voltage level flag is set */
  while ((PWR->CSR1 & PWR_CSR1_ACTVOSRDY) == 0U)
 8000d62:	6853      	ldr	r3, [r2, #4]
 8000d64:	049b      	lsls	r3, r3, #18
 8000d66:	d5fc      	bpl.n	8000d62 <ExitRun0Mode+0xa>
  while ((PWR->CSR1 & PWR_CSR1_ACTVOSRDY) == 0U)
  {}
#else
  /* No system power supply configuration is selected at exit Run* mode */
#endif /* USE_PWR_LDO_SUPPLY */
}
 8000d68:	4770      	bx	lr
 8000d6a:	bf00      	nop
 8000d6c:	58024800 	.word	0x58024800

08000d70 <Reset_Handler>:

    .section  .text.Reset_Handler
  .weak  Reset_Handler
  .type  Reset_Handler, %function
Reset_Handler:
  ldr   sp, =_estack      /* set stack pointer */
 8000d70:	f8df d038 	ldr.w	sp, [pc, #56]	@ 8000dac <LoopFillZerobss+0xe>

/* Call the ExitRun0Mode function to configure the power supply */
  bl  ExitRun0Mode
 8000d74:	f7ff fff0 	bl	8000d58 <ExitRun0Mode>
/* Call the clock system initialization function.*/
  bl  SystemInit
 8000d78:	f7ff ff88 	bl	8000c8c <SystemInit>

/* Copy the data segment initializers from flash to SRAM */
  ldr r0, =_sdata
 8000d7c:	480c      	ldr	r0, [pc, #48]	@ (8000db0 <LoopFillZerobss+0x12>)
  ldr r1, =_edata
 8000d7e:	490d      	ldr	r1, [pc, #52]	@ (8000db4 <LoopFillZerobss+0x16>)
  ldr r2, =_sidata
 8000d80:	4a0d      	ldr	r2, [pc, #52]	@ (8000db8 <LoopFillZerobss+0x1a>)
  movs r3, #0
 8000d82:	2300      	movs	r3, #0
  b LoopCopyDataInit
 8000d84:	e002      	b.n	8000d8c <LoopCopyDataInit>

08000d86 <CopyDataInit>:

CopyDataInit:
  ldr r4, [r2, r3]
 8000d86:	58d4      	ldr	r4, [r2, r3]
  str r4, [r0, r3]
 8000d88:	50c4      	str	r4, [r0, r3]
  adds r3, r3, #4
 8000d8a:	3304      	adds	r3, #4

08000d8c <LoopCopyDataInit>:

LoopCopyDataInit:
  adds r4, r0, r3
 8000d8c:	18c4      	adds	r4, r0, r3
  cmp r4, r1
 8000d8e:	428c      	cmp	r4, r1
  bcc CopyDataInit
 8000d90:	d3f9      	bcc.n	8000d86 <CopyDataInit>
/* Zero fill the bss segment. */
  ldr r2, =_sbss
 8000d92:	4a0a      	ldr	r2, [pc, #40]	@ (8000dbc <LoopFillZerobss+0x1e>)
  ldr r4, =_ebss
 8000d94:	4c0a      	ldr	r4, [pc, #40]	@ (8000dc0 <LoopFillZerobss+0x22>)
  movs r3, #0
 8000d96:	2300      	movs	r3, #0
  b LoopFillZerobss
 8000d98:	e001      	b.n	8000d9e <LoopFillZerobss>

08000d9a <FillZerobss>:

FillZerobss:
  str  r3, [r2]
 8000d9a:	6013      	str	r3, [r2, #0]
  adds r2, r2, #4
 8000d9c:	3204      	adds	r2, #4

08000d9e <LoopFillZerobss>:

LoopFillZerobss:
  cmp r2, r4
 8000d9e:	42a2      	cmp	r2, r4
  bcc FillZerobss
 8000da0:	d3fb      	bcc.n	8000d9a <FillZerobss>

/* Call static constructors */
    bl __libc_init_array
 8000da2:	f005 fed5 	bl	8006b50 <__libc_init_array>
/* Call the application's entry point.*/
  bl  main
 8000da6:	f7ff fdb5 	bl	8000914 <main>
  bx  lr
 8000daa:	4770      	bx	lr
  ldr   sp, =_estack      /* set stack pointer */
 8000dac:	24050000 	.word	0x24050000
  ldr r0, =_sdata
 8000db0:	24000000 	.word	0x24000000
  ldr r1, =_edata
 8000db4:	24000168 	.word	0x24000168
  ldr r2, =_sidata
 8000db8:	08007600 	.word	0x08007600
  ldr r2, =_sbss
 8000dbc:	24000168 	.word	0x24000168
  ldr r4, =_ebss
 8000dc0:	24000d5c 	.word	0x24000d5c

08000dc4 <ADC3_IRQHandler>:
 * @retval None
*/
    .section  .text.Default_Handler,"ax",%progbits
Default_Handler:
Infinite_Loop:
  b  Infinite_Loop
 8000dc4:	e7fe      	b.n	8000dc4 <ADC3_IRQHandler>
	...

08000dc8 <HAL_InitTick>:
  * @retval HAL status
  */
__weak HAL_StatusTypeDef HAL_InitTick(uint32_t TickPriority)
{
  /* Check uwTickFreq for MisraC 2012 (even if uwTickFreq is a enum type that don't take the value zero)*/
  if((uint32_t)uwTickFreq == 0UL)
 8000dc8:	4b0f      	ldr	r3, [pc, #60]	@ (8000e08 <HAL_InitTick+0x40>)
 8000dca:	781b      	ldrb	r3, [r3, #0]
 8000dcc:	b90b      	cbnz	r3, 8000dd2 <HAL_InitTick+0xa>
  {
    return HAL_ERROR;
 8000dce:	2001      	movs	r0, #1
    return HAL_ERROR;
  }

  /* Return function status */
  return HAL_OK;
}
 8000dd0:	4770      	bx	lr
{
 8000dd2:	b510      	push	{r4, lr}
 8000dd4:	4604      	mov	r4, r0
    if (HAL_SYSTICK_Config(SystemCoreClock / (1000UL / (uint32_t)uwTickFreq)) > 0U)
 8000dd6:	f44f 707a 	mov.w	r0, #1000	@ 0x3e8
 8000dda:	4a0c      	ldr	r2, [pc, #48]	@ (8000e0c <HAL_InitTick+0x44>)
 8000ddc:	fbb0 f3f3 	udiv	r3, r0, r3
 8000de0:	6810      	ldr	r0, [r2, #0]
 8000de2:	fbb0 f0f3 	udiv	r0, r0, r3
 8000de6:	f000 f8c5 	bl	8000f74 <HAL_SYSTICK_Config>
  if (TickPriority < (1UL << __NVIC_PRIO_BITS))
 8000dea:	b908      	cbnz	r0, 8000df0 <HAL_InitTick+0x28>
 8000dec:	2c0f      	cmp	r4, #15
 8000dee:	d901      	bls.n	8000df4 <HAL_InitTick+0x2c>
    return HAL_ERROR;
 8000df0:	2001      	movs	r0, #1
}
 8000df2:	bd10      	pop	{r4, pc}
    HAL_NVIC_SetPriority(SysTick_IRQn, TickPriority, 0U);
 8000df4:	2200      	movs	r2, #0
 8000df6:	4621      	mov	r1, r4
 8000df8:	f04f 30ff 	mov.w	r0, #4294967295
 8000dfc:	f000 f870 	bl	8000ee0 <HAL_NVIC_SetPriority>
    uwTickPrio = TickPriority;
 8000e00:	4b03      	ldr	r3, [pc, #12]	@ (8000e10 <HAL_InitTick+0x48>)
 8000e02:	2000      	movs	r0, #0
 8000e04:	601c      	str	r4, [r3, #0]
}
 8000e06:	bd10      	pop	{r4, pc}
 8000e08:	24000008 	.word	0x24000008
 8000e0c:	24000004 	.word	0x24000004
 8000e10:	2400000c 	.word	0x2400000c

08000e14 <HAL_Init>:
{
 8000e14:	b510      	push	{r4, lr}
  HAL_NVIC_SetPriorityGrouping(NVIC_PRIORITYGROUP_4);
 8000e16:	2003      	movs	r0, #3
  SystemD2Clock = (common_system_clock >> ((D1CorePrescTable[(RCC->D1CFGR & RCC_D1CFGR_HPRE)>> RCC_D1CFGR_HPRE_Pos]) & 0x1FU));
 8000e18:	4c12      	ldr	r4, [pc, #72]	@ (8000e64 <HAL_Init+0x50>)
  HAL_NVIC_SetPriorityGrouping(NVIC_PRIORITYGROUP_4);
 8000e1a:	f000 f84f 	bl	8000ebc <HAL_NVIC_SetPriorityGrouping>
  common_system_clock = HAL_RCC_GetSysClockFreq() >> ((D1CorePrescTable[(RCC->D1CFGR & RCC_D1CFGR_D1CPRE)>> RCC_D1CFGR_D1CPRE_Pos]) & 0x1FU);
 8000e1e:	f001 ff41 	bl	8002ca4 <HAL_RCC_GetSysClockFreq>
 8000e22:	4b11      	ldr	r3, [pc, #68]	@ (8000e68 <HAL_Init+0x54>)
 8000e24:	4911      	ldr	r1, [pc, #68]	@ (8000e6c <HAL_Init+0x58>)
 8000e26:	699a      	ldr	r2, [r3, #24]
  SystemD2Clock = (common_system_clock >> ((D1CorePrescTable[(RCC->D1CFGR & RCC_D1CFGR_HPRE)>> RCC_D1CFGR_HPRE_Pos]) & 0x1FU));
 8000e28:	699b      	ldr	r3, [r3, #24]
  common_system_clock = HAL_RCC_GetSysClockFreq() >> ((D1CorePrescTable[(RCC->D1CFGR & RCC_D1CFGR_D1CPRE)>> RCC_D1CFGR_D1CPRE_Pos]) & 0x1FU);
 8000e2a:	f3c2 2203 	ubfx	r2, r2, #8, #4
  SystemD2Clock = (common_system_clock >> ((D1CorePrescTable[(RCC->D1CFGR & RCC_D1CFGR_HPRE)>> RCC_D1CFGR_HPRE_Pos]) & 0x1FU));
 8000e2e:	f003 030f 	and.w	r3, r3, #15
  common_system_clock = HAL_RCC_GetSysClockFreq() >> ((D1CorePrescTable[(RCC->D1CFGR & RCC_D1CFGR_D1CPRE)>> RCC_D1CFGR_D1CPRE_Pos]) & 0x1FU);
 8000e32:	5c8a      	ldrb	r2, [r1, r2]
  SystemD2Clock = (common_system_clock >> ((D1CorePrescTable[(RCC->D1CFGR & RCC_D1CFGR_HPRE)>> RCC_D1CFGR_HPRE_Pos]) & 0x1FU));
 8000e34:	5ccb      	ldrb	r3, [r1, r3]
  common_system_clock = HAL_RCC_GetSysClockFreq() >> ((D1CorePrescTable[(RCC->D1CFGR & RCC_D1CFGR_D1CPRE)>> RCC_D1CFGR_D1CPRE_Pos]) & 0x1FU);
 8000e36:	f002 021f 	and.w	r2, r2, #31
  SystemCoreClock = common_system_clock;
 8000e3a:	490d      	ldr	r1, [pc, #52]	@ (8000e70 <HAL_Init+0x5c>)
  SystemD2Clock = (common_system_clock >> ((D1CorePrescTable[(RCC->D1CFGR & RCC_D1CFGR_HPRE)>> RCC_D1CFGR_HPRE_Pos]) & 0x1FU));
 8000e3c:	f003 031f 	and.w	r3, r3, #31
  common_system_clock = HAL_RCC_GetSysClockFreq() >> ((D1CorePrescTable[(RCC->D1CFGR & RCC_D1CFGR_D1CPRE)>> RCC_D1CFGR_D1CPRE_Pos]) & 0x1FU);
 8000e40:	40d0      	lsrs	r0, r2
  SystemD2Clock = (common_system_clock >> ((D1CorePrescTable[(RCC->D1CFGR & RCC_D1CFGR_HPRE)>> RCC_D1CFGR_HPRE_Pos]) & 0x1FU));
 8000e42:	fa20 f303 	lsr.w	r3, r0, r3
  SystemCoreClock = common_system_clock;
 8000e46:	6008      	str	r0, [r1, #0]
  if(HAL_InitTick(TICK_INT_PRIORITY) != HAL_OK)
 8000e48:	200f      	movs	r0, #15
  SystemD2Clock = (common_system_clock >> ((D1CorePrescTable[(RCC->D1CFGR & RCC_D1CFGR_HPRE)>> RCC_D1CFGR_HPRE_Pos]) & 0x1FU));
 8000e4a:	6023      	str	r3, [r4, #0]
  if(HAL_InitTick(TICK_INT_PRIORITY) != HAL_OK)
 8000e4c:	f7ff ffbc 	bl	8000dc8 <HAL_InitTick>
 8000e50:	b110      	cbz	r0, 8000e58 <HAL_Init+0x44>
    return HAL_ERROR;
 8000e52:	2401      	movs	r4, #1
}
 8000e54:	4620      	mov	r0, r4
 8000e56:	bd10      	pop	{r4, pc}
 8000e58:	4604      	mov	r4, r0
  HAL_MspInit();
 8000e5a:	f7ff fe73 	bl	8000b44 <HAL_MspInit>
}
 8000e5e:	4620      	mov	r0, r4
 8000e60:	bd10      	pop	{r4, pc}
 8000e62:	bf00      	nop
 8000e64:	24000000 	.word	0x24000000
 8000e68:	58024400 	.word	0x58024400
 8000e6c:	0800753c 	.word	0x0800753c
 8000e70:	24000004 	.word	0x24000004

08000e74 <HAL_IncTick>:
  *      implementations in user file.
  * @retval None
  */
__weak void HAL_IncTick(void)
{
  uwTick += (uint32_t)uwTickFreq;
 8000e74:	4a03      	ldr	r2, [pc, #12]	@ (8000e84 <HAL_IncTick+0x10>)
 8000e76:	4b04      	ldr	r3, [pc, #16]	@ (8000e88 <HAL_IncTick+0x14>)
 8000e78:	6811      	ldr	r1, [r2, #0]
 8000e7a:	781b      	ldrb	r3, [r3, #0]
 8000e7c:	440b      	add	r3, r1
 8000e7e:	6013      	str	r3, [r2, #0]
}
 8000e80:	4770      	bx	lr
 8000e82:	bf00      	nop
 8000e84:	24000238 	.word	0x24000238
 8000e88:	24000008 	.word	0x24000008

08000e8c <HAL_GetTick>:
  *       implementations in user file.
  * @retval tick value
  */
__weak uint32_t HAL_GetTick(void)
{
  return uwTick;
 8000e8c:	4b01      	ldr	r3, [pc, #4]	@ (8000e94 <HAL_GetTick+0x8>)
 8000e8e:	6818      	ldr	r0, [r3, #0]
}
 8000e90:	4770      	bx	lr
 8000e92:	bf00      	nop
 8000e94:	24000238 	.word	0x24000238

08000e98 <HAL_Delay>:
  *       implementations in user file.
  * @param Delay  specifies the delay time length, in milliseconds.
  * @retval None
  */
__weak void HAL_Delay(uint32_t Delay)
{
 8000e98:	b538      	push	{r3, r4, r5, lr}
 8000e9a:	4604      	mov	r4, r0
  uint32_t tickstart = HAL_GetTick();
 8000e9c:	f7ff fff6 	bl	8000e8c <HAL_GetTick>
 8000ea0:	4605      	mov	r5, r0
  uint32_t wait = Delay;

  /* Add a freq to guarantee minimum wait */
  if (wait < HAL_MAX_DELAY)
 8000ea2:	1c63      	adds	r3, r4, #1
 8000ea4:	d002      	beq.n	8000eac <HAL_Delay+0x14>
  {
    wait += (uint32_t)(uwTickFreq);
 8000ea6:	4b04      	ldr	r3, [pc, #16]	@ (8000eb8 <HAL_Delay+0x20>)
 8000ea8:	781b      	ldrb	r3, [r3, #0]
 8000eaa:	441c      	add	r4, r3
  }

  while ((HAL_GetTick() - tickstart) < wait)
 8000eac:	f7ff ffee 	bl	8000e8c <HAL_GetTick>
 8000eb0:	1b40      	subs	r0, r0, r5
 8000eb2:	42a0      	cmp	r0, r4
 8000eb4:	d3fa      	bcc.n	8000eac <HAL_Delay+0x14>
  {
  }
}
 8000eb6:	bd38      	pop	{r3, r4, r5, pc}
 8000eb8:	24000008 	.word	0x24000008

08000ebc <HAL_NVIC_SetPriorityGrouping>:
__STATIC_INLINE void __NVIC_SetPriorityGrouping(uint32_t PriorityGroup)
{
  uint32_t reg_value;
  uint32_t PriorityGroupTmp = (PriorityGroup & (uint32_t)0x07UL);             /* only values 0..7 are used          */

  reg_value  =  SCB->AIRCR;                                                   /* read old register configuration    */
 8000ebc:	4906      	ldr	r1, [pc, #24]	@ (8000ed8 <HAL_NVIC_SetPriorityGrouping+0x1c>)
  reg_value &= ~((uint32_t)(SCB_AIRCR_VECTKEY_Msk | SCB_AIRCR_PRIGROUP_Msk)); /* clear bits to change               */
 8000ebe:	f64f 0cff 	movw	ip, #63743	@ 0xf8ff
  reg_value  =  (reg_value                                   |
                ((uint32_t)0x5FAUL << SCB_AIRCR_VECTKEY_Pos) |
                (PriorityGroupTmp << SCB_AIRCR_PRIGROUP_Pos)  );              /* Insert write key and priority group */
 8000ec2:	0200      	lsls	r0, r0, #8
  reg_value  =  (reg_value                                   |
 8000ec4:	4b05      	ldr	r3, [pc, #20]	@ (8000edc <HAL_NVIC_SetPriorityGrouping+0x20>)
  reg_value  =  SCB->AIRCR;                                                   /* read old register configuration    */
 8000ec6:	68ca      	ldr	r2, [r1, #12]
                (PriorityGroupTmp << SCB_AIRCR_PRIGROUP_Pos)  );              /* Insert write key and priority group */
 8000ec8:	f400 60e0 	and.w	r0, r0, #1792	@ 0x700
  reg_value &= ~((uint32_t)(SCB_AIRCR_VECTKEY_Msk | SCB_AIRCR_PRIGROUP_Msk)); /* clear bits to change               */
 8000ecc:	ea02 020c 	and.w	r2, r2, ip
                ((uint32_t)0x5FAUL << SCB_AIRCR_VECTKEY_Pos) |
 8000ed0:	4310      	orrs	r0, r2
  reg_value  =  (reg_value                                   |
 8000ed2:	4303      	orrs	r3, r0
  SCB->AIRCR =  reg_value;
 8000ed4:	60cb      	str	r3, [r1, #12]
  /* Check the parameters */
  assert_param(IS_NVIC_PRIORITY_GROUP(PriorityGroup));

  /* Set the PRIGROUP[10:8] bits according to the PriorityGroup parameter value */
  NVIC_SetPriorityGrouping(PriorityGroup);
}
 8000ed6:	4770      	bx	lr
 8000ed8:	e000ed00 	.word	0xe000ed00
 8000edc:	05fa0000 	.word	0x05fa0000

08000ee0 <HAL_NVIC_SetPriority>:
  \details Reads the priority grouping field from the NVIC Interrupt Controller.
  \return                Priority grouping field (SCB->AIRCR [10:8] PRIGROUP field).
 */
__STATIC_INLINE uint32_t __NVIC_GetPriorityGrouping(void)
{
  return ((uint32_t)((SCB->AIRCR & SCB_AIRCR_PRIGROUP_Msk) >> SCB_AIRCR_PRIGROUP_Pos));
 8000ee0:	4b1a      	ldr	r3, [pc, #104]	@ (8000f4c <HAL_NVIC_SetPriority+0x6c>)
 8000ee2:	68db      	ldr	r3, [r3, #12]
 8000ee4:	f3c3 2302 	ubfx	r3, r3, #8, #3
  *         This parameter can be a value between 0 and 15
  *         A lower priority value indicates a higher priority.
  * @retval None
  */
void HAL_NVIC_SetPriority(IRQn_Type IRQn, uint32_t PreemptPriority, uint32_t SubPriority)
{
 8000ee8:	b500      	push	{lr}
{
  uint32_t PriorityGroupTmp = (PriorityGroup & (uint32_t)0x07UL);   /* only values 0..7 are used          */
  uint32_t PreemptPriorityBits;
  uint32_t SubPriorityBits;

  PreemptPriorityBits = ((7UL - PriorityGroupTmp) > (uint32_t)(__NVIC_PRIO_BITS)) ? (uint32_t)(__NVIC_PRIO_BITS) : (uint32_t)(7UL - PriorityGroupTmp);
 8000eea:	f1c3 0e07 	rsb	lr, r3, #7
  SubPriorityBits     = ((PriorityGroupTmp + (uint32_t)(__NVIC_PRIO_BITS)) < (uint32_t)7UL) ? (uint32_t)0UL : (uint32_t)((PriorityGroupTmp - 7UL) + (uint32_t)(__NVIC_PRIO_BITS));
 8000eee:	f103 0c04 	add.w	ip, r3, #4
  PreemptPriorityBits = ((7UL - PriorityGroupTmp) > (uint32_t)(__NVIC_PRIO_BITS)) ? (uint32_t)(__NVIC_PRIO_BITS) : (uint32_t)(7UL - PriorityGroupTmp);
 8000ef2:	f1be 0f04 	cmp.w	lr, #4
 8000ef6:	bf28      	it	cs
 8000ef8:	f04f 0e04 	movcs.w	lr, #4
  SubPriorityBits     = ((PriorityGroupTmp + (uint32_t)(__NVIC_PRIO_BITS)) < (uint32_t)7UL) ? (uint32_t)0UL : (uint32_t)((PriorityGroupTmp - 7UL) + (uint32_t)(__NVIC_PRIO_BITS));
 8000efc:	f1bc 0f06 	cmp.w	ip, #6
 8000f00:	d91a      	bls.n	8000f38 <HAL_NVIC_SetPriority+0x58>
 8000f02:	f1a3 0c03 	sub.w	ip, r3, #3

  return (
           ((PreemptPriority & (uint32_t)((1UL << (PreemptPriorityBits)) - 1UL)) << SubPriorityBits) |
           ((SubPriority     & (uint32_t)((1UL << (SubPriorityBits    )) - 1UL)))
 8000f06:	f04f 33ff 	mov.w	r3, #4294967295
 8000f0a:	fa03 f30c 	lsl.w	r3, r3, ip
 8000f0e:	ea22 0203 	bic.w	r2, r2, r3
           ((PreemptPriority & (uint32_t)((1UL << (PreemptPriorityBits)) - 1UL)) << SubPriorityBits) |
 8000f12:	f04f 33ff 	mov.w	r3, #4294967295
  if ((int32_t)(IRQn) >= 0)
 8000f16:	2800      	cmp	r0, #0
           ((PreemptPriority & (uint32_t)((1UL << (PreemptPriorityBits)) - 1UL)) << SubPriorityBits) |
 8000f18:	fa03 f30e 	lsl.w	r3, r3, lr
 8000f1c:	ea21 0303 	bic.w	r3, r1, r3
 8000f20:	fa03 f30c 	lsl.w	r3, r3, ip
 8000f24:	ea43 0302 	orr.w	r3, r3, r2
    NVIC->IP[((uint32_t)IRQn)]                = (uint8_t)((priority << (8U - __NVIC_PRIO_BITS)) & (uint32_t)0xFFUL);
 8000f28:	ea4f 1303 	mov.w	r3, r3, lsl #4
 8000f2c:	b2db      	uxtb	r3, r3
  if ((int32_t)(IRQn) >= 0)
 8000f2e:	db06      	blt.n	8000f3e <HAL_NVIC_SetPriority+0x5e>
    NVIC->IP[((uint32_t)IRQn)]                = (uint8_t)((priority << (8U - __NVIC_PRIO_BITS)) & (uint32_t)0xFFUL);
 8000f30:	4a07      	ldr	r2, [pc, #28]	@ (8000f50 <HAL_NVIC_SetPriority+0x70>)
 8000f32:	5413      	strb	r3, [r2, r0]
  assert_param(IS_NVIC_PREEMPTION_PRIORITY(PreemptPriority));

  prioritygroup = NVIC_GetPriorityGrouping();

  NVIC_SetPriority(IRQn, NVIC_EncodePriority(prioritygroup, PreemptPriority, SubPriority));
}
 8000f34:	f85d fb04 	ldr.w	pc, [sp], #4
 8000f38:	2200      	movs	r2, #0
  SubPriorityBits     = ((PriorityGroupTmp + (uint32_t)(__NVIC_PRIO_BITS)) < (uint32_t)7UL) ? (uint32_t)0UL : (uint32_t)((PriorityGroupTmp - 7UL) + (uint32_t)(__NVIC_PRIO_BITS));
 8000f3a:	4694      	mov	ip, r2
 8000f3c:	e7e9      	b.n	8000f12 <HAL_NVIC_SetPriority+0x32>
    SCB->SHPR[(((uint32_t)IRQn) & 0xFUL)-4UL] = (uint8_t)((priority << (8U - __NVIC_PRIO_BITS)) & (uint32_t)0xFFUL);
 8000f3e:	f000 000f 	and.w	r0, r0, #15
 8000f42:	4a04      	ldr	r2, [pc, #16]	@ (8000f54 <HAL_NVIC_SetPriority+0x74>)
 8000f44:	5413      	strb	r3, [r2, r0]
 8000f46:	f85d fb04 	ldr.w	pc, [sp], #4
 8000f4a:	bf00      	nop
 8000f4c:	e000ed00 	.word	0xe000ed00
 8000f50:	e000e400 	.word	0xe000e400
 8000f54:	e000ed14 	.word	0xe000ed14

08000f58 <HAL_NVIC_EnableIRQ>:
  if ((int32_t)(IRQn) >= 0)
 8000f58:	2800      	cmp	r0, #0
 8000f5a:	db07      	blt.n	8000f6c <HAL_NVIC_EnableIRQ+0x14>
    NVIC->ISER[(((uint32_t)IRQn) >> 5UL)] = (uint32_t)(1UL << (((uint32_t)IRQn) & 0x1FUL));
 8000f5c:	2301      	movs	r3, #1
 8000f5e:	f000 011f 	and.w	r1, r0, #31
 8000f62:	4a03      	ldr	r2, [pc, #12]	@ (8000f70 <HAL_NVIC_EnableIRQ+0x18>)
 8000f64:	0940      	lsrs	r0, r0, #5
 8000f66:	408b      	lsls	r3, r1
 8000f68:	f842 3020 	str.w	r3, [r2, r0, lsl #2]
  /* Check the parameters */
  assert_param(IS_NVIC_DEVICE_IRQ(IRQn));

  /* Enable interrupt */
  NVIC_EnableIRQ(IRQn);
}
 8000f6c:	4770      	bx	lr
 8000f6e:	bf00      	nop
 8000f70:	e000e100 	.word	0xe000e100

08000f74 <HAL_SYSTICK_Config>:
           function <b>SysTick_Config</b> is not included. In this case, the file <b><i>device</i>.h</b>
           must contain a vendor-specific implementation of this function.
 */
__STATIC_INLINE uint32_t SysTick_Config(uint32_t ticks)
{
  if ((ticks - 1UL) > SysTick_LOAD_RELOAD_Msk)
 8000f74:	1e43      	subs	r3, r0, #1
 8000f76:	f1b3 7f80 	cmp.w	r3, #16777216	@ 0x1000000
 8000f7a:	d301      	bcc.n	8000f80 <HAL_SYSTICK_Config+0xc>
  {
    return (1UL);                                                   /* Reload value impossible */
 8000f7c:	2001      	movs	r0, #1
  *                  - 1  Function failed.
  */
uint32_t HAL_SYSTICK_Config(uint32_t TicksNumb)
{
   return SysTick_Config(TicksNumb);
}
 8000f7e:	4770      	bx	lr
  }

  SysTick->LOAD  = (uint32_t)(ticks - 1UL);                         /* set reload register */
 8000f80:	f04f 22e0 	mov.w	r2, #3758153728	@ 0xe000e000
  NVIC_SetPriority (SysTick_IRQn, (1UL << __NVIC_PRIO_BITS) - 1UL); /* set Priority for Systick Interrupt */
  SysTick->VAL   = 0UL;                                             /* Load the SysTick Counter Value */
 8000f84:	2000      	movs	r0, #0
    SCB->SHPR[(((uint32_t)IRQn) & 0xFUL)-4UL] = (uint8_t)((priority << (8U - __NVIC_PRIO_BITS)) & (uint32_t)0xFFUL);
 8000f86:	4905      	ldr	r1, [pc, #20]	@ (8000f9c <HAL_SYSTICK_Config+0x28>)
 8000f88:	f04f 0cf0 	mov.w	ip, #240	@ 0xf0
  SysTick->LOAD  = (uint32_t)(ticks - 1UL);                         /* set reload register */
 8000f8c:	6153      	str	r3, [r2, #20]
  SysTick->CTRL  = SysTick_CTRL_CLKSOURCE_Msk |
 8000f8e:	2307      	movs	r3, #7
    SCB->SHPR[(((uint32_t)IRQn) & 0xFUL)-4UL] = (uint8_t)((priority << (8U - __NVIC_PRIO_BITS)) & (uint32_t)0xFFUL);
 8000f90:	f881 c023 	strb.w	ip, [r1, #35]	@ 0x23
  SysTick->VAL   = 0UL;                                             /* Load the SysTick Counter Value */
 8000f94:	6190      	str	r0, [r2, #24]
  SysTick->CTRL  = SysTick_CTRL_CLKSOURCE_Msk |
 8000f96:	6113      	str	r3, [r2, #16]
                   SysTick_CTRL_TICKINT_Msk   |
                   SysTick_CTRL_ENABLE_Msk;                         /* Enable SysTick IRQ and SysTick Timer */
  return (0UL);                                                     /* Function successful */
 8000f98:	4770      	bx	lr
 8000f9a:	bf00      	nop
 8000f9c:	e000ed00 	.word	0xe000ed00

08000fa0 <HAL_MPU_Disable>:
  \details Ensures the apparent order of the explicit memory operations before
           and after the instruction, without ensuring their completion.
 */
__STATIC_FORCEINLINE void __DMB(void)
{
  __ASM volatile ("dmb 0xF":::"memory");
 8000fa0:	f3bf 8f5f 	dmb	sy
{
  /* Make sure outstanding transfers are done */
  __DMB();

  /* Disable fault exceptions */
  SCB->SHCSR &= ~SCB_SHCSR_MEMFAULTENA_Msk;
 8000fa4:	4b04      	ldr	r3, [pc, #16]	@ (8000fb8 <HAL_MPU_Disable+0x18>)

  /* Disable the MPU and clear the control register*/
  MPU->CTRL = 0;
 8000fa6:	2100      	movs	r1, #0
  SCB->SHCSR &= ~SCB_SHCSR_MEMFAULTENA_Msk;
 8000fa8:	6a5a      	ldr	r2, [r3, #36]	@ 0x24
 8000faa:	f422 3280 	bic.w	r2, r2, #65536	@ 0x10000
 8000fae:	625a      	str	r2, [r3, #36]	@ 0x24
  MPU->CTRL = 0;
 8000fb0:	f8c3 1094 	str.w	r1, [r3, #148]	@ 0x94
}
 8000fb4:	4770      	bx	lr
 8000fb6:	bf00      	nop
 8000fb8:	e000ed00 	.word	0xe000ed00

08000fbc <HAL_MPU_Enable>:
  * @retval None
  */
void HAL_MPU_Enable(uint32_t MPU_Control)
{
  /* Enable the MPU */
  MPU->CTRL = MPU_Control | MPU_CTRL_ENABLE_Msk;
 8000fbc:	4b06      	ldr	r3, [pc, #24]	@ (8000fd8 <HAL_MPU_Enable+0x1c>)
 8000fbe:	f040 0001 	orr.w	r0, r0, #1
 8000fc2:	f8c3 0094 	str.w	r0, [r3, #148]	@ 0x94

  /* Enable fault exceptions */
  SCB->SHCSR |= SCB_SHCSR_MEMFAULTENA_Msk;
 8000fc6:	6a5a      	ldr	r2, [r3, #36]	@ 0x24
 8000fc8:	f442 3280 	orr.w	r2, r2, #65536	@ 0x10000
 8000fcc:	625a      	str	r2, [r3, #36]	@ 0x24
  __ASM volatile ("dsb 0xF":::"memory");
 8000fce:	f3bf 8f4f 	dsb	sy
  __ASM volatile ("isb 0xF":::"memory");
 8000fd2:	f3bf 8f6f 	isb	sy

  /* Ensure MPU setting take effects */
  __DSB();
  __ISB();
}
 8000fd6:	4770      	bx	lr
 8000fd8:	e000ed00 	.word	0xe000ed00

08000fdc <HAL_MPU_ConfigRegion>:
  assert_param(IS_MPU_ACCESS_BUFFERABLE(MPU_Init->IsBufferable));
  assert_param(IS_MPU_SUB_REGION_DISABLE(MPU_Init->SubRegionDisable));
  assert_param(IS_MPU_REGION_SIZE(MPU_Init->Size));

  /* Set the Region number */
  MPU->RNR = MPU_Init->Number;
 8000fdc:	4a16      	ldr	r2, [pc, #88]	@ (8001038 <HAL_MPU_ConfigRegion+0x5c>)
 8000fde:	7843      	ldrb	r3, [r0, #1]
 8000fe0:	f8c2 3098 	str.w	r3, [r2, #152]	@ 0x98

  /* Disable the Region */
  CLEAR_BIT(MPU->RASR, MPU_RASR_ENABLE_Msk);
 8000fe4:	f8d2 30a0 	ldr.w	r3, [r2, #160]	@ 0xa0
 8000fe8:	f023 0301 	bic.w	r3, r3, #1
 8000fec:	f8c2 30a0 	str.w	r3, [r2, #160]	@ 0xa0

  /* Apply configuration */
  MPU->RBAR = MPU_Init->BaseAddress;
 8000ff0:	6843      	ldr	r3, [r0, #4]
 8000ff2:	f8c2 309c 	str.w	r3, [r2, #156]	@ 0x9c
  MPU->RASR = ((uint32_t)MPU_Init->DisableExec             << MPU_RASR_XN_Pos)   |
              ((uint32_t)MPU_Init->AccessPermission        << MPU_RASR_AP_Pos)   |
 8000ff6:	7ac3      	ldrb	r3, [r0, #11]
  MPU->RASR = ((uint32_t)MPU_Init->DisableExec             << MPU_RASR_XN_Pos)   |
 8000ff8:	f890 c00c 	ldrb.w	ip, [r0, #12]
              ((uint32_t)MPU_Init->AccessPermission        << MPU_RASR_AP_Pos)   |
 8000ffc:	061b      	lsls	r3, r3, #24
              ((uint32_t)MPU_Init->IsShareable             << MPU_RASR_S_Pos)    |
              ((uint32_t)MPU_Init->IsCacheable             << MPU_RASR_C_Pos)    |
              ((uint32_t)MPU_Init->IsBufferable            << MPU_RASR_B_Pos)    |
              ((uint32_t)MPU_Init->SubRegionDisable        << MPU_RASR_SRD_Pos)  |
              ((uint32_t)MPU_Init->Size                    << MPU_RASR_SIZE_Pos) |
              ((uint32_t)MPU_Init->Enable                  << MPU_RASR_ENABLE_Pos);
 8000ffe:	7801      	ldrb	r1, [r0, #0]
  MPU->RASR = ((uint32_t)MPU_Init->DisableExec             << MPU_RASR_XN_Pos)   |
 8001000:	ea43 730c 	orr.w	r3, r3, ip, lsl #28
              ((uint32_t)MPU_Init->TypeExtField            << MPU_RASR_TEX_Pos)  |
 8001004:	f890 c00a 	ldrb.w	ip, [r0, #10]
              ((uint32_t)MPU_Init->Size                    << MPU_RASR_SIZE_Pos) |
 8001008:	430b      	orrs	r3, r1
              ((uint32_t)MPU_Init->IsShareable             << MPU_RASR_S_Pos)    |
 800100a:	7b41      	ldrb	r1, [r0, #13]
              ((uint32_t)MPU_Init->Size                    << MPU_RASR_SIZE_Pos) |
 800100c:	ea43 43cc 	orr.w	r3, r3, ip, lsl #19
              ((uint32_t)MPU_Init->IsCacheable             << MPU_RASR_C_Pos)    |
 8001010:	f890 c00e 	ldrb.w	ip, [r0, #14]
              ((uint32_t)MPU_Init->Size                    << MPU_RASR_SIZE_Pos) |
 8001014:	ea43 4381 	orr.w	r3, r3, r1, lsl #18
              ((uint32_t)MPU_Init->IsBufferable            << MPU_RASR_B_Pos)    |
 8001018:	7bc1      	ldrb	r1, [r0, #15]
              ((uint32_t)MPU_Init->Size                    << MPU_RASR_SIZE_Pos) |
 800101a:	ea43 434c 	orr.w	r3, r3, ip, lsl #17
              ((uint32_t)MPU_Init->SubRegionDisable        << MPU_RASR_SRD_Pos)  |
 800101e:	f890 c009 	ldrb.w	ip, [r0, #9]
              ((uint32_t)MPU_Init->Size                    << MPU_RASR_SIZE_Pos) |
 8001022:	ea43 4301 	orr.w	r3, r3, r1, lsl #16
 8001026:	7a01      	ldrb	r1, [r0, #8]
 8001028:	ea43 230c 	orr.w	r3, r3, ip, lsl #8
 800102c:	ea43 0341 	orr.w	r3, r3, r1, lsl #1
  MPU->RASR = ((uint32_t)MPU_Init->DisableExec             << MPU_RASR_XN_Pos)   |
 8001030:	f8c2 30a0 	str.w	r3, [r2, #160]	@ 0xa0
}
 8001034:	4770      	bx	lr
 8001036:	bf00      	nop
 8001038:	e000ed00 	.word	0xe000ed00

0800103c <HAL_GPIO_Init>:
  * @param  GPIO_Init: pointer to a GPIO_InitTypeDef structure that contains
  *         the configuration information for the specified GPIO peripheral.
  * @retval None
  */
void HAL_GPIO_Init(GPIO_TypeDef  *GPIOx, const GPIO_InitTypeDef *GPIO_Init)
{
 800103c:	e92d 4ff0 	stmdb	sp!, {r4, r5, r6, r7, r8, r9, sl, fp, lr}
  assert_param(IS_GPIO_ALL_INSTANCE(GPIOx));
  assert_param(IS_GPIO_PIN(GPIO_Init->Pin));
  assert_param(IS_GPIO_MODE(GPIO_Init->Mode));

  /* Configure the port pins */
  while (((GPIO_Init->Pin) >> position) != 0x00U)
 8001040:	680c      	ldr	r4, [r1, #0]
{
 8001042:	b085      	sub	sp, #20
  while (((GPIO_Init->Pin) >> position) != 0x00U)
 8001044:	2c00      	cmp	r4, #0
 8001046:	f000 80a0 	beq.w	800118a <HAL_GPIO_Init+0x14e>
  uint32_t position = 0x00U;
 800104a:	2300      	movs	r3, #0
  {
    /* Get current io position */
    iocurrent = (GPIO_Init->Pin) & (1UL << position);
 800104c:	f04f 0b01 	mov.w	fp, #1
        temp &= ~(0x0FUL << (4U * (position & 0x03U)));
        temp |= (GPIO_GET_INDEX(GPIOx) << (4U * (position & 0x03U)));
        SYSCFG->EXTICR[position >> 2U] = temp;

        /* Clear Rising Falling edge configuration */
        temp = EXTI->RTSR1;
 8001050:	f04f 4eb0 	mov.w	lr, #1476395008	@ 0x58000000
        temp |= (GPIO_GET_INDEX(GPIOx) << (4U * (position & 0x03U)));
 8001054:	9100      	str	r1, [sp, #0]
    iocurrent = (GPIO_Init->Pin) & (1UL << position);
 8001056:	fa0b fc03 	lsl.w	ip, fp, r3
    if (iocurrent != 0x00U)
 800105a:	ea1c 0a04 	ands.w	sl, ip, r4
 800105e:	f000 808f 	beq.w	8001180 <HAL_GPIO_Init+0x144>
      if (((GPIO_Init->Mode & GPIO_MODE) == MODE_OUTPUT) || ((GPIO_Init->Mode & GPIO_MODE) == MODE_AF))
 8001062:	9900      	ldr	r1, [sp, #0]
 8001064:	005f      	lsls	r7, r3, #1
 8001066:	684d      	ldr	r5, [r1, #4]
        temp &= ~(GPIO_OSPEEDR_OSPEED0 << (position * 2U));
 8001068:	2103      	movs	r1, #3
      if (((GPIO_Init->Mode & GPIO_MODE) == MODE_OUTPUT) || ((GPIO_Init->Mode & GPIO_MODE) == MODE_AF))
 800106a:	f005 0203 	and.w	r2, r5, #3
        temp &= ~(GPIO_OSPEEDR_OSPEED0 << (position * 2U));
 800106e:	fa01 f607 	lsl.w	r6, r1, r7
      if (((GPIO_Init->Mode & GPIO_MODE) == MODE_OUTPUT) || ((GPIO_Init->Mode & GPIO_MODE) == MODE_AF))
 8001072:	f102 38ff 	add.w	r8, r2, #4294967295
        temp &= ~(GPIO_OSPEEDR_OSPEED0 << (position * 2U));
 8001076:	43f6      	mvns	r6, r6
      if (((GPIO_Init->Mode & GPIO_MODE) == MODE_OUTPUT) || ((GPIO_Init->Mode & GPIO_MODE) == MODE_AF))
 8001078:	f1b8 0f01 	cmp.w	r8, #1
 800107c:	f240 8088 	bls.w	8001190 <HAL_GPIO_Init+0x154>
      if ((GPIO_Init->Mode & GPIO_MODE) != MODE_ANALOG)
 8001080:	2a03      	cmp	r2, #3
 8001082:	f040 80c6 	bne.w	8001212 <HAL_GPIO_Init+0x1d6>
      temp |= ((GPIO_Init->Mode & GPIO_MODE) << (position * 2U));
 8001086:	40ba      	lsls	r2, r7
      temp = GPIOx->MODER;
 8001088:	6807      	ldr	r7, [r0, #0]
      if ((GPIO_Init->Mode & EXTI_MODE) != 0x00U)
 800108a:	f415 3f40 	tst.w	r5, #196608	@ 0x30000
      temp &= ~(GPIO_MODER_MODE0 << (position * 2U));
 800108e:	ea06 0607 	and.w	r6, r6, r7
      temp |= ((GPIO_Init->Mode & GPIO_MODE) << (position * 2U));
 8001092:	ea42 0206 	orr.w	r2, r2, r6
      GPIOx->MODER = temp;
 8001096:	6002      	str	r2, [r0, #0]
      if ((GPIO_Init->Mode & EXTI_MODE) != 0x00U)
 8001098:	d072      	beq.n	8001180 <HAL_GPIO_Init+0x144>
        __HAL_RCC_SYSCFG_CLK_ENABLE();
 800109a:	4e79      	ldr	r6, [pc, #484]	@ (8001280 <HAL_GPIO_Init+0x244>)
        temp &= ~(0x0FUL << (4U * (position & 0x03U)));
 800109c:	f003 0703 	and.w	r7, r3, #3
 80010a0:	210f      	movs	r1, #15
        __HAL_RCC_SYSCFG_CLK_ENABLE();
 80010a2:	f8d6 20f4 	ldr.w	r2, [r6, #244]	@ 0xf4
        temp &= ~(0x0FUL << (4U * (position & 0x03U)));
 80010a6:	00bf      	lsls	r7, r7, #2
        __HAL_RCC_SYSCFG_CLK_ENABLE();
 80010a8:	f042 0202 	orr.w	r2, r2, #2
        temp &= ~(0x0FUL << (4U * (position & 0x03U)));
 80010ac:	fa01 fc07 	lsl.w	ip, r1, r7
        temp |= (GPIO_GET_INDEX(GPIOx) << (4U * (position & 0x03U)));
 80010b0:	4974      	ldr	r1, [pc, #464]	@ (8001284 <HAL_GPIO_Init+0x248>)
        __HAL_RCC_SYSCFG_CLK_ENABLE();
 80010b2:	f8c6 20f4 	str.w	r2, [r6, #244]	@ 0xf4
 80010b6:	f8d6 20f4 	ldr.w	r2, [r6, #244]	@ 0xf4
 80010ba:	f023 0603 	bic.w	r6, r3, #3
        temp |= (GPIO_GET_INDEX(GPIOx) << (4U * (position & 0x03U)));
 80010be:	4288      	cmp	r0, r1
 80010c0:	f106 46b0 	add.w	r6, r6, #1476395008	@ 0x58000000
        __HAL_RCC_SYSCFG_CLK_ENABLE();
 80010c4:	f002 0202 	and.w	r2, r2, #2
 80010c8:	f506 6680 	add.w	r6, r6, #1024	@ 0x400
 80010cc:	9203      	str	r2, [sp, #12]
 80010ce:	9a03      	ldr	r2, [sp, #12]
        temp = SYSCFG->EXTICR[position >> 2U];
 80010d0:	68b2      	ldr	r2, [r6, #8]
        temp &= ~(0x0FUL << (4U * (position & 0x03U)));
 80010d2:	ea22 020c 	bic.w	r2, r2, ip
        temp |= (GPIO_GET_INDEX(GPIOx) << (4U * (position & 0x03U)));
 80010d6:	d02c      	beq.n	8001132 <HAL_GPIO_Init+0xf6>
 80010d8:	f501 6180 	add.w	r1, r1, #1024	@ 0x400
 80010dc:	4288      	cmp	r0, r1
 80010de:	f000 80ab 	beq.w	8001238 <HAL_GPIO_Init+0x1fc>
 80010e2:	4969      	ldr	r1, [pc, #420]	@ (8001288 <HAL_GPIO_Init+0x24c>)
 80010e4:	4288      	cmp	r0, r1
 80010e6:	f000 80ad 	beq.w	8001244 <HAL_GPIO_Init+0x208>
 80010ea:	f8df c1a0 	ldr.w	ip, [pc, #416]	@ 800128c <HAL_GPIO_Init+0x250>
 80010ee:	4560      	cmp	r0, ip
 80010f0:	f000 809c 	beq.w	800122c <HAL_GPIO_Init+0x1f0>
 80010f4:	f8df c198 	ldr.w	ip, [pc, #408]	@ 8001290 <HAL_GPIO_Init+0x254>
 80010f8:	4560      	cmp	r0, ip
 80010fa:	f000 80af 	beq.w	800125c <HAL_GPIO_Init+0x220>
 80010fe:	f8df c194 	ldr.w	ip, [pc, #404]	@ 8001294 <HAL_GPIO_Init+0x258>
 8001102:	4560      	cmp	r0, ip
 8001104:	f000 80b0 	beq.w	8001268 <HAL_GPIO_Init+0x22c>
 8001108:	f8df c18c 	ldr.w	ip, [pc, #396]	@ 8001298 <HAL_GPIO_Init+0x25c>
 800110c:	4560      	cmp	r0, ip
 800110e:	f000 809f 	beq.w	8001250 <HAL_GPIO_Init+0x214>
 8001112:	f8df c188 	ldr.w	ip, [pc, #392]	@ 800129c <HAL_GPIO_Init+0x260>
 8001116:	4560      	cmp	r0, ip
 8001118:	f000 80ac 	beq.w	8001274 <HAL_GPIO_Init+0x238>
 800111c:	f8df c180 	ldr.w	ip, [pc, #384]	@ 80012a0 <HAL_GPIO_Init+0x264>
 8001120:	4560      	cmp	r0, ip
 8001122:	bf0c      	ite	eq
 8001124:	f04f 0c09 	moveq.w	ip, #9
 8001128:	f04f 0c0a 	movne.w	ip, #10
 800112c:	fa0c f707 	lsl.w	r7, ip, r7
 8001130:	433a      	orrs	r2, r7
        SYSCFG->EXTICR[position >> 2U] = temp;
 8001132:	60b2      	str	r2, [r6, #8]
        temp &= ~(iocurrent);
        if ((GPIO_Init->Mode & TRIGGER_RISING) != 0x00U)
 8001134:	02ef      	lsls	r7, r5, #11
        temp = EXTI->RTSR1;
 8001136:	f8de 2000 	ldr.w	r2, [lr]
        temp &= ~(iocurrent);
 800113a:	ea6f 060a 	mvn.w	r6, sl
        {
          temp |= iocurrent;
 800113e:	bf4c      	ite	mi
 8001140:	ea4a 0202 	orrmi.w	r2, sl, r2
        temp &= ~(iocurrent);
 8001144:	4032      	andpl	r2, r6
        }
        EXTI->RTSR1 = temp;

        temp = EXTI->FTSR1;
        temp &= ~(iocurrent);
        if ((GPIO_Init->Mode & TRIGGER_FALLING) != 0x00U)
 8001146:	02a9      	lsls	r1, r5, #10
        EXTI->RTSR1 = temp;
 8001148:	f8ce 2000 	str.w	r2, [lr]
        temp = EXTI->FTSR1;
 800114c:	f8de 2004 	ldr.w	r2, [lr, #4]
        temp &= ~(iocurrent);
 8001150:	bf54      	ite	pl
 8001152:	4032      	andpl	r2, r6
        {
          temp |= iocurrent;
 8001154:	ea4a 0202 	orrmi.w	r2, sl, r2
        }
        EXTI->FTSR1 = temp;

        temp = EXTI_CurrentCPU->EMR1;
        temp &= ~(iocurrent);
        if ((GPIO_Init->Mode & EXTI_EVT) != 0x00U)
 8001158:	03af      	lsls	r7, r5, #14
        EXTI->FTSR1 = temp;
 800115a:	f8ce 2004 	str.w	r2, [lr, #4]
        temp = EXTI_CurrentCPU->EMR1;
 800115e:	f8de 2084 	ldr.w	r2, [lr, #132]	@ 0x84
        temp &= ~(iocurrent);
 8001162:	bf54      	ite	pl
 8001164:	4032      	andpl	r2, r6
        {
          temp |= iocurrent;
 8001166:	ea4a 0202 	orrmi.w	r2, sl, r2
        EXTI_CurrentCPU->EMR1 = temp;

        /* Clear EXTI line configuration */
        temp = EXTI_CurrentCPU->IMR1;
        temp &= ~(iocurrent);
        if ((GPIO_Init->Mode & EXTI_IT) != 0x00U)
 800116a:	03e9      	lsls	r1, r5, #15
        EXTI_CurrentCPU->EMR1 = temp;
 800116c:	f8ce 2084 	str.w	r2, [lr, #132]	@ 0x84
        temp = EXTI_CurrentCPU->IMR1;
 8001170:	f8de 2080 	ldr.w	r2, [lr, #128]	@ 0x80
        temp &= ~(iocurrent);
 8001174:	bf54      	ite	pl
 8001176:	4032      	andpl	r2, r6
        {
          temp |= iocurrent;
 8001178:	ea4a 0202 	orrmi.w	r2, sl, r2
        }
        EXTI_CurrentCPU->IMR1 = temp;
 800117c:	f8ce 2080 	str.w	r2, [lr, #128]	@ 0x80
      }
    }

    position++;
 8001180:	3301      	adds	r3, #1
  while (((GPIO_Init->Pin) >> position) != 0x00U)
 8001182:	fa34 f203 	lsrs.w	r2, r4, r3
 8001186:	f47f af66 	bne.w	8001056 <HAL_GPIO_Init+0x1a>
  }
}
 800118a:	b005      	add	sp, #20
 800118c:	e8bd 8ff0 	ldmia.w	sp!, {r4, r5, r6, r7, r8, r9, sl, fp, pc}
        temp |= (GPIO_Init->Speed << (position * 2U));
 8001190:	9900      	ldr	r1, [sp, #0]
      if ((GPIO_Init->Mode & GPIO_MODE) == MODE_AF)
 8001192:	2a02      	cmp	r2, #2
        temp = GPIOx->OSPEEDR;
 8001194:	f8d0 9008 	ldr.w	r9, [r0, #8]
        temp |= (GPIO_Init->Speed << (position * 2U));
 8001198:	68c9      	ldr	r1, [r1, #12]
        temp &= ~(GPIO_OSPEEDR_OSPEED0 << (position * 2U));
 800119a:	ea09 0906 	and.w	r9, r9, r6
        temp |= (GPIO_Init->Speed << (position * 2U));
 800119e:	fa01 f807 	lsl.w	r8, r1, r7
      temp |= ((GPIO_Init->Pull) << (position * 2U));
 80011a2:	9900      	ldr	r1, [sp, #0]
        temp |= (GPIO_Init->Speed << (position * 2U));
 80011a4:	ea48 0809 	orr.w	r8, r8, r9
      temp |= ((GPIO_Init->Pull) << (position * 2U));
 80011a8:	6889      	ldr	r1, [r1, #8]
        GPIOx->OSPEEDR = temp;
 80011aa:	f8c0 8008 	str.w	r8, [r0, #8]
        temp |= (((GPIO_Init->Mode & OUTPUT_TYPE) >> OUTPUT_TYPE_Pos) << position);
 80011ae:	f3c5 1800 	ubfx	r8, r5, #4, #1
        temp = GPIOx->OTYPER;
 80011b2:	f8d0 9004 	ldr.w	r9, [r0, #4]
        temp |= (((GPIO_Init->Mode & OUTPUT_TYPE) >> OUTPUT_TYPE_Pos) << position);
 80011b6:	fa08 f803 	lsl.w	r8, r8, r3
        temp &= ~(GPIO_OTYPER_OT0 << position) ;
 80011ba:	ea29 0c0c 	bic.w	ip, r9, ip
        temp |= (((GPIO_Init->Mode & OUTPUT_TYPE) >> OUTPUT_TYPE_Pos) << position);
 80011be:	ea48 0c0c 	orr.w	ip, r8, ip
        GPIOx->OTYPER = temp;
 80011c2:	f8c0 c004 	str.w	ip, [r0, #4]
      temp |= ((GPIO_Init->Pull) << (position * 2U));
 80011c6:	fa01 fc07 	lsl.w	ip, r1, r7
      temp = GPIOx->PUPDR;
 80011ca:	f8d0 800c 	ldr.w	r8, [r0, #12]
      temp &= ~(GPIO_PUPDR_PUPD0 << (position * 2U));
 80011ce:	ea08 0806 	and.w	r8, r8, r6
      temp |= ((GPIO_Init->Pull) << (position * 2U));
 80011d2:	ea4c 0c08 	orr.w	ip, ip, r8
      GPIOx->PUPDR = temp;
 80011d6:	f8c0 c00c 	str.w	ip, [r0, #12]
      if ((GPIO_Init->Mode & GPIO_MODE) == MODE_AF)
 80011da:	f47f af54 	bne.w	8001086 <HAL_GPIO_Init+0x4a>
        temp &= ~(0xFU << ((position & 0x07U) * 4U));
 80011de:	f003 0c07 	and.w	ip, r3, #7
        temp |= ((GPIO_Init->Alternate) << ((position & 0x07U) * 4U));
 80011e2:	9900      	ldr	r1, [sp, #0]
        temp = GPIOx->AFR[position >> 3U];
 80011e4:	ea4f 08d3 	mov.w	r8, r3, lsr #3
        temp &= ~(0xFU << ((position & 0x07U) * 4U));
 80011e8:	ea4f 0c8c 	mov.w	ip, ip, lsl #2
        temp |= ((GPIO_Init->Alternate) << ((position & 0x07U) * 4U));
 80011ec:	6909      	ldr	r1, [r1, #16]
 80011ee:	eb00 0888 	add.w	r8, r0, r8, lsl #2
 80011f2:	fa01 f10c 	lsl.w	r1, r1, ip
        temp = GPIOx->AFR[position >> 3U];
 80011f6:	f8d8 9020 	ldr.w	r9, [r8, #32]
        temp |= ((GPIO_Init->Alternate) << ((position & 0x07U) * 4U));
 80011fa:	9101      	str	r1, [sp, #4]
        temp &= ~(0xFU << ((position & 0x07U) * 4U));
 80011fc:	210f      	movs	r1, #15
 80011fe:	fa01 fc0c 	lsl.w	ip, r1, ip
        temp |= ((GPIO_Init->Alternate) << ((position & 0x07U) * 4U));
 8001202:	9901      	ldr	r1, [sp, #4]
        temp &= ~(0xFU << ((position & 0x07U) * 4U));
 8001204:	ea29 090c 	bic.w	r9, r9, ip
        temp |= ((GPIO_Init->Alternate) << ((position & 0x07U) * 4U));
 8001208:	ea41 0c09 	orr.w	ip, r1, r9
        GPIOx->AFR[position >> 3U] = temp;
 800120c:	f8c8 c020 	str.w	ip, [r8, #32]
 8001210:	e739      	b.n	8001086 <HAL_GPIO_Init+0x4a>
      temp |= ((GPIO_Init->Pull) << (position * 2U));
 8001212:	9900      	ldr	r1, [sp, #0]
      temp = GPIOx->PUPDR;
 8001214:	f8d0 800c 	ldr.w	r8, [r0, #12]
      temp |= ((GPIO_Init->Pull) << (position * 2U));
 8001218:	6889      	ldr	r1, [r1, #8]
      temp &= ~(GPIO_PUPDR_PUPD0 << (position * 2U));
 800121a:	ea08 0806 	and.w	r8, r8, r6
      temp |= ((GPIO_Init->Pull) << (position * 2U));
 800121e:	fa01 fc07 	lsl.w	ip, r1, r7
 8001222:	ea4c 0c08 	orr.w	ip, ip, r8
      GPIOx->PUPDR = temp;
 8001226:	f8c0 c00c 	str.w	ip, [r0, #12]
      if ((GPIO_Init->Mode & GPIO_MODE) == MODE_AF)
 800122a:	e72c      	b.n	8001086 <HAL_GPIO_Init+0x4a>
        temp |= (GPIO_GET_INDEX(GPIOx) << (4U * (position & 0x03U)));
 800122c:	f04f 0c03 	mov.w	ip, #3
 8001230:	fa0c f707 	lsl.w	r7, ip, r7
 8001234:	433a      	orrs	r2, r7
 8001236:	e77c      	b.n	8001132 <HAL_GPIO_Init+0xf6>
 8001238:	f04f 0c01 	mov.w	ip, #1
 800123c:	fa0c f707 	lsl.w	r7, ip, r7
 8001240:	433a      	orrs	r2, r7
 8001242:	e776      	b.n	8001132 <HAL_GPIO_Init+0xf6>
 8001244:	f04f 0c02 	mov.w	ip, #2
 8001248:	fa0c f707 	lsl.w	r7, ip, r7
 800124c:	433a      	orrs	r2, r7
 800124e:	e770      	b.n	8001132 <HAL_GPIO_Init+0xf6>
 8001250:	f04f 0c06 	mov.w	ip, #6
 8001254:	fa0c f707 	lsl.w	r7, ip, r7
 8001258:	433a      	orrs	r2, r7
 800125a:	e76a      	b.n	8001132 <HAL_GPIO_Init+0xf6>
 800125c:	f04f 0c04 	mov.w	ip, #4
 8001260:	fa0c f707 	lsl.w	r7, ip, r7
 8001264:	433a      	orrs	r2, r7
 8001266:	e764      	b.n	8001132 <HAL_GPIO_Init+0xf6>
 8001268:	f04f 0c05 	mov.w	ip, #5
 800126c:	fa0c f707 	lsl.w	r7, ip, r7
 8001270:	433a      	orrs	r2, r7
 8001272:	e75e      	b.n	8001132 <HAL_GPIO_Init+0xf6>
 8001274:	f04f 0c07 	mov.w	ip, #7
 8001278:	fa0c f707 	lsl.w	r7, ip, r7
 800127c:	433a      	orrs	r2, r7
 800127e:	e758      	b.n	8001132 <HAL_GPIO_Init+0xf6>
 8001280:	58024400 	.word	0x58024400
 8001284:	58020000 	.word	0x58020000
 8001288:	58020800 	.word	0x58020800
 800128c:	58020c00 	.word	0x58020c00
 8001290:	58021000 	.word	0x58021000
 8001294:	58021400 	.word	0x58021400
 8001298:	58021800 	.word	0x58021800
 800129c:	58021c00 	.word	0x58021c00
 80012a0:	58022400 	.word	0x58022400

080012a4 <HAL_PCD_Init>:
  *         parameters in the PCD_InitTypeDef and initialize the associated handle.
  * @param  hpcd PCD handle
  * @retval HAL status
  */
HAL_StatusTypeDef HAL_PCD_Init(PCD_HandleTypeDef *hpcd)
{
 80012a4:	b570      	push	{r4, r5, r6, lr}
 80012a6:	b082      	sub	sp, #8
  uint8_t i;

  /* Check the PCD handle allocation */
  if (hpcd == NULL)
 80012a8:	b1d0      	cbz	r0, 80012e0 <HAL_PCD_Init+0x3c>
  }

  /* Check the parameters */
  assert_param(IS_PCD_ALL_INSTANCE(hpcd->Instance));

  if (hpcd->State == HAL_PCD_STATE_RESET)
 80012aa:	f890 3495 	ldrb.w	r3, [r0, #1173]	@ 0x495
 80012ae:	4604      	mov	r4, r0
 80012b0:	f003 02ff 	and.w	r2, r3, #255	@ 0xff
 80012b4:	2b00      	cmp	r3, #0
 80012b6:	f000 81eb 	beq.w	8001690 <HAL_PCD_Init+0x3ec>
    /* Init the low level hardware : GPIO, CLOCK, NVIC... */
    HAL_PCD_MspInit(hpcd);
#endif /* (USE_HAL_PCD_REGISTER_CALLBACKS) */
  }

  hpcd->State = HAL_PCD_STATE_BUSY;
 80012ba:	2603      	movs	r6, #3

  /* Disable the Interrupts */
  __HAL_PCD_DISABLE(hpcd);
 80012bc:	6820      	ldr	r0, [r4, #0]

  /*Init the Core (common init.) */
  if (USB_CoreInit(hpcd->Instance, hpcd->Init) != HAL_OK)
 80012be:	1d25      	adds	r5, r4, #4
  hpcd->State = HAL_PCD_STATE_BUSY;
 80012c0:	f884 6495 	strb.w	r6, [r4, #1173]	@ 0x495
  __HAL_PCD_DISABLE(hpcd);
 80012c4:	f003 fe4c 	bl	8004f60 <USB_DisableGlobalInt>
  if (USB_CoreInit(hpcd->Instance, hpcd->Init) != HAL_OK)
 80012c8:	7c23      	ldrb	r3, [r4, #16]
 80012ca:	f88d 3000 	strb.w	r3, [sp]
 80012ce:	6820      	ldr	r0, [r4, #0]
 80012d0:	e895 000e 	ldmia.w	r5, {r1, r2, r3}
 80012d4:	f003 fd34 	bl	8004d40 <USB_CoreInit>
 80012d8:	b130      	cbz	r0, 80012e8 <HAL_PCD_Init+0x44>
  {
    hpcd->State = HAL_PCD_STATE_ERROR;
 80012da:	2302      	movs	r3, #2
 80012dc:	f884 3495 	strb.w	r3, [r4, #1173]	@ 0x495
    return HAL_ERROR;
 80012e0:	2501      	movs	r5, #1
  }

  (void)USB_DevDisconnect(hpcd->Instance);

  return HAL_OK;
}
 80012e2:	4628      	mov	r0, r5
 80012e4:	b002      	add	sp, #8
 80012e6:	bd70      	pop	{r4, r5, r6, pc}
  if (USB_SetCurrentMode(hpcd->Instance, USB_DEVICE_MODE) != HAL_OK)
 80012e8:	4601      	mov	r1, r0
 80012ea:	6820      	ldr	r0, [r4, #0]
 80012ec:	f003 fe40 	bl	8004f70 <USB_SetCurrentMode>
 80012f0:	2800      	cmp	r0, #0
 80012f2:	d1f2      	bne.n	80012da <HAL_PCD_Init+0x36>
  for (i = 0U; i < hpcd->Init.dev_endpoints; i++)
 80012f4:	7922      	ldrb	r2, [r4, #4]
 80012f6:	2a00      	cmp	r2, #0
 80012f8:	f000 81b1 	beq.w	800165e <HAL_PCD_Init+0x3ba>
    hpcd->IN_ep[i].num = i;
 80012fc:	f44f 7380 	mov.w	r3, #256	@ 0x100
  for (i = 0U; i < hpcd->Init.dev_endpoints; i++)
 8001300:	2a01      	cmp	r2, #1
    hpcd->IN_ep[i].tx_fifo_num = i;
 8001302:	85e0      	strh	r0, [r4, #46]	@ 0x2e
    hpcd->IN_ep[i].type = EP_TYPE_CTRL;
 8001304:	7620      	strb	r0, [r4, #24]
    hpcd->IN_ep[i].xfer_len = 0U;
 8001306:	6260      	str	r0, [r4, #36]	@ 0x24
    hpcd->IN_ep[i].num = i;
 8001308:	82a3      	strh	r3, [r4, #20]
    hpcd->IN_ep[i].xfer_buff = 0U;
 800130a:	e9c4 0007 	strd	r0, r0, [r4, #28]
  for (i = 0U; i < hpcd->Init.dev_endpoints; i++)
 800130e:	f000 81c8 	beq.w	80016a2 <HAL_PCD_Init+0x3fe>
    hpcd->IN_ep[i].num = i;
 8001312:	f240 1301 	movw	r3, #257	@ 0x101
  for (i = 0U; i < hpcd->Init.dev_endpoints; i++)
 8001316:	2a02      	cmp	r2, #2
    hpcd->IN_ep[i].type = EP_TYPE_CTRL;
 8001318:	f884 003c 	strb.w	r0, [r4, #60]	@ 0x3c
    hpcd->IN_ep[i].num = i;
 800131c:	8723      	strh	r3, [r4, #56]	@ 0x38
    hpcd->IN_ep[i].tx_fifo_num = i;
 800131e:	f04f 0301 	mov.w	r3, #1
    hpcd->IN_ep[i].xfer_len = 0U;
 8001322:	64a0      	str	r0, [r4, #72]	@ 0x48
    hpcd->IN_ep[i].tx_fifo_num = i;
 8001324:	f8a4 3052 	strh.w	r3, [r4, #82]	@ 0x52
    hpcd->IN_ep[i].xfer_buff = 0U;
 8001328:	e9c4 0010 	strd	r0, r0, [r4, #64]	@ 0x40
  for (i = 0U; i < hpcd->Init.dev_endpoints; i++)
 800132c:	f000 80e0 	beq.w	80014f0 <HAL_PCD_Init+0x24c>
    hpcd->IN_ep[i].num = i;
 8001330:	f44f 7381 	mov.w	r3, #258	@ 0x102
  for (i = 0U; i < hpcd->Init.dev_endpoints; i++)
 8001334:	2a03      	cmp	r2, #3
    hpcd->IN_ep[i].type = EP_TYPE_CTRL;
 8001336:	f884 0060 	strb.w	r0, [r4, #96]	@ 0x60
    hpcd->IN_ep[i].num = i;
 800133a:	f8a4 305c 	strh.w	r3, [r4, #92]	@ 0x5c
    hpcd->IN_ep[i].tx_fifo_num = i;
 800133e:	f04f 0302 	mov.w	r3, #2
    hpcd->IN_ep[i].xfer_len = 0U;
 8001342:	66e0      	str	r0, [r4, #108]	@ 0x6c
    hpcd->IN_ep[i].tx_fifo_num = i;
 8001344:	f8a4 3076 	strh.w	r3, [r4, #118]	@ 0x76
    hpcd->IN_ep[i].xfer_buff = 0U;
 8001348:	e9c4 0019 	strd	r0, r0, [r4, #100]	@ 0x64
  for (i = 0U; i < hpcd->Init.dev_endpoints; i++)
 800134c:	f000 80d0 	beq.w	80014f0 <HAL_PCD_Init+0x24c>
    hpcd->IN_ep[i].num = i;
 8001350:	f240 1303 	movw	r3, #259	@ 0x103
  for (i = 0U; i < hpcd->Init.dev_endpoints; i++)
 8001354:	2a04      	cmp	r2, #4
    hpcd->IN_ep[i].tx_fifo_num = i;
 8001356:	f8a4 609a 	strh.w	r6, [r4, #154]	@ 0x9a
    hpcd->IN_ep[i].type = EP_TYPE_CTRL;
 800135a:	f884 0084 	strb.w	r0, [r4, #132]	@ 0x84
    hpcd->IN_ep[i].xfer_len = 0U;
 800135e:	f8c4 0090 	str.w	r0, [r4, #144]	@ 0x90
    hpcd->IN_ep[i].num = i;
 8001362:	f8a4 3080 	strh.w	r3, [r4, #128]	@ 0x80
    hpcd->IN_ep[i].xfer_buff = 0U;
 8001366:	e9c4 0022 	strd	r0, r0, [r4, #136]	@ 0x88
  for (i = 0U; i < hpcd->Init.dev_endpoints; i++)
 800136a:	f000 80c1 	beq.w	80014f0 <HAL_PCD_Init+0x24c>
    hpcd->IN_ep[i].num = i;
 800136e:	f44f 7382 	mov.w	r3, #260	@ 0x104
  for (i = 0U; i < hpcd->Init.dev_endpoints; i++)
 8001372:	2a05      	cmp	r2, #5
    hpcd->IN_ep[i].type = EP_TYPE_CTRL;
 8001374:	f884 00a8 	strb.w	r0, [r4, #168]	@ 0xa8
    hpcd->IN_ep[i].num = i;
 8001378:	f8a4 30a4 	strh.w	r3, [r4, #164]	@ 0xa4
    hpcd->IN_ep[i].tx_fifo_num = i;
 800137c:	f04f 0304 	mov.w	r3, #4
    hpcd->IN_ep[i].xfer_len = 0U;
 8001380:	f8c4 00b4 	str.w	r0, [r4, #180]	@ 0xb4
    hpcd->IN_ep[i].tx_fifo_num = i;
 8001384:	f8a4 30be 	strh.w	r3, [r4, #190]	@ 0xbe
    hpcd->IN_ep[i].xfer_buff = 0U;
 8001388:	e9c4 002b 	strd	r0, r0, [r4, #172]	@ 0xac
  for (i = 0U; i < hpcd->Init.dev_endpoints; i++)
 800138c:	f000 80b0 	beq.w	80014f0 <HAL_PCD_Init+0x24c>
    hpcd->IN_ep[i].num = i;
 8001390:	f240 1305 	movw	r3, #261	@ 0x105
  for (i = 0U; i < hpcd->Init.dev_endpoints; i++)
 8001394:	2a06      	cmp	r2, #6
    hpcd->IN_ep[i].type = EP_TYPE_CTRL;
 8001396:	f884 00cc 	strb.w	r0, [r4, #204]	@ 0xcc
    hpcd->IN_ep[i].num = i;
 800139a:	f8a4 30c8 	strh.w	r3, [r4, #200]	@ 0xc8
    hpcd->IN_ep[i].tx_fifo_num = i;
 800139e:	f04f 0305 	mov.w	r3, #5
    hpcd->IN_ep[i].xfer_len = 0U;
 80013a2:	f8c4 00d8 	str.w	r0, [r4, #216]	@ 0xd8
    hpcd->IN_ep[i].tx_fifo_num = i;
 80013a6:	f8a4 30e2 	strh.w	r3, [r4, #226]	@ 0xe2
    hpcd->IN_ep[i].xfer_buff = 0U;
 80013aa:	e9c4 0034 	strd	r0, r0, [r4, #208]	@ 0xd0
  for (i = 0U; i < hpcd->Init.dev_endpoints; i++)
 80013ae:	f000 809f 	beq.w	80014f0 <HAL_PCD_Init+0x24c>
    hpcd->IN_ep[i].num = i;
 80013b2:	f44f 7383 	mov.w	r3, #262	@ 0x106
  for (i = 0U; i < hpcd->Init.dev_endpoints; i++)
 80013b6:	2a07      	cmp	r2, #7
    hpcd->IN_ep[i].type = EP_TYPE_CTRL;
 80013b8:	f884 00f0 	strb.w	r0, [r4, #240]	@ 0xf0
    hpcd->IN_ep[i].num = i;
 80013bc:	f8a4 30ec 	strh.w	r3, [r4, #236]	@ 0xec
    hpcd->IN_ep[i].tx_fifo_num = i;
 80013c0:	f04f 0306 	mov.w	r3, #6
    hpcd->IN_ep[i].xfer_len = 0U;
 80013c4:	f8c4 00fc 	str.w	r0, [r4, #252]	@ 0xfc
    hpcd->IN_ep[i].tx_fifo_num = i;
 80013c8:	f8a4 3106 	strh.w	r3, [r4, #262]	@ 0x106
    hpcd->IN_ep[i].xfer_buff = 0U;
 80013cc:	e9c4 003d 	strd	r0, r0, [r4, #244]	@ 0xf4
  for (i = 0U; i < hpcd->Init.dev_endpoints; i++)
 80013d0:	f000 808e 	beq.w	80014f0 <HAL_PCD_Init+0x24c>
    hpcd->IN_ep[i].num = i;
 80013d4:	f240 1107 	movw	r1, #263	@ 0x107
    hpcd->IN_ep[i].type = EP_TYPE_CTRL;
 80013d8:	2300      	movs	r3, #0
  for (i = 0U; i < hpcd->Init.dev_endpoints; i++)
 80013da:	2a08      	cmp	r2, #8
    hpcd->IN_ep[i].num = i;
 80013dc:	f8a4 1110 	strh.w	r1, [r4, #272]	@ 0x110
    hpcd->IN_ep[i].tx_fifo_num = i;
 80013e0:	f04f 0107 	mov.w	r1, #7
    hpcd->IN_ep[i].type = EP_TYPE_CTRL;
 80013e4:	f884 3114 	strb.w	r3, [r4, #276]	@ 0x114
    hpcd->IN_ep[i].xfer_len = 0U;
 80013e8:	f8c4 3120 	str.w	r3, [r4, #288]	@ 0x120
    hpcd->IN_ep[i].tx_fifo_num = i;
 80013ec:	f8a4 112a 	strh.w	r1, [r4, #298]	@ 0x12a
    hpcd->IN_ep[i].xfer_buff = 0U;
 80013f0:	e9c4 3346 	strd	r3, r3, [r4, #280]	@ 0x118
  for (i = 0U; i < hpcd->Init.dev_endpoints; i++)
 80013f4:	d07c      	beq.n	80014f0 <HAL_PCD_Init+0x24c>
    hpcd->IN_ep[i].num = i;
 80013f6:	f44f 7184 	mov.w	r1, #264	@ 0x108
  for (i = 0U; i < hpcd->Init.dev_endpoints; i++)
 80013fa:	2a09      	cmp	r2, #9
    hpcd->IN_ep[i].type = EP_TYPE_CTRL;
 80013fc:	f884 3138 	strb.w	r3, [r4, #312]	@ 0x138
    hpcd->IN_ep[i].num = i;
 8001400:	f8a4 1134 	strh.w	r1, [r4, #308]	@ 0x134
    hpcd->IN_ep[i].tx_fifo_num = i;
 8001404:	f04f 0108 	mov.w	r1, #8
    hpcd->IN_ep[i].xfer_len = 0U;
 8001408:	f8c4 3144 	str.w	r3, [r4, #324]	@ 0x144
    hpcd->IN_ep[i].tx_fifo_num = i;
 800140c:	f8a4 114e 	strh.w	r1, [r4, #334]	@ 0x14e
    hpcd->IN_ep[i].xfer_buff = 0U;
 8001410:	e9c4 334f 	strd	r3, r3, [r4, #316]	@ 0x13c
  for (i = 0U; i < hpcd->Init.dev_endpoints; i++)
 8001414:	d06c      	beq.n	80014f0 <HAL_PCD_Init+0x24c>
    hpcd->IN_ep[i].num = i;
 8001416:	f240 1109 	movw	r1, #265	@ 0x109
  for (i = 0U; i < hpcd->Init.dev_endpoints; i++)
 800141a:	2a0a      	cmp	r2, #10
    hpcd->IN_ep[i].type = EP_TYPE_CTRL;
 800141c:	f884 315c 	strb.w	r3, [r4, #348]	@ 0x15c
    hpcd->IN_ep[i].num = i;
 8001420:	f8a4 1158 	strh.w	r1, [r4, #344]	@ 0x158
    hpcd->IN_ep[i].tx_fifo_num = i;
 8001424:	f04f 0109 	mov.w	r1, #9
    hpcd->IN_ep[i].xfer_len = 0U;
 8001428:	f8c4 3168 	str.w	r3, [r4, #360]	@ 0x168
    hpcd->IN_ep[i].tx_fifo_num = i;
 800142c:	f8a4 1172 	strh.w	r1, [r4, #370]	@ 0x172
    hpcd->IN_ep[i].xfer_buff = 0U;
 8001430:	e9c4 3358 	strd	r3, r3, [r4, #352]	@ 0x160
  for (i = 0U; i < hpcd->Init.dev_endpoints; i++)
 8001434:	d05c      	beq.n	80014f0 <HAL_PCD_Init+0x24c>
    hpcd->IN_ep[i].num = i;
 8001436:	f44f 7185 	mov.w	r1, #266	@ 0x10a
  for (i = 0U; i < hpcd->Init.dev_endpoints; i++)
 800143a:	2a0b      	cmp	r2, #11
    hpcd->IN_ep[i].type = EP_TYPE_CTRL;
 800143c:	f884 3180 	strb.w	r3, [r4, #384]	@ 0x180
    hpcd->IN_ep[i].num = i;
 8001440:	f8a4 117c 	strh.w	r1, [r4, #380]	@ 0x17c
    hpcd->IN_ep[i].tx_fifo_num = i;
 8001444:	f04f 010a 	mov.w	r1, #10
    hpcd->IN_ep[i].xfer_len = 0U;
 8001448:	f8c4 318c 	str.w	r3, [r4, #396]	@ 0x18c
    hpcd->IN_ep[i].tx_fifo_num = i;
 800144c:	f8a4 1196 	strh.w	r1, [r4, #406]	@ 0x196
    hpcd->IN_ep[i].xfer_buff = 0U;
 8001450:	e9c4 3361 	strd	r3, r3, [r4, #388]	@ 0x184
  for (i = 0U; i < hpcd->Init.dev_endpoints; i++)
 8001454:	d04c      	beq.n	80014f0 <HAL_PCD_Init+0x24c>
    hpcd->IN_ep[i].num = i;
 8001456:	f240 110b 	movw	r1, #267	@ 0x10b
  for (i = 0U; i < hpcd->Init.dev_endpoints; i++)
 800145a:	2a0c      	cmp	r2, #12
    hpcd->IN_ep[i].type = EP_TYPE_CTRL;
 800145c:	f884 31a4 	strb.w	r3, [r4, #420]	@ 0x1a4
    hpcd->IN_ep[i].num = i;
 8001460:	f8a4 11a0 	strh.w	r1, [r4, #416]	@ 0x1a0
    hpcd->IN_ep[i].tx_fifo_num = i;
 8001464:	f04f 010b 	mov.w	r1, #11
    hpcd->IN_ep[i].xfer_len = 0U;
 8001468:	f8c4 31b0 	str.w	r3, [r4, #432]	@ 0x1b0
    hpcd->IN_ep[i].tx_fifo_num = i;
 800146c:	f8a4 11ba 	strh.w	r1, [r4, #442]	@ 0x1ba
    hpcd->IN_ep[i].xfer_buff = 0U;
 8001470:	e9c4 336a 	strd	r3, r3, [r4, #424]	@ 0x1a8
  for (i = 0U; i < hpcd->Init.dev_endpoints; i++)
 8001474:	d03c      	beq.n	80014f0 <HAL_PCD_Init+0x24c>
    hpcd->IN_ep[i].num = i;
 8001476:	f44f 7186 	mov.w	r1, #268	@ 0x10c
  for (i = 0U; i < hpcd->Init.dev_endpoints; i++)
 800147a:	2a0d      	cmp	r2, #13
    hpcd->IN_ep[i].type = EP_TYPE_CTRL;
 800147c:	f884 31c8 	strb.w	r3, [r4, #456]	@ 0x1c8
    hpcd->IN_ep[i].num = i;
 8001480:	f8a4 11c4 	strh.w	r1, [r4, #452]	@ 0x1c4
    hpcd->IN_ep[i].tx_fifo_num = i;
 8001484:	f04f 010c 	mov.w	r1, #12
    hpcd->IN_ep[i].xfer_len = 0U;
 8001488:	f8c4 31d4 	str.w	r3, [r4, #468]	@ 0x1d4
    hpcd->IN_ep[i].tx_fifo_num = i;
 800148c:	f8a4 11de 	strh.w	r1, [r4, #478]	@ 0x1de
    hpcd->IN_ep[i].xfer_buff = 0U;
 8001490:	e9c4 3373 	strd	r3, r3, [r4, #460]	@ 0x1cc
  for (i = 0U; i < hpcd->Init.dev_endpoints; i++)
 8001494:	d02c      	beq.n	80014f0 <HAL_PCD_Init+0x24c>
    hpcd->IN_ep[i].num = i;
 8001496:	f240 110d 	movw	r1, #269	@ 0x10d
  for (i = 0U; i < hpcd->Init.dev_endpoints; i++)
 800149a:	2a0e      	cmp	r2, #14
    hpcd->IN_ep[i].type = EP_TYPE_CTRL;
 800149c:	f884 31ec 	strb.w	r3, [r4, #492]	@ 0x1ec
    hpcd->IN_ep[i].num = i;
 80014a0:	f8a4 11e8 	strh.w	r1, [r4, #488]	@ 0x1e8
    hpcd->IN_ep[i].tx_fifo_num = i;
 80014a4:	f04f 010d 	mov.w	r1, #13
    hpcd->IN_ep[i].xfer_len = 0U;
 80014a8:	f8c4 31f8 	str.w	r3, [r4, #504]	@ 0x1f8
    hpcd->IN_ep[i].tx_fifo_num = i;
 80014ac:	f8a4 1202 	strh.w	r1, [r4, #514]	@ 0x202
    hpcd->IN_ep[i].xfer_buff = 0U;
 80014b0:	e9c4 337c 	strd	r3, r3, [r4, #496]	@ 0x1f0
  for (i = 0U; i < hpcd->Init.dev_endpoints; i++)
 80014b4:	d01c      	beq.n	80014f0 <HAL_PCD_Init+0x24c>
    hpcd->IN_ep[i].num = i;
 80014b6:	f44f 7187 	mov.w	r1, #270	@ 0x10e
  for (i = 0U; i < hpcd->Init.dev_endpoints; i++)
 80014ba:	2a0f      	cmp	r2, #15
    hpcd->IN_ep[i].type = EP_TYPE_CTRL;
 80014bc:	f884 3210 	strb.w	r3, [r4, #528]	@ 0x210
    hpcd->IN_ep[i].num = i;
 80014c0:	f8a4 120c 	strh.w	r1, [r4, #524]	@ 0x20c
    hpcd->IN_ep[i].tx_fifo_num = i;
 80014c4:	f04f 010e 	mov.w	r1, #14
    hpcd->IN_ep[i].xfer_len = 0U;
 80014c8:	f8c4 321c 	str.w	r3, [r4, #540]	@ 0x21c
    hpcd->IN_ep[i].tx_fifo_num = i;
 80014cc:	f8a4 1226 	strh.w	r1, [r4, #550]	@ 0x226
    hpcd->IN_ep[i].xfer_buff = 0U;
 80014d0:	e9c4 3385 	strd	r3, r3, [r4, #532]	@ 0x214
  for (i = 0U; i < hpcd->Init.dev_endpoints; i++)
 80014d4:	d00c      	beq.n	80014f0 <HAL_PCD_Init+0x24c>
    hpcd->IN_ep[i].num = i;
 80014d6:	f240 110f 	movw	r1, #271	@ 0x10f
    hpcd->IN_ep[i].type = EP_TYPE_CTRL;
 80014da:	f884 3234 	strb.w	r3, [r4, #564]	@ 0x234
    hpcd->IN_ep[i].xfer_len = 0U;
 80014de:	f8c4 3240 	str.w	r3, [r4, #576]	@ 0x240
    hpcd->IN_ep[i].num = i;
 80014e2:	f8a4 1230 	strh.w	r1, [r4, #560]	@ 0x230
    hpcd->IN_ep[i].tx_fifo_num = i;
 80014e6:	210f      	movs	r1, #15
    hpcd->IN_ep[i].xfer_buff = 0U;
 80014e8:	e9c4 338e 	strd	r3, r3, [r4, #568]	@ 0x238
    hpcd->IN_ep[i].tx_fifo_num = i;
 80014ec:	f8a4 124a 	strh.w	r1, [r4, #586]	@ 0x24a
    hpcd->OUT_ep[i].num = i;
 80014f0:	2300      	movs	r3, #0
 80014f2:	2101      	movs	r1, #1
  for (i = 0U; i < hpcd->Init.dev_endpoints; i++)
 80014f4:	2a02      	cmp	r2, #2
    hpcd->OUT_ep[i].num = i;
 80014f6:	f8a4 3254 	strh.w	r3, [r4, #596]	@ 0x254
    hpcd->OUT_ep[i].type = EP_TYPE_CTRL;
 80014fa:	f884 3258 	strb.w	r3, [r4, #600]	@ 0x258
    hpcd->OUT_ep[i].xfer_len = 0U;
 80014fe:	f8c4 3264 	str.w	r3, [r4, #612]	@ 0x264
    hpcd->OUT_ep[i].num = i;
 8001502:	f8a4 1278 	strh.w	r1, [r4, #632]	@ 0x278
    hpcd->OUT_ep[i].type = EP_TYPE_CTRL;
 8001506:	f884 327c 	strb.w	r3, [r4, #636]	@ 0x27c
    hpcd->OUT_ep[i].xfer_len = 0U;
 800150a:	f8c4 3288 	str.w	r3, [r4, #648]	@ 0x288
    hpcd->OUT_ep[i].xfer_buff = 0U;
 800150e:	e9c4 3397 	strd	r3, r3, [r4, #604]	@ 0x25c
 8001512:	e9c4 33a0 	strd	r3, r3, [r4, #640]	@ 0x280
  for (i = 0U; i < hpcd->Init.dev_endpoints; i++)
 8001516:	f000 80a2 	beq.w	800165e <HAL_PCD_Init+0x3ba>
    hpcd->OUT_ep[i].num = i;
 800151a:	2102      	movs	r1, #2
  for (i = 0U; i < hpcd->Init.dev_endpoints; i++)
 800151c:	2a03      	cmp	r2, #3
    hpcd->OUT_ep[i].type = EP_TYPE_CTRL;
 800151e:	f884 32a0 	strb.w	r3, [r4, #672]	@ 0x2a0
    hpcd->OUT_ep[i].num = i;
 8001522:	f8a4 129c 	strh.w	r1, [r4, #668]	@ 0x29c
    hpcd->OUT_ep[i].xfer_len = 0U;
 8001526:	f8c4 32ac 	str.w	r3, [r4, #684]	@ 0x2ac
    hpcd->OUT_ep[i].xfer_buff = 0U;
 800152a:	e9c4 33a9 	strd	r3, r3, [r4, #676]	@ 0x2a4
  for (i = 0U; i < hpcd->Init.dev_endpoints; i++)
 800152e:	f000 8096 	beq.w	800165e <HAL_PCD_Init+0x3ba>
    hpcd->OUT_ep[i].num = i;
 8001532:	2103      	movs	r1, #3
  for (i = 0U; i < hpcd->Init.dev_endpoints; i++)
 8001534:	2a04      	cmp	r2, #4
    hpcd->OUT_ep[i].type = EP_TYPE_CTRL;
 8001536:	f884 32c4 	strb.w	r3, [r4, #708]	@ 0x2c4
    hpcd->OUT_ep[i].num = i;
 800153a:	f8a4 12c0 	strh.w	r1, [r4, #704]	@ 0x2c0
    hpcd->OUT_ep[i].xfer_len = 0U;
 800153e:	f8c4 32d0 	str.w	r3, [r4, #720]	@ 0x2d0
    hpcd->OUT_ep[i].xfer_buff = 0U;
 8001542:	e9c4 33b2 	strd	r3, r3, [r4, #712]	@ 0x2c8
  for (i = 0U; i < hpcd->Init.dev_endpoints; i++)
 8001546:	f000 808a 	beq.w	800165e <HAL_PCD_Init+0x3ba>
    hpcd->OUT_ep[i].num = i;
 800154a:	2104      	movs	r1, #4
  for (i = 0U; i < hpcd->Init.dev_endpoints; i++)
 800154c:	2a05      	cmp	r2, #5
    hpcd->OUT_ep[i].type = EP_TYPE_CTRL;
 800154e:	f884 32e8 	strb.w	r3, [r4, #744]	@ 0x2e8
    hpcd->OUT_ep[i].num = i;
 8001552:	f8a4 12e4 	strh.w	r1, [r4, #740]	@ 0x2e4
    hpcd->OUT_ep[i].xfer_len = 0U;
 8001556:	f8c4 32f4 	str.w	r3, [r4, #756]	@ 0x2f4
    hpcd->OUT_ep[i].xfer_buff = 0U;
 800155a:	e9c4 33bb 	strd	r3, r3, [r4, #748]	@ 0x2ec
  for (i = 0U; i < hpcd->Init.dev_endpoints; i++)
 800155e:	d07e      	beq.n	800165e <HAL_PCD_Init+0x3ba>
    hpcd->OUT_ep[i].num = i;
 8001560:	2105      	movs	r1, #5
  for (i = 0U; i < hpcd->Init.dev_endpoints; i++)
 8001562:	2a06      	cmp	r2, #6
    hpcd->OUT_ep[i].type = EP_TYPE_CTRL;
 8001564:	f884 330c 	strb.w	r3, [r4, #780]	@ 0x30c
    hpcd->OUT_ep[i].num = i;
 8001568:	f8a4 1308 	strh.w	r1, [r4, #776]	@ 0x308
    hpcd->OUT_ep[i].xfer_len = 0U;
 800156c:	f8c4 3318 	str.w	r3, [r4, #792]	@ 0x318
    hpcd->OUT_ep[i].xfer_buff = 0U;
 8001570:	e9c4 33c4 	strd	r3, r3, [r4, #784]	@ 0x310
  for (i = 0U; i < hpcd->Init.dev_endpoints; i++)
 8001574:	d073      	beq.n	800165e <HAL_PCD_Init+0x3ba>
    hpcd->OUT_ep[i].num = i;
 8001576:	2106      	movs	r1, #6
  for (i = 0U; i < hpcd->Init.dev_endpoints; i++)
 8001578:	2a07      	cmp	r2, #7
    hpcd->OUT_ep[i].type = EP_TYPE_CTRL;
 800157a:	f884 3330 	strb.w	r3, [r4, #816]	@ 0x330
    hpcd->OUT_ep[i].num = i;
 800157e:	f8a4 132c 	strh.w	r1, [r4, #812]	@ 0x32c
    hpcd->OUT_ep[i].xfer_len = 0U;
 8001582:	f8c4 333c 	str.w	r3, [r4, #828]	@ 0x33c
    hpcd->OUT_ep[i].xfer_buff = 0U;
 8001586:	e9c4 33cd 	strd	r3, r3, [r4, #820]	@ 0x334
  for (i = 0U; i < hpcd->Init.dev_endpoints; i++)
 800158a:	d068      	beq.n	800165e <HAL_PCD_Init+0x3ba>
    hpcd->OUT_ep[i].num = i;
 800158c:	2107      	movs	r1, #7
  for (i = 0U; i < hpcd->Init.dev_endpoints; i++)
 800158e:	2a08      	cmp	r2, #8
    hpcd->OUT_ep[i].type = EP_TYPE_CTRL;
 8001590:	f884 3354 	strb.w	r3, [r4, #852]	@ 0x354
    hpcd->OUT_ep[i].num = i;
 8001594:	f8a4 1350 	strh.w	r1, [r4, #848]	@ 0x350
    hpcd->OUT_ep[i].xfer_len = 0U;
 8001598:	f8c4 3360 	str.w	r3, [r4, #864]	@ 0x360
    hpcd->OUT_ep[i].xfer_buff = 0U;
 800159c:	e9c4 33d6 	strd	r3, r3, [r4, #856]	@ 0x358
  for (i = 0U; i < hpcd->Init.dev_endpoints; i++)
 80015a0:	d05d      	beq.n	800165e <HAL_PCD_Init+0x3ba>
    hpcd->OUT_ep[i].num = i;
 80015a2:	2108      	movs	r1, #8
  for (i = 0U; i < hpcd->Init.dev_endpoints; i++)
 80015a4:	2a09      	cmp	r2, #9
    hpcd->OUT_ep[i].type = EP_TYPE_CTRL;
 80015a6:	f884 3378 	strb.w	r3, [r4, #888]	@ 0x378
    hpcd->OUT_ep[i].num = i;
 80015aa:	f8a4 1374 	strh.w	r1, [r4, #884]	@ 0x374
    hpcd->OUT_ep[i].xfer_len = 0U;
 80015ae:	f8c4 3384 	str.w	r3, [r4, #900]	@ 0x384
    hpcd->OUT_ep[i].xfer_buff = 0U;
 80015b2:	e9c4 33df 	strd	r3, r3, [r4, #892]	@ 0x37c
  for (i = 0U; i < hpcd->Init.dev_endpoints; i++)
 80015b6:	d052      	beq.n	800165e <HAL_PCD_Init+0x3ba>
    hpcd->OUT_ep[i].num = i;
 80015b8:	2109      	movs	r1, #9
  for (i = 0U; i < hpcd->Init.dev_endpoints; i++)
 80015ba:	2a0a      	cmp	r2, #10
    hpcd->OUT_ep[i].type = EP_TYPE_CTRL;
 80015bc:	f884 339c 	strb.w	r3, [r4, #924]	@ 0x39c
    hpcd->OUT_ep[i].num = i;
 80015c0:	f8a4 1398 	strh.w	r1, [r4, #920]	@ 0x398
    hpcd->OUT_ep[i].xfer_len = 0U;
 80015c4:	f8c4 33a8 	str.w	r3, [r4, #936]	@ 0x3a8
    hpcd->OUT_ep[i].xfer_buff = 0U;
 80015c8:	e9c4 33e8 	strd	r3, r3, [r4, #928]	@ 0x3a0
  for (i = 0U; i < hpcd->Init.dev_endpoints; i++)
 80015cc:	d047      	beq.n	800165e <HAL_PCD_Init+0x3ba>
    hpcd->OUT_ep[i].num = i;
 80015ce:	210a      	movs	r1, #10
  for (i = 0U; i < hpcd->Init.dev_endpoints; i++)
 80015d0:	2a0b      	cmp	r2, #11
    hpcd->OUT_ep[i].type = EP_TYPE_CTRL;
 80015d2:	f884 33c0 	strb.w	r3, [r4, #960]	@ 0x3c0
    hpcd->OUT_ep[i].num = i;
 80015d6:	f8a4 13bc 	strh.w	r1, [r4, #956]	@ 0x3bc
    hpcd->OUT_ep[i].xfer_len = 0U;
 80015da:	f8c4 33cc 	str.w	r3, [r4, #972]	@ 0x3cc
    hpcd->OUT_ep[i].xfer_buff = 0U;
 80015de:	e9c4 33f1 	strd	r3, r3, [r4, #964]	@ 0x3c4
  for (i = 0U; i < hpcd->Init.dev_endpoints; i++)
 80015e2:	d03c      	beq.n	800165e <HAL_PCD_Init+0x3ba>
    hpcd->OUT_ep[i].num = i;
 80015e4:	210b      	movs	r1, #11
  for (i = 0U; i < hpcd->Init.dev_endpoints; i++)
 80015e6:	2a0c      	cmp	r2, #12
    hpcd->OUT_ep[i].type = EP_TYPE_CTRL;
 80015e8:	f884 33e4 	strb.w	r3, [r4, #996]	@ 0x3e4
    hpcd->OUT_ep[i].num = i;
 80015ec:	f8a4 13e0 	strh.w	r1, [r4, #992]	@ 0x3e0
    hpcd->OUT_ep[i].xfer_len = 0U;
 80015f0:	f8c4 33f0 	str.w	r3, [r4, #1008]	@ 0x3f0
    hpcd->OUT_ep[i].xfer_buff = 0U;
 80015f4:	e9c4 33fa 	strd	r3, r3, [r4, #1000]	@ 0x3e8
  for (i = 0U; i < hpcd->Init.dev_endpoints; i++)
 80015f8:	d031      	beq.n	800165e <HAL_PCD_Init+0x3ba>
    hpcd->OUT_ep[i].num = i;
 80015fa:	210c      	movs	r1, #12
  for (i = 0U; i < hpcd->Init.dev_endpoints; i++)
 80015fc:	2a0d      	cmp	r2, #13
    hpcd->OUT_ep[i].type = EP_TYPE_CTRL;
 80015fe:	f884 3408 	strb.w	r3, [r4, #1032]	@ 0x408
    hpcd->OUT_ep[i].maxpacket = 0U;
 8001602:	f8c4 340c 	str.w	r3, [r4, #1036]	@ 0x40c
    hpcd->OUT_ep[i].xfer_buff = 0U;
 8001606:	f8c4 3410 	str.w	r3, [r4, #1040]	@ 0x410
    hpcd->OUT_ep[i].num = i;
 800160a:	f8a4 1404 	strh.w	r1, [r4, #1028]	@ 0x404
    hpcd->OUT_ep[i].xfer_len = 0U;
 800160e:	f8c4 3414 	str.w	r3, [r4, #1044]	@ 0x414
  for (i = 0U; i < hpcd->Init.dev_endpoints; i++)
 8001612:	d024      	beq.n	800165e <HAL_PCD_Init+0x3ba>
    hpcd->OUT_ep[i].num = i;
 8001614:	210d      	movs	r1, #13
  for (i = 0U; i < hpcd->Init.dev_endpoints; i++)
 8001616:	2a0e      	cmp	r2, #14
    hpcd->OUT_ep[i].type = EP_TYPE_CTRL;
 8001618:	f884 342c 	strb.w	r3, [r4, #1068]	@ 0x42c
    hpcd->OUT_ep[i].maxpacket = 0U;
 800161c:	f8c4 3430 	str.w	r3, [r4, #1072]	@ 0x430
    hpcd->OUT_ep[i].xfer_buff = 0U;
 8001620:	f8c4 3434 	str.w	r3, [r4, #1076]	@ 0x434
    hpcd->OUT_ep[i].num = i;
 8001624:	f8a4 1428 	strh.w	r1, [r4, #1064]	@ 0x428
    hpcd->OUT_ep[i].xfer_len = 0U;
 8001628:	f8c4 3438 	str.w	r3, [r4, #1080]	@ 0x438
  for (i = 0U; i < hpcd->Init.dev_endpoints; i++)
 800162c:	d017      	beq.n	800165e <HAL_PCD_Init+0x3ba>
    hpcd->OUT_ep[i].num = i;
 800162e:	210e      	movs	r1, #14
  for (i = 0U; i < hpcd->Init.dev_endpoints; i++)
 8001630:	2a0f      	cmp	r2, #15
    hpcd->OUT_ep[i].type = EP_TYPE_CTRL;
 8001632:	f884 3450 	strb.w	r3, [r4, #1104]	@ 0x450
    hpcd->OUT_ep[i].maxpacket = 0U;
 8001636:	f8c4 3454 	str.w	r3, [r4, #1108]	@ 0x454
    hpcd->OUT_ep[i].xfer_buff = 0U;
 800163a:	f8c4 3458 	str.w	r3, [r4, #1112]	@ 0x458
    hpcd->OUT_ep[i].num = i;
 800163e:	f8a4 144c 	strh.w	r1, [r4, #1100]	@ 0x44c
    hpcd->OUT_ep[i].xfer_len = 0U;
 8001642:	f8c4 345c 	str.w	r3, [r4, #1116]	@ 0x45c
  for (i = 0U; i < hpcd->Init.dev_endpoints; i++)
 8001646:	d00a      	beq.n	800165e <HAL_PCD_Init+0x3ba>
    hpcd->OUT_ep[i].num = i;
 8001648:	220f      	movs	r2, #15
    hpcd->OUT_ep[i].type = EP_TYPE_CTRL;
 800164a:	f884 3474 	strb.w	r3, [r4, #1140]	@ 0x474
    hpcd->OUT_ep[i].maxpacket = 0U;
 800164e:	f8c4 3478 	str.w	r3, [r4, #1144]	@ 0x478
    hpcd->OUT_ep[i].xfer_buff = 0U;
 8001652:	f8c4 347c 	str.w	r3, [r4, #1148]	@ 0x47c
    hpcd->OUT_ep[i].num = i;
 8001656:	f8a4 2470 	strh.w	r2, [r4, #1136]	@ 0x470
    hpcd->OUT_ep[i].xfer_len = 0U;
 800165a:	f8c4 3480 	str.w	r3, [r4, #1152]	@ 0x480
  if (USB_DevInit(hpcd->Instance, hpcd->Init) != HAL_OK)
 800165e:	7c20      	ldrb	r0, [r4, #16]
 8001660:	e895 000e 	ldmia.w	r5, {r1, r2, r3}
 8001664:	f88d 0000 	strb.w	r0, [sp]
 8001668:	6820      	ldr	r0, [r4, #0]
 800166a:	f003 fcb7 	bl	8004fdc <USB_DevInit>
 800166e:	4605      	mov	r5, r0
 8001670:	2800      	cmp	r0, #0
 8001672:	f47f ae32 	bne.w	80012da <HAL_PCD_Init+0x36>
  hpcd->State = HAL_PCD_STATE_READY;
 8001676:	2201      	movs	r2, #1
  if (hpcd->Init.lpm_enable == 1U)
 8001678:	7b23      	ldrb	r3, [r4, #12]
  hpcd->USB_Address = 0U;
 800167a:	7460      	strb	r0, [r4, #17]
  if (hpcd->Init.lpm_enable == 1U)
 800167c:	4293      	cmp	r3, r2
  hpcd->State = HAL_PCD_STATE_READY;
 800167e:	f884 2495 	strb.w	r2, [r4, #1173]	@ 0x495
  if (hpcd->Init.lpm_enable == 1U)
 8001682:	d00a      	beq.n	800169a <HAL_PCD_Init+0x3f6>
  (void)USB_DevDisconnect(hpcd->Instance);
 8001684:	6820      	ldr	r0, [r4, #0]
 8001686:	f004 f8e7 	bl	8005858 <USB_DevDisconnect>
}
 800168a:	4628      	mov	r0, r5
 800168c:	b002      	add	sp, #8
 800168e:	bd70      	pop	{r4, r5, r6, pc}
    hpcd->Lock = HAL_UNLOCKED;
 8001690:	f880 2494 	strb.w	r2, [r0, #1172]	@ 0x494
    HAL_PCD_MspInit(hpcd);
 8001694:	f005 f882 	bl	800679c <HAL_PCD_MspInit>
 8001698:	e60f      	b.n	80012ba <HAL_PCD_Init+0x16>
    (void)HAL_PCDEx_ActivateLPM(hpcd);
 800169a:	4620      	mov	r0, r4
 800169c:	f000 ffa4 	bl	80025e8 <HAL_PCDEx_ActivateLPM>
 80016a0:	e7f0      	b.n	8001684 <HAL_PCD_Init+0x3e0>
    hpcd->OUT_ep[i].num = i;
 80016a2:	f8a4 0254 	strh.w	r0, [r4, #596]	@ 0x254
    hpcd->OUT_ep[i].type = EP_TYPE_CTRL;
 80016a6:	f884 0258 	strb.w	r0, [r4, #600]	@ 0x258
    hpcd->OUT_ep[i].xfer_len = 0U;
 80016aa:	f8c4 0264 	str.w	r0, [r4, #612]	@ 0x264
    hpcd->OUT_ep[i].xfer_buff = 0U;
 80016ae:	e9c4 0097 	strd	r0, r0, [r4, #604]	@ 0x25c
  for (i = 0U; i < hpcd->Init.dev_endpoints; i++)
 80016b2:	e7d4      	b.n	800165e <HAL_PCD_Init+0x3ba>

080016b4 <HAL_PCD_Start>:
  * @brief  Start the USB device
  * @param  hpcd PCD handle
  * @retval HAL status
  */
HAL_StatusTypeDef HAL_PCD_Start(PCD_HandleTypeDef *hpcd)
{
 80016b4:	b510      	push	{r4, lr}
  USB_OTG_GlobalTypeDef *USBx = hpcd->Instance;

  __HAL_LOCK(hpcd);
 80016b6:	f890 3494 	ldrb.w	r3, [r0, #1172]	@ 0x494
{
 80016ba:	4604      	mov	r4, r0
  USB_OTG_GlobalTypeDef *USBx = hpcd->Instance;
 80016bc:	6800      	ldr	r0, [r0, #0]
  __HAL_LOCK(hpcd);
 80016be:	2b01      	cmp	r3, #1
 80016c0:	d017      	beq.n	80016f2 <HAL_PCD_Start+0x3e>
 80016c2:	2301      	movs	r3, #1
 80016c4:	f884 3494 	strb.w	r3, [r4, #1172]	@ 0x494

  if (((USBx->GUSBCFG & USB_OTG_GUSBCFG_PHYSEL) != 0U) &&
 80016c8:	68c3      	ldr	r3, [r0, #12]
 80016ca:	065b      	lsls	r3, r3, #25
 80016cc:	d502      	bpl.n	80016d4 <HAL_PCD_Start+0x20>
 80016ce:	7b63      	ldrb	r3, [r4, #13]
 80016d0:	2b01      	cmp	r3, #1
 80016d2:	d009      	beq.n	80016e8 <HAL_PCD_Start+0x34>
  {
    /* Enable USB Transceiver */
    USBx->GCCFG |= USB_OTG_GCCFG_PWRDWN;
  }

  __HAL_PCD_ENABLE(hpcd);
 80016d4:	f003 fc3c 	bl	8004f50 <USB_EnableGlobalInt>
  (void)USB_DevConnect(hpcd->Instance);
 80016d8:	6820      	ldr	r0, [r4, #0]
 80016da:	f004 f8ad 	bl	8005838 <USB_DevConnect>
  __HAL_UNLOCK(hpcd);
 80016de:	2300      	movs	r3, #0

  return HAL_OK;
 80016e0:	4618      	mov	r0, r3
  __HAL_UNLOCK(hpcd);
 80016e2:	f884 3494 	strb.w	r3, [r4, #1172]	@ 0x494
}
 80016e6:	bd10      	pop	{r4, pc}
    USBx->GCCFG |= USB_OTG_GCCFG_PWRDWN;
 80016e8:	6b83      	ldr	r3, [r0, #56]	@ 0x38
 80016ea:	f443 3380 	orr.w	r3, r3, #65536	@ 0x10000
 80016ee:	6383      	str	r3, [r0, #56]	@ 0x38
 80016f0:	e7f0      	b.n	80016d4 <HAL_PCD_Start+0x20>
  __HAL_LOCK(hpcd);
 80016f2:	2002      	movs	r0, #2
}
 80016f4:	bd10      	pop	{r4, pc}
 80016f6:	bf00      	nop

080016f8 <HAL_PCD_IRQHandler>:
  * @brief  Handles PCD interrupt request.
  * @param  hpcd PCD handle
  * @retval HAL status
  */
void HAL_PCD_IRQHandler(PCD_HandleTypeDef *hpcd)
{
 80016f8:	e92d 4ff0 	stmdb	sp!, {r4, r5, r6, r7, r8, r9, sl, fp, lr}
  USB_OTG_GlobalTypeDef *USBx = hpcd->Instance;
 80016fc:	6806      	ldr	r6, [r0, #0]
{
 80016fe:	b089      	sub	sp, #36	@ 0x24
 8001700:	4604      	mov	r4, r0
  uint32_t epnum;
  uint32_t fifoemptymsk;
  uint32_t RegVal;

  /* ensure that we are in device mode */
  if (USB_GetMode(hpcd->Instance) == USB_OTG_MODE_DEVICE)
 8001702:	4630      	mov	r0, r6
 8001704:	f004 f8e6 	bl	80058d4 <USB_GetMode>
 8001708:	b110      	cbz	r0, 8001710 <HAL_PCD_IRQHandler+0x18>
#endif /* USE_HAL_PCD_REGISTER_CALLBACKS */
      }
      hpcd->Instance->GOTGINT |= RegVal;
    }
  }
}
 800170a:	b009      	add	sp, #36	@ 0x24
 800170c:	e8bd 8ff0 	ldmia.w	sp!, {r4, r5, r6, r7, r8, r9, sl, fp, pc}
    if (__HAL_PCD_IS_INVALID_INTERRUPT(hpcd))
 8001710:	4605      	mov	r5, r0
 8001712:	6820      	ldr	r0, [r4, #0]
 8001714:	f004 f8b0 	bl	8005878 <USB_ReadInterrupts>
 8001718:	2800      	cmp	r0, #0
 800171a:	d0f6      	beq.n	800170a <HAL_PCD_IRQHandler+0x12>
    hpcd->FrameNumber = (USBx_DEVICE->DSTS & USB_OTG_DSTS_FNSOF_Msk) >> USB_OTG_DSTS_FNSOF_Pos;
 800171c:	f8d6 3808 	ldr.w	r3, [r6, #2056]	@ 0x808
 8001720:	f506 6200 	add.w	r2, r6, #2048	@ 0x800
    if (__HAL_PCD_GET_FLAG(hpcd, USB_OTG_GINTSTS_MMIS))
 8001724:	6820      	ldr	r0, [r4, #0]
    hpcd->FrameNumber = (USBx_DEVICE->DSTS & USB_OTG_DSTS_FNSOF_Msk) >> USB_OTG_DSTS_FNSOF_Pos;
 8001726:	f3c3 230d 	ubfx	r3, r3, #8, #14
 800172a:	9203      	str	r2, [sp, #12]
 800172c:	f8c4 34d4 	str.w	r3, [r4, #1236]	@ 0x4d4
    if (__HAL_PCD_GET_FLAG(hpcd, USB_OTG_GINTSTS_MMIS))
 8001730:	f004 f8a2 	bl	8005878 <USB_ReadInterrupts>
 8001734:	f010 0f02 	tst.w	r0, #2
      __HAL_PCD_CLEAR_FLAG(hpcd, USB_OTG_GINTSTS_MMIS);
 8001738:	6820      	ldr	r0, [r4, #0]
    if (__HAL_PCD_GET_FLAG(hpcd, USB_OTG_GINTSTS_MMIS))
 800173a:	d003      	beq.n	8001744 <HAL_PCD_IRQHandler+0x4c>
      __HAL_PCD_CLEAR_FLAG(hpcd, USB_OTG_GINTSTS_MMIS);
 800173c:	6943      	ldr	r3, [r0, #20]
 800173e:	f003 0302 	and.w	r3, r3, #2
 8001742:	6143      	str	r3, [r0, #20]
    if (__HAL_PCD_GET_FLAG(hpcd, USB_OTG_GINTSTS_RXFLVL))
 8001744:	f004 f898 	bl	8005878 <USB_ReadInterrupts>
 8001748:	f010 0f10 	tst.w	r0, #16
      USB_MASK_INTERRUPT(hpcd->Instance, USB_OTG_GINTSTS_RXFLVL);
 800174c:	6820      	ldr	r0, [r4, #0]
    if (__HAL_PCD_GET_FLAG(hpcd, USB_OTG_GINTSTS_RXFLVL))
 800174e:	d012      	beq.n	8001776 <HAL_PCD_IRQHandler+0x7e>
      USB_MASK_INTERRUPT(hpcd->Instance, USB_OTG_GINTSTS_RXFLVL);
 8001750:	6983      	ldr	r3, [r0, #24]
 8001752:	f023 0310 	bic.w	r3, r3, #16
 8001756:	6183      	str	r3, [r0, #24]
      RegVal = USBx->GRXSTSP;
 8001758:	6a37      	ldr	r7, [r6, #32]
      if (((RegVal & USB_OTG_GRXSTSP_PKTSTS) >> 17) ==  STS_DATA_UPDT)
 800175a:	f3c7 4343 	ubfx	r3, r7, #17, #4
      ep = &hpcd->OUT_ep[RegVal & USB_OTG_GRXSTSP_EPNUM];
 800175e:	f007 080f 	and.w	r8, r7, #15
      if (((RegVal & USB_OTG_GRXSTSP_PKTSTS) >> 17) ==  STS_DATA_UPDT)
 8001762:	2b02      	cmp	r3, #2
 8001764:	f000 83d2 	beq.w	8001f0c <HAL_PCD_IRQHandler+0x814>
      else if (((RegVal & USB_OTG_GRXSTSP_PKTSTS) >> 17) == STS_SETUP_UPDT)
 8001768:	2b06      	cmp	r3, #6
 800176a:	f000 836f 	beq.w	8001e4c <HAL_PCD_IRQHandler+0x754>
      USB_UNMASK_INTERRUPT(hpcd->Instance, USB_OTG_GINTSTS_RXFLVL);
 800176e:	6983      	ldr	r3, [r0, #24]
 8001770:	f043 0310 	orr.w	r3, r3, #16
 8001774:	6183      	str	r3, [r0, #24]
    if (__HAL_PCD_GET_FLAG(hpcd, USB_OTG_GINTSTS_OEPINT))
 8001776:	f004 f87f 	bl	8005878 <USB_ReadInterrupts>
 800177a:	f410 2f00 	tst.w	r0, #524288	@ 0x80000
      ep_intr = USB_ReadDevAllOutEpInterrupt(hpcd->Instance);
 800177e:	6820      	ldr	r0, [r4, #0]
    if (__HAL_PCD_GET_FLAG(hpcd, USB_OTG_GINTSTS_OEPINT))
 8001780:	f040 82c7 	bne.w	8001d12 <HAL_PCD_IRQHandler+0x61a>
    if (__HAL_PCD_GET_FLAG(hpcd, USB_OTG_GINTSTS_IEPINT))
 8001784:	f004 f878 	bl	8005878 <USB_ReadInterrupts>
 8001788:	0347      	lsls	r7, r0, #13
 800178a:	f100 8226 	bmi.w	8001bda <HAL_PCD_IRQHandler+0x4e2>
      ep_intr = USB_ReadDevAllInEpInterrupt(hpcd->Instance);
 800178e:	6820      	ldr	r0, [r4, #0]
    if (__HAL_PCD_GET_FLAG(hpcd, USB_OTG_GINTSTS_WKUINT))
 8001790:	f004 f872 	bl	8005878 <USB_ReadInterrupts>
 8001794:	2800      	cmp	r0, #0
 8001796:	f2c0 8198 	blt.w	8001aca <HAL_PCD_IRQHandler+0x3d2>
    if (__HAL_PCD_GET_FLAG(hpcd, USB_OTG_GINTSTS_USBSUSP))
 800179a:	6820      	ldr	r0, [r4, #0]
 800179c:	f004 f86c 	bl	8005878 <USB_ReadInterrupts>
 80017a0:	0501      	lsls	r1, r0, #20
 80017a2:	f100 8157 	bmi.w	8001a54 <HAL_PCD_IRQHandler+0x35c>
      __HAL_PCD_CLEAR_FLAG(hpcd, USB_OTG_GINTSTS_USBSUSP);
 80017a6:	6820      	ldr	r0, [r4, #0]
    if (__HAL_PCD_GET_FLAG(hpcd, USB_OTG_GINTSTS_LPMINT))
 80017a8:	f004 f866 	bl	8005878 <USB_ReadInterrupts>
 80017ac:	0103      	lsls	r3, r0, #4
 80017ae:	d514      	bpl.n	80017da <HAL_PCD_IRQHandler+0xe2>
      __HAL_PCD_CLEAR_FLAG(hpcd, USB_OTG_GINTSTS_LPMINT);
 80017b0:	6822      	ldr	r2, [r4, #0]
 80017b2:	6953      	ldr	r3, [r2, #20]
 80017b4:	f003 6300 	and.w	r3, r3, #134217728	@ 0x8000000
 80017b8:	6153      	str	r3, [r2, #20]
      if (hpcd->LPM_State == LPM_L0)
 80017ba:	f894 34cc 	ldrb.w	r3, [r4, #1228]	@ 0x4cc
 80017be:	2b00      	cmp	r3, #0
 80017c0:	f040 82f7 	bne.w	8001db2 <HAL_PCD_IRQHandler+0x6ba>
        hpcd->LPM_State = LPM_L1;
 80017c4:	2101      	movs	r1, #1
        HAL_PCDEx_LPM_Callback(hpcd, PCD_LPM_L1_ACTIVE);
 80017c6:	4620      	mov	r0, r4
        hpcd->LPM_State = LPM_L1;
 80017c8:	f884 14cc 	strb.w	r1, [r4, #1228]	@ 0x4cc
        hpcd->BESL = (hpcd->Instance->GLPMCFG & USB_OTG_GLPMCFG_BESL) >> 2U;
 80017cc:	6d53      	ldr	r3, [r2, #84]	@ 0x54
 80017ce:	f3c3 0383 	ubfx	r3, r3, #2, #4
 80017d2:	f8c4 34d0 	str.w	r3, [r4, #1232]	@ 0x4d0
        HAL_PCDEx_LPM_Callback(hpcd, PCD_LPM_L1_ACTIVE);
 80017d6:	f000 ff1f 	bl	8002618 <HAL_PCDEx_LPM_Callback>
    if (__HAL_PCD_GET_FLAG(hpcd, USB_OTG_GINTSTS_USBRST))
 80017da:	6820      	ldr	r0, [r4, #0]
 80017dc:	f004 f84c 	bl	8005878 <USB_ReadInterrupts>
 80017e0:	04c7      	lsls	r7, r0, #19
 80017e2:	f100 819c 	bmi.w	8001b1e <HAL_PCD_IRQHandler+0x426>
    if (__HAL_PCD_GET_FLAG(hpcd, USB_OTG_GINTSTS_ENUMDNE))
 80017e6:	6820      	ldr	r0, [r4, #0]
 80017e8:	f004 f846 	bl	8005878 <USB_ReadInterrupts>
 80017ec:	f410 5f00 	tst.w	r0, #8192	@ 0x2000
      (void)USB_ActivateSetup(hpcd->Instance);
 80017f0:	6820      	ldr	r0, [r4, #0]
    if (__HAL_PCD_GET_FLAG(hpcd, USB_OTG_GINTSTS_ENUMDNE))
 80017f2:	f040 817d 	bne.w	8001af0 <HAL_PCD_IRQHandler+0x3f8>
    if (__HAL_PCD_GET_FLAG(hpcd, USB_OTG_GINTSTS_SOF))
 80017f6:	f004 f83f 	bl	8005878 <USB_ReadInterrupts>
 80017fa:	0700      	lsls	r0, r0, #28
 80017fc:	f100 81e4 	bmi.w	8001bc8 <HAL_PCD_IRQHandler+0x4d0>
    if (__HAL_PCD_GET_FLAG(hpcd, USB_OTG_GINTSTS_BOUTNAKEFF))
 8001800:	6820      	ldr	r0, [r4, #0]
 8001802:	f004 f839 	bl	8005878 <USB_ReadInterrupts>
 8001806:	0601      	lsls	r1, r0, #24
 8001808:	d571      	bpl.n	80018ee <HAL_PCD_IRQHandler+0x1f6>
      USBx->GINTMSK &= ~USB_OTG_GINTMSK_GONAKEFFM;
 800180a:	69b3      	ldr	r3, [r6, #24]
 800180c:	f023 0380 	bic.w	r3, r3, #128	@ 0x80
 8001810:	61b3      	str	r3, [r6, #24]
      for (epnum = 1U; epnum < hpcd->Init.dev_endpoints; epnum++)
 8001812:	7923      	ldrb	r3, [r4, #4]
 8001814:	2b01      	cmp	r3, #1
 8001816:	d96a      	bls.n	80018ee <HAL_PCD_IRQHandler+0x1f6>
        if (hpcd->OUT_ep[epnum].is_iso_incomplete == 1U)
 8001818:	f894 227b 	ldrb.w	r2, [r4, #635]	@ 0x27b
 800181c:	2a01      	cmp	r2, #1
 800181e:	f000 83e2 	beq.w	8001fe6 <HAL_PCD_IRQHandler+0x8ee>
      for (epnum = 1U; epnum < hpcd->Init.dev_endpoints; epnum++)
 8001822:	2b02      	cmp	r3, #2
 8001824:	d963      	bls.n	80018ee <HAL_PCD_IRQHandler+0x1f6>
        if (hpcd->OUT_ep[epnum].is_iso_incomplete == 1U)
 8001826:	f894 229f 	ldrb.w	r2, [r4, #671]	@ 0x29f
 800182a:	2a01      	cmp	r2, #1
 800182c:	f000 83f6 	beq.w	800201c <HAL_PCD_IRQHandler+0x924>
      for (epnum = 1U; epnum < hpcd->Init.dev_endpoints; epnum++)
 8001830:	2b03      	cmp	r3, #3
 8001832:	d95c      	bls.n	80018ee <HAL_PCD_IRQHandler+0x1f6>
        if (hpcd->OUT_ep[epnum].is_iso_incomplete == 1U)
 8001834:	f894 22c3 	ldrb.w	r2, [r4, #707]	@ 0x2c3
 8001838:	2a01      	cmp	r2, #1
 800183a:	f000 8300 	beq.w	8001e3e <HAL_PCD_IRQHandler+0x746>
      for (epnum = 1U; epnum < hpcd->Init.dev_endpoints; epnum++)
 800183e:	2b04      	cmp	r3, #4
 8001840:	d955      	bls.n	80018ee <HAL_PCD_IRQHandler+0x1f6>
        if (hpcd->OUT_ep[epnum].is_iso_incomplete == 1U)
 8001842:	f894 22e7 	ldrb.w	r2, [r4, #743]	@ 0x2e7
 8001846:	2a01      	cmp	r2, #1
 8001848:	f000 8313 	beq.w	8001e72 <HAL_PCD_IRQHandler+0x77a>
      for (epnum = 1U; epnum < hpcd->Init.dev_endpoints; epnum++)
 800184c:	2b05      	cmp	r3, #5
 800184e:	d94e      	bls.n	80018ee <HAL_PCD_IRQHandler+0x1f6>
        if (hpcd->OUT_ep[epnum].is_iso_incomplete == 1U)
 8001850:	f894 230b 	ldrb.w	r2, [r4, #779]	@ 0x30b
 8001854:	2a01      	cmp	r2, #1
 8001856:	f000 8420 	beq.w	800209a <HAL_PCD_IRQHandler+0x9a2>
      for (epnum = 1U; epnum < hpcd->Init.dev_endpoints; epnum++)
 800185a:	2b06      	cmp	r3, #6
 800185c:	d947      	bls.n	80018ee <HAL_PCD_IRQHandler+0x1f6>
        if (hpcd->OUT_ep[epnum].is_iso_incomplete == 1U)
 800185e:	f894 232f 	ldrb.w	r2, [r4, #815]	@ 0x32f
 8001862:	2a01      	cmp	r2, #1
 8001864:	f000 842d 	beq.w	80020c2 <HAL_PCD_IRQHandler+0x9ca>
      for (epnum = 1U; epnum < hpcd->Init.dev_endpoints; epnum++)
 8001868:	2b07      	cmp	r3, #7
 800186a:	d940      	bls.n	80018ee <HAL_PCD_IRQHandler+0x1f6>
        if (hpcd->OUT_ep[epnum].is_iso_incomplete == 1U)
 800186c:	f894 2353 	ldrb.w	r2, [r4, #851]	@ 0x353
 8001870:	2a01      	cmp	r2, #1
 8001872:	f000 843f 	beq.w	80020f4 <HAL_PCD_IRQHandler+0x9fc>
      for (epnum = 1U; epnum < hpcd->Init.dev_endpoints; epnum++)
 8001876:	2b08      	cmp	r3, #8
 8001878:	d939      	bls.n	80018ee <HAL_PCD_IRQHandler+0x1f6>
        if (hpcd->OUT_ep[epnum].is_iso_incomplete == 1U)
 800187a:	f894 2377 	ldrb.w	r2, [r4, #887]	@ 0x377
 800187e:	2a01      	cmp	r2, #1
 8001880:	f000 844c 	beq.w	800211c <HAL_PCD_IRQHandler+0xa24>
      for (epnum = 1U; epnum < hpcd->Init.dev_endpoints; epnum++)
 8001884:	2b09      	cmp	r3, #9
 8001886:	d932      	bls.n	80018ee <HAL_PCD_IRQHandler+0x1f6>
        if (hpcd->OUT_ep[epnum].is_iso_incomplete == 1U)
 8001888:	f894 239b 	ldrb.w	r2, [r4, #923]	@ 0x39b
 800188c:	2a01      	cmp	r2, #1
 800188e:	f000 8459 	beq.w	8002144 <HAL_PCD_IRQHandler+0xa4c>
      for (epnum = 1U; epnum < hpcd->Init.dev_endpoints; epnum++)
 8001892:	2b0a      	cmp	r3, #10
 8001894:	d92b      	bls.n	80018ee <HAL_PCD_IRQHandler+0x1f6>
        if (hpcd->OUT_ep[epnum].is_iso_incomplete == 1U)
 8001896:	f894 23bf 	ldrb.w	r2, [r4, #959]	@ 0x3bf
 800189a:	2a01      	cmp	r2, #1
 800189c:	f000 8466 	beq.w	800216c <HAL_PCD_IRQHandler+0xa74>
      for (epnum = 1U; epnum < hpcd->Init.dev_endpoints; epnum++)
 80018a0:	2b0b      	cmp	r3, #11
 80018a2:	d924      	bls.n	80018ee <HAL_PCD_IRQHandler+0x1f6>
        if (hpcd->OUT_ep[epnum].is_iso_incomplete == 1U)
 80018a4:	f894 23e3 	ldrb.w	r2, [r4, #995]	@ 0x3e3
 80018a8:	2a01      	cmp	r2, #1
 80018aa:	f000 8473 	beq.w	8002194 <HAL_PCD_IRQHandler+0xa9c>
      for (epnum = 1U; epnum < hpcd->Init.dev_endpoints; epnum++)
 80018ae:	2b0c      	cmp	r3, #12
 80018b0:	d91d      	bls.n	80018ee <HAL_PCD_IRQHandler+0x1f6>
        if (hpcd->OUT_ep[epnum].is_iso_incomplete == 1U)
 80018b2:	f894 2407 	ldrb.w	r2, [r4, #1031]	@ 0x407
 80018b6:	2a01      	cmp	r2, #1
 80018b8:	f000 8478 	beq.w	80021ac <HAL_PCD_IRQHandler+0xab4>
      for (epnum = 1U; epnum < hpcd->Init.dev_endpoints; epnum++)
 80018bc:	2b0d      	cmp	r3, #13
 80018be:	d916      	bls.n	80018ee <HAL_PCD_IRQHandler+0x1f6>
        if (hpcd->OUT_ep[epnum].is_iso_incomplete == 1U)
 80018c0:	f894 242b 	ldrb.w	r2, [r4, #1067]	@ 0x42b
 80018c4:	2a01      	cmp	r2, #1
 80018c6:	f000 8498 	beq.w	80021fa <HAL_PCD_IRQHandler+0xb02>
      for (epnum = 1U; epnum < hpcd->Init.dev_endpoints; epnum++)
 80018ca:	2b0e      	cmp	r3, #14
 80018cc:	d90f      	bls.n	80018ee <HAL_PCD_IRQHandler+0x1f6>
        if (hpcd->OUT_ep[epnum].is_iso_incomplete == 1U)
 80018ce:	f894 244f 	ldrb.w	r2, [r4, #1103]	@ 0x44f
 80018d2:	2a01      	cmp	r2, #1
 80018d4:	f000 849f 	beq.w	8002216 <HAL_PCD_IRQHandler+0xb1e>
      for (epnum = 1U; epnum < hpcd->Init.dev_endpoints; epnum++)
 80018d8:	2b0f      	cmp	r3, #15
 80018da:	d908      	bls.n	80018ee <HAL_PCD_IRQHandler+0x1f6>
        if (hpcd->OUT_ep[epnum].is_iso_incomplete == 1U)
 80018dc:	f894 3473 	ldrb.w	r3, [r4, #1139]	@ 0x473
 80018e0:	2b01      	cmp	r3, #1
 80018e2:	d104      	bne.n	80018ee <HAL_PCD_IRQHandler+0x1f6>
  {
    ep = &hpcd->OUT_ep[ep_addr & EP_ADDR_MSK];
  }

  /* Stop Xfer */
  ret = USB_EPStopXfer(hpcd->Instance, ep);
 80018e4:	f504 618e 	add.w	r1, r4, #1136	@ 0x470
 80018e8:	6820      	ldr	r0, [r4, #0]
 80018ea:	f003 feab 	bl	8005644 <USB_EPStopXfer>
    if (__HAL_PCD_GET_FLAG(hpcd, USB_OTG_GINTSTS_IISOIXFR))
 80018ee:	6820      	ldr	r0, [r4, #0]
 80018f0:	f003 ffc2 	bl	8005878 <USB_ReadInterrupts>
 80018f4:	02c2      	lsls	r2, r0, #11
 80018f6:	f140 80ab 	bpl.w	8001a50 <HAL_PCD_IRQHandler+0x358>
      for (epnum = 1U; epnum < hpcd->Init.dev_endpoints; epnum++)
 80018fa:	7923      	ldrb	r3, [r4, #4]
 80018fc:	2b01      	cmp	r3, #1
 80018fe:	f240 8089 	bls.w	8001a14 <HAL_PCD_IRQHandler+0x31c>
        if ((hpcd->IN_ep[epnum].type == EP_TYPE_ISOC) &&
 8001902:	f894 203c 	ldrb.w	r2, [r4, #60]	@ 0x3c
        RegVal = USBx_INEP(epnum)->DIEPCTL;
 8001906:	f8d6 1920 	ldr.w	r1, [r6, #2336]	@ 0x920
        if ((hpcd->IN_ep[epnum].type == EP_TYPE_ISOC) &&
 800190a:	2a01      	cmp	r2, #1
 800190c:	f000 8260 	beq.w	8001dd0 <HAL_PCD_IRQHandler+0x6d8>
      for (epnum = 1U; epnum < hpcd->Init.dev_endpoints; epnum++)
 8001910:	2b02      	cmp	r3, #2
 8001912:	d97f      	bls.n	8001a14 <HAL_PCD_IRQHandler+0x31c>
        if ((hpcd->IN_ep[epnum].type == EP_TYPE_ISOC) &&
 8001914:	f894 2060 	ldrb.w	r2, [r4, #96]	@ 0x60
        RegVal = USBx_INEP(epnum)->DIEPCTL;
 8001918:	f8d6 1940 	ldr.w	r1, [r6, #2368]	@ 0x940
        if ((hpcd->IN_ep[epnum].type == EP_TYPE_ISOC) &&
 800191c:	2a01      	cmp	r2, #1
 800191e:	f000 826a 	beq.w	8001df6 <HAL_PCD_IRQHandler+0x6fe>
      for (epnum = 1U; epnum < hpcd->Init.dev_endpoints; epnum++)
 8001922:	2b03      	cmp	r3, #3
 8001924:	d976      	bls.n	8001a14 <HAL_PCD_IRQHandler+0x31c>
        if ((hpcd->IN_ep[epnum].type == EP_TYPE_ISOC) &&
 8001926:	f894 2084 	ldrb.w	r2, [r4, #132]	@ 0x84
        RegVal = USBx_INEP(epnum)->DIEPCTL;
 800192a:	f8d6 1960 	ldr.w	r1, [r6, #2400]	@ 0x960
        if ((hpcd->IN_ep[epnum].type == EP_TYPE_ISOC) &&
 800192e:	2a01      	cmp	r2, #1
 8001930:	f000 826d 	beq.w	8001e0e <HAL_PCD_IRQHandler+0x716>
      for (epnum = 1U; epnum < hpcd->Init.dev_endpoints; epnum++)
 8001934:	2b04      	cmp	r3, #4
 8001936:	d96d      	bls.n	8001a14 <HAL_PCD_IRQHandler+0x31c>
        if ((hpcd->IN_ep[epnum].type == EP_TYPE_ISOC) &&
 8001938:	f894 20a8 	ldrb.w	r2, [r4, #168]	@ 0xa8
        RegVal = USBx_INEP(epnum)->DIEPCTL;
 800193c:	f8d6 1980 	ldr.w	r1, [r6, #2432]	@ 0x980
        if ((hpcd->IN_ep[epnum].type == EP_TYPE_ISOC) &&
 8001940:	2a01      	cmp	r2, #1
 8001942:	f000 8270 	beq.w	8001e26 <HAL_PCD_IRQHandler+0x72e>
      for (epnum = 1U; epnum < hpcd->Init.dev_endpoints; epnum++)
 8001946:	2b05      	cmp	r3, #5
 8001948:	d964      	bls.n	8001a14 <HAL_PCD_IRQHandler+0x31c>
        if ((hpcd->IN_ep[epnum].type == EP_TYPE_ISOC) &&
 800194a:	f894 20cc 	ldrb.w	r2, [r4, #204]	@ 0xcc
        RegVal = USBx_INEP(epnum)->DIEPCTL;
 800194e:	f8d6 19a0 	ldr.w	r1, [r6, #2464]	@ 0x9a0
        if ((hpcd->IN_ep[epnum].type == EP_TYPE_ISOC) &&
 8001952:	2a01      	cmp	r2, #1
 8001954:	f000 833b 	beq.w	8001fce <HAL_PCD_IRQHandler+0x8d6>
      for (epnum = 1U; epnum < hpcd->Init.dev_endpoints; epnum++)
 8001958:	2b06      	cmp	r3, #6
 800195a:	d95b      	bls.n	8001a14 <HAL_PCD_IRQHandler+0x31c>
        if ((hpcd->IN_ep[epnum].type == EP_TYPE_ISOC) &&
 800195c:	f894 20f0 	ldrb.w	r2, [r4, #240]	@ 0xf0
        RegVal = USBx_INEP(epnum)->DIEPCTL;
 8001960:	f8d6 19c0 	ldr.w	r1, [r6, #2496]	@ 0x9c0
        if ((hpcd->IN_ep[epnum].type == EP_TYPE_ISOC) &&
 8001964:	2a01      	cmp	r2, #1
 8001966:	f000 834d 	beq.w	8002004 <HAL_PCD_IRQHandler+0x90c>
      for (epnum = 1U; epnum < hpcd->Init.dev_endpoints; epnum++)
 800196a:	2b07      	cmp	r3, #7
 800196c:	d952      	bls.n	8001a14 <HAL_PCD_IRQHandler+0x31c>
        if ((hpcd->IN_ep[epnum].type == EP_TYPE_ISOC) &&
 800196e:	f894 2114 	ldrb.w	r2, [r4, #276]	@ 0x114
        RegVal = USBx_INEP(epnum)->DIEPCTL;
 8001972:	f8d6 19e0 	ldr.w	r1, [r6, #2528]	@ 0x9e0
        if ((hpcd->IN_ep[epnum].type == EP_TYPE_ISOC) &&
 8001976:	2a01      	cmp	r2, #1
 8001978:	f000 8357 	beq.w	800202a <HAL_PCD_IRQHandler+0x932>
      for (epnum = 1U; epnum < hpcd->Init.dev_endpoints; epnum++)
 800197c:	2b08      	cmp	r3, #8
 800197e:	d949      	bls.n	8001a14 <HAL_PCD_IRQHandler+0x31c>
        if ((hpcd->IN_ep[epnum].type == EP_TYPE_ISOC) &&
 8001980:	f894 2138 	ldrb.w	r2, [r4, #312]	@ 0x138
        RegVal = USBx_INEP(epnum)->DIEPCTL;
 8001984:	f8d6 1a00 	ldr.w	r1, [r6, #2560]	@ 0xa00
        if ((hpcd->IN_ep[epnum].type == EP_TYPE_ISOC) &&
 8001988:	2a01      	cmp	r2, #1
 800198a:	f000 835e 	beq.w	800204a <HAL_PCD_IRQHandler+0x952>
      for (epnum = 1U; epnum < hpcd->Init.dev_endpoints; epnum++)
 800198e:	2b09      	cmp	r3, #9
 8001990:	d940      	bls.n	8001a14 <HAL_PCD_IRQHandler+0x31c>
        if ((hpcd->IN_ep[epnum].type == EP_TYPE_ISOC) &&
 8001992:	f894 215c 	ldrb.w	r2, [r4, #348]	@ 0x15c
        RegVal = USBx_INEP(epnum)->DIEPCTL;
 8001996:	f8d6 1a20 	ldr.w	r1, [r6, #2592]	@ 0xa20
        if ((hpcd->IN_ep[epnum].type == EP_TYPE_ISOC) &&
 800199a:	2a01      	cmp	r2, #1
 800199c:	f000 8369 	beq.w	8002072 <HAL_PCD_IRQHandler+0x97a>
      for (epnum = 1U; epnum < hpcd->Init.dev_endpoints; epnum++)
 80019a0:	2b0a      	cmp	r3, #10
 80019a2:	d937      	bls.n	8001a14 <HAL_PCD_IRQHandler+0x31c>
        if ((hpcd->IN_ep[epnum].type == EP_TYPE_ISOC) &&
 80019a4:	f894 2180 	ldrb.w	r2, [r4, #384]	@ 0x180
        RegVal = USBx_INEP(epnum)->DIEPCTL;
 80019a8:	f8d6 1a40 	ldr.w	r1, [r6, #2624]	@ 0xa40
        if ((hpcd->IN_ep[epnum].type == EP_TYPE_ISOC) &&
 80019ac:	2a01      	cmp	r2, #1
 80019ae:	f000 837c 	beq.w	80020aa <HAL_PCD_IRQHandler+0x9b2>
      for (epnum = 1U; epnum < hpcd->Init.dev_endpoints; epnum++)
 80019b2:	2b0b      	cmp	r3, #11
 80019b4:	d92e      	bls.n	8001a14 <HAL_PCD_IRQHandler+0x31c>
        if ((hpcd->IN_ep[epnum].type == EP_TYPE_ISOC) &&
 80019b6:	f894 21a4 	ldrb.w	r2, [r4, #420]	@ 0x1a4
        RegVal = USBx_INEP(epnum)->DIEPCTL;
 80019ba:	f8d6 1a60 	ldr.w	r1, [r6, #2656]	@ 0xa60
        if ((hpcd->IN_ep[epnum].type == EP_TYPE_ISOC) &&
 80019be:	2a01      	cmp	r2, #1
 80019c0:	f000 838c 	beq.w	80020dc <HAL_PCD_IRQHandler+0x9e4>
      for (epnum = 1U; epnum < hpcd->Init.dev_endpoints; epnum++)
 80019c4:	2b0c      	cmp	r3, #12
 80019c6:	d925      	bls.n	8001a14 <HAL_PCD_IRQHandler+0x31c>
        if ((hpcd->IN_ep[epnum].type == EP_TYPE_ISOC) &&
 80019c8:	f894 21c8 	ldrb.w	r2, [r4, #456]	@ 0x1c8
        RegVal = USBx_INEP(epnum)->DIEPCTL;
 80019cc:	f8d6 1a80 	ldr.w	r1, [r6, #2688]	@ 0xa80
        if ((hpcd->IN_ep[epnum].type == EP_TYPE_ISOC) &&
 80019d0:	2a01      	cmp	r2, #1
 80019d2:	f000 8397 	beq.w	8002104 <HAL_PCD_IRQHandler+0xa0c>
      for (epnum = 1U; epnum < hpcd->Init.dev_endpoints; epnum++)
 80019d6:	2b0d      	cmp	r3, #13
 80019d8:	d91c      	bls.n	8001a14 <HAL_PCD_IRQHandler+0x31c>
        if ((hpcd->IN_ep[epnum].type == EP_TYPE_ISOC) &&
 80019da:	f894 21ec 	ldrb.w	r2, [r4, #492]	@ 0x1ec
        RegVal = USBx_INEP(epnum)->DIEPCTL;
 80019de:	f8d6 1aa0 	ldr.w	r1, [r6, #2720]	@ 0xaa0
        if ((hpcd->IN_ep[epnum].type == EP_TYPE_ISOC) &&
 80019e2:	2a01      	cmp	r2, #1
 80019e4:	f000 83a2 	beq.w	800212c <HAL_PCD_IRQHandler+0xa34>
      for (epnum = 1U; epnum < hpcd->Init.dev_endpoints; epnum++)
 80019e8:	2b0e      	cmp	r3, #14
 80019ea:	d913      	bls.n	8001a14 <HAL_PCD_IRQHandler+0x31c>
        if ((hpcd->IN_ep[epnum].type == EP_TYPE_ISOC) &&
 80019ec:	f894 2210 	ldrb.w	r2, [r4, #528]	@ 0x210
        RegVal = USBx_INEP(epnum)->DIEPCTL;
 80019f0:	f8d6 1ac0 	ldr.w	r1, [r6, #2752]	@ 0xac0
        if ((hpcd->IN_ep[epnum].type == EP_TYPE_ISOC) &&
 80019f4:	2a01      	cmp	r2, #1
 80019f6:	f000 83ad 	beq.w	8002154 <HAL_PCD_IRQHandler+0xa5c>
      for (epnum = 1U; epnum < hpcd->Init.dev_endpoints; epnum++)
 80019fa:	2b0f      	cmp	r3, #15
 80019fc:	d90a      	bls.n	8001a14 <HAL_PCD_IRQHandler+0x31c>
        if ((hpcd->IN_ep[epnum].type == EP_TYPE_ISOC) &&
 80019fe:	f894 2234 	ldrb.w	r2, [r4, #564]	@ 0x234
        RegVal = USBx_INEP(epnum)->DIEPCTL;
 8001a02:	f8d6 1ae0 	ldr.w	r1, [r6, #2784]	@ 0xae0
        if ((hpcd->IN_ep[epnum].type == EP_TYPE_ISOC) &&
 8001a06:	2a01      	cmp	r2, #1
 8001a08:	f000 83b8 	beq.w	800217c <HAL_PCD_IRQHandler+0xa84>
      for (epnum = 1U; epnum < hpcd->Init.dev_endpoints; epnum++)
 8001a0c:	2b10      	cmp	r3, #16
 8001a0e:	d901      	bls.n	8001a14 <HAL_PCD_IRQHandler+0x31c>
        RegVal = USBx_INEP(epnum)->DIEPCTL;
 8001a10:	f8d6 3b00 	ldr.w	r3, [r6, #2816]	@ 0xb00
      __HAL_PCD_CLEAR_FLAG(hpcd, USB_OTG_GINTSTS_IISOIXFR);
 8001a14:	6820      	ldr	r0, [r4, #0]
 8001a16:	6943      	ldr	r3, [r0, #20]
 8001a18:	f403 1380 	and.w	r3, r3, #1048576	@ 0x100000
 8001a1c:	6143      	str	r3, [r0, #20]
    if (__HAL_PCD_GET_FLAG(hpcd, USB_OTG_GINTSTS_PXFR_INCOMPISOOUT))
 8001a1e:	f003 ff2b 	bl	8005878 <USB_ReadInterrupts>
 8001a22:	0283      	lsls	r3, r0, #10
 8001a24:	d421      	bmi.n	8001a6a <HAL_PCD_IRQHandler+0x372>
    if (__HAL_PCD_GET_FLAG(hpcd, USB_OTG_GINTSTS_SRQINT))
 8001a26:	6820      	ldr	r0, [r4, #0]
 8001a28:	f003 ff26 	bl	8005878 <USB_ReadInterrupts>
 8001a2c:	0040      	lsls	r0, r0, #1
 8001a2e:	f100 80c2 	bmi.w	8001bb6 <HAL_PCD_IRQHandler+0x4be>
    if (__HAL_PCD_GET_FLAG(hpcd, USB_OTG_GINTSTS_OTGINT))
 8001a32:	6820      	ldr	r0, [r4, #0]
 8001a34:	f003 ff20 	bl	8005878 <USB_ReadInterrupts>
 8001a38:	0741      	lsls	r1, r0, #29
 8001a3a:	f57f ae66 	bpl.w	800170a <HAL_PCD_IRQHandler+0x12>
      RegVal = hpcd->Instance->GOTGINT;
 8001a3e:	6823      	ldr	r3, [r4, #0]
 8001a40:	685d      	ldr	r5, [r3, #4]
      if ((RegVal & USB_OTG_GOTGINT_SEDET) == USB_OTG_GOTGINT_SEDET)
 8001a42:	076a      	lsls	r2, r5, #29
 8001a44:	f100 8283 	bmi.w	8001f4e <HAL_PCD_IRQHandler+0x856>
      hpcd->Instance->GOTGINT |= RegVal;
 8001a48:	685a      	ldr	r2, [r3, #4]
 8001a4a:	432a      	orrs	r2, r5
 8001a4c:	605a      	str	r2, [r3, #4]
 8001a4e:	e65c      	b.n	800170a <HAL_PCD_IRQHandler+0x12>
      __HAL_PCD_CLEAR_FLAG(hpcd, USB_OTG_GINTSTS_IISOIXFR);
 8001a50:	6820      	ldr	r0, [r4, #0]
 8001a52:	e7e4      	b.n	8001a1e <HAL_PCD_IRQHandler+0x326>
      if ((USBx_DEVICE->DSTS & USB_OTG_DSTS_SUSPSTS) == USB_OTG_DSTS_SUSPSTS)
 8001a54:	9b03      	ldr	r3, [sp, #12]
 8001a56:	689b      	ldr	r3, [r3, #8]
 8001a58:	07da      	lsls	r2, r3, #31
 8001a5a:	f100 8274 	bmi.w	8001f46 <HAL_PCD_IRQHandler+0x84e>
      __HAL_PCD_CLEAR_FLAG(hpcd, USB_OTG_GINTSTS_USBSUSP);
 8001a5e:	6820      	ldr	r0, [r4, #0]
 8001a60:	6943      	ldr	r3, [r0, #20]
 8001a62:	f403 6300 	and.w	r3, r3, #2048	@ 0x800
 8001a66:	6143      	str	r3, [r0, #20]
 8001a68:	e69e      	b.n	80017a8 <HAL_PCD_IRQHandler+0xb0>
      for (epnum = 1U; epnum < hpcd->Init.dev_endpoints; epnum++)
 8001a6a:	f894 c004 	ldrb.w	ip, [r4, #4]
 8001a6e:	f1bc 0f01 	cmp.w	ip, #1
 8001a72:	d924      	bls.n	8001abe <HAL_PCD_IRQHandler+0x3c6>
 8001a74:	f506 6232 	add.w	r2, r6, #2848	@ 0xb20
 8001a78:	4623      	mov	r3, r4
 8001a7a:	2101      	movs	r1, #1
 8001a7c:	e004      	b.n	8001a88 <HAL_PCD_IRQHandler+0x390>
 8001a7e:	3101      	adds	r1, #1
 8001a80:	3220      	adds	r2, #32
 8001a82:	3324      	adds	r3, #36	@ 0x24
 8001a84:	4561      	cmp	r1, ip
 8001a86:	d01a      	beq.n	8001abe <HAL_PCD_IRQHandler+0x3c6>
        if ((hpcd->OUT_ep[epnum].type == EP_TYPE_ISOC) &&
 8001a88:	f893 027c 	ldrb.w	r0, [r3, #636]	@ 0x27c
        RegVal = USBx_OUTEP(epnum)->DOEPCTL;
 8001a8c:	6815      	ldr	r5, [r2, #0]
        if ((hpcd->OUT_ep[epnum].type == EP_TYPE_ISOC) &&
 8001a8e:	2801      	cmp	r0, #1
 8001a90:	d1f5      	bne.n	8001a7e <HAL_PCD_IRQHandler+0x386>
 8001a92:	2d00      	cmp	r5, #0
 8001a94:	daf3      	bge.n	8001a7e <HAL_PCD_IRQHandler+0x386>
            (((RegVal & (0x1U << 16)) >> 16U) == (hpcd->FrameNumber & 0x1U)))
 8001a96:	f8d4 74d4 	ldr.w	r7, [r4, #1236]	@ 0x4d4
 8001a9a:	ea87 4715 	eor.w	r7, r7, r5, lsr #16
            ((RegVal & USB_OTG_DOEPCTL_EPENA) == USB_OTG_DOEPCTL_EPENA) &&
 8001a9e:	07ff      	lsls	r7, r7, #31
 8001aa0:	d4ed      	bmi.n	8001a7e <HAL_PCD_IRQHandler+0x386>
          hpcd->OUT_ep[epnum].is_iso_incomplete = 1U;
 8001aa2:	f883 027b 	strb.w	r0, [r3, #635]	@ 0x27b
          USBx->GINTMSK |= USB_OTG_GINTMSK_GONAKEFFM;
 8001aa6:	69b0      	ldr	r0, [r6, #24]
 8001aa8:	f040 0080 	orr.w	r0, r0, #128	@ 0x80
 8001aac:	61b0      	str	r0, [r6, #24]
          if ((USBx->GINTSTS & USB_OTG_GINTSTS_BOUTNAKEFF) == 0U)
 8001aae:	6970      	ldr	r0, [r6, #20]
 8001ab0:	0605      	lsls	r5, r0, #24
 8001ab2:	d4e4      	bmi.n	8001a7e <HAL_PCD_IRQHandler+0x386>
            USBx_DEVICE->DCTL |= USB_OTG_DCTL_SGONAK;
 8001ab4:	9a03      	ldr	r2, [sp, #12]
 8001ab6:	6853      	ldr	r3, [r2, #4]
 8001ab8:	f443 7300 	orr.w	r3, r3, #512	@ 0x200
 8001abc:	6053      	str	r3, [r2, #4]
      __HAL_PCD_CLEAR_FLAG(hpcd, USB_OTG_GINTSTS_PXFR_INCOMPISOOUT);
 8001abe:	6820      	ldr	r0, [r4, #0]
 8001ac0:	6943      	ldr	r3, [r0, #20]
 8001ac2:	f403 1300 	and.w	r3, r3, #2097152	@ 0x200000
 8001ac6:	6143      	str	r3, [r0, #20]
 8001ac8:	e7ae      	b.n	8001a28 <HAL_PCD_IRQHandler+0x330>
      USBx_DEVICE->DCTL &= ~USB_OTG_DCTL_RWUSIG;
 8001aca:	9a03      	ldr	r2, [sp, #12]
 8001acc:	6853      	ldr	r3, [r2, #4]
 8001ace:	f023 0301 	bic.w	r3, r3, #1
 8001ad2:	6053      	str	r3, [r2, #4]
      if (hpcd->LPM_State == LPM_L1)
 8001ad4:	f894 34cc 	ldrb.w	r3, [r4, #1228]	@ 0x4cc
 8001ad8:	2b01      	cmp	r3, #1
 8001ada:	f000 8185 	beq.w	8001de8 <HAL_PCD_IRQHandler+0x6f0>
        HAL_PCD_ResumeCallback(hpcd);
 8001ade:	4620      	mov	r0, r4
 8001ae0:	f004 ff44 	bl	800696c <HAL_PCD_ResumeCallback>
      __HAL_PCD_CLEAR_FLAG(hpcd, USB_OTG_GINTSTS_WKUINT);
 8001ae4:	6820      	ldr	r0, [r4, #0]
 8001ae6:	6943      	ldr	r3, [r0, #20]
 8001ae8:	f003 4300 	and.w	r3, r3, #2147483648	@ 0x80000000
 8001aec:	6143      	str	r3, [r0, #20]
 8001aee:	e655      	b.n	800179c <HAL_PCD_IRQHandler+0xa4>
      (void)USB_ActivateSetup(hpcd->Instance);
 8001af0:	f003 fef4 	bl	80058dc <USB_ActivateSetup>
      hpcd->Init.speed = USB_GetDevSpeed(hpcd->Instance);
 8001af4:	6820      	ldr	r0, [r4, #0]
 8001af6:	f003 fbcf 	bl	8005298 <USB_GetDevSpeed>
      (void)USB_SetTurnaroundTime(hpcd->Instance,
 8001afa:	6825      	ldr	r5, [r4, #0]
      hpcd->Init.speed = USB_GetDevSpeed(hpcd->Instance);
 8001afc:	71e0      	strb	r0, [r4, #7]
      (void)USB_SetTurnaroundTime(hpcd->Instance,
 8001afe:	f001 fa89 	bl	8003014 <HAL_RCC_GetHCLKFreq>
 8001b02:	79e2      	ldrb	r2, [r4, #7]
 8001b04:	4601      	mov	r1, r0
 8001b06:	4628      	mov	r0, r5
 8001b08:	f003 f9a8 	bl	8004e5c <USB_SetTurnaroundTime>
      HAL_PCD_ResetCallback(hpcd);
 8001b0c:	4620      	mov	r0, r4
 8001b0e:	f004 feff 	bl	8006910 <HAL_PCD_ResetCallback>
      __HAL_PCD_CLEAR_FLAG(hpcd, USB_OTG_GINTSTS_ENUMDNE);
 8001b12:	6820      	ldr	r0, [r4, #0]
 8001b14:	6943      	ldr	r3, [r0, #20]
 8001b16:	f403 5300 	and.w	r3, r3, #8192	@ 0x2000
 8001b1a:	6143      	str	r3, [r0, #20]
 8001b1c:	e66b      	b.n	80017f6 <HAL_PCD_IRQHandler+0xfe>
      USBx_DEVICE->DCTL &= ~USB_OTG_DCTL_RWUSIG;
 8001b1e:	9a03      	ldr	r2, [sp, #12]
      (void)USB_FlushTxFifo(hpcd->Instance, 0x10U);
 8001b20:	2110      	movs	r1, #16
 8001b22:	6820      	ldr	r0, [r4, #0]
      USBx_DEVICE->DCTL &= ~USB_OTG_DCTL_RWUSIG;
 8001b24:	6853      	ldr	r3, [r2, #4]
 8001b26:	f023 0301 	bic.w	r3, r3, #1
 8001b2a:	6053      	str	r3, [r2, #4]
      (void)USB_FlushTxFifo(hpcd->Instance, 0x10U);
 8001b2c:	f003 fb8c 	bl	8005248 <USB_FlushTxFifo>
      for (i = 0U; i < hpcd->Init.dev_endpoints; i++)
 8001b30:	7920      	ldrb	r0, [r4, #4]
 8001b32:	b1d8      	cbz	r0, 8001b6c <HAL_PCD_IRQHandler+0x474>
 8001b34:	f506 6310 	add.w	r3, r6, #2304	@ 0x900
        USBx_INEP(i)->DIEPINT = 0xFB7FU;
 8001b38:	f64f 317f 	movw	r1, #64383	@ 0xfb7f
 8001b3c:	6099      	str	r1, [r3, #8]
      for (i = 0U; i < hpcd->Init.dev_endpoints; i++)
 8001b3e:	3501      	adds	r5, #1
        USBx_INEP(i)->DIEPCTL &= ~USB_OTG_DIEPCTL_STALL;
 8001b40:	681a      	ldr	r2, [r3, #0]
      for (i = 0U; i < hpcd->Init.dev_endpoints; i++)
 8001b42:	3320      	adds	r3, #32
 8001b44:	4285      	cmp	r5, r0
        USBx_INEP(i)->DIEPCTL &= ~USB_OTG_DIEPCTL_STALL;
 8001b46:	f422 1200 	bic.w	r2, r2, #2097152	@ 0x200000
 8001b4a:	f843 2c20 	str.w	r2, [r3, #-32]
        USBx_OUTEP(i)->DOEPINT = 0xFB7FU;
 8001b4e:	f8c3 11e8 	str.w	r1, [r3, #488]	@ 0x1e8
        USBx_OUTEP(i)->DOEPCTL &= ~USB_OTG_DOEPCTL_STALL;
 8001b52:	f8d3 21e0 	ldr.w	r2, [r3, #480]	@ 0x1e0
 8001b56:	f422 1200 	bic.w	r2, r2, #2097152	@ 0x200000
 8001b5a:	f8c3 21e0 	str.w	r2, [r3, #480]	@ 0x1e0
        USBx_OUTEP(i)->DOEPCTL |= USB_OTG_DOEPCTL_SNAK;
 8001b5e:	f8d3 21e0 	ldr.w	r2, [r3, #480]	@ 0x1e0
 8001b62:	f042 6200 	orr.w	r2, r2, #134217728	@ 0x8000000
 8001b66:	f8c3 21e0 	str.w	r2, [r3, #480]	@ 0x1e0
      for (i = 0U; i < hpcd->Init.dev_endpoints; i++)
 8001b6a:	d1e7      	bne.n	8001b3c <HAL_PCD_IRQHandler+0x444>
      USBx_DEVICE->DAINTMSK |= 0x10001U;
 8001b6c:	9a03      	ldr	r2, [sp, #12]
 8001b6e:	69d3      	ldr	r3, [r2, #28]
 8001b70:	f043 1301 	orr.w	r3, r3, #65537	@ 0x10001
 8001b74:	61d3      	str	r3, [r2, #28]
      if (hpcd->Init.use_dedicated_ep1 != 0U)
 8001b76:	7be3      	ldrb	r3, [r4, #15]
 8001b78:	2b00      	cmp	r3, #0
 8001b7a:	f000 811e 	beq.w	8001dba <HAL_PCD_IRQHandler+0x6c2>
        USBx_DEVICE->DOUTEP1MSK |= USB_OTG_DOEPMSK_STUPM |
 8001b7e:	f8d2 3084 	ldr.w	r3, [r2, #132]	@ 0x84
 8001b82:	f043 030b 	orr.w	r3, r3, #11
 8001b86:	f8c2 3084 	str.w	r3, [r2, #132]	@ 0x84
        USBx_DEVICE->DINEP1MSK |= USB_OTG_DIEPMSK_TOM |
 8001b8a:	6c53      	ldr	r3, [r2, #68]	@ 0x44
 8001b8c:	f043 030b 	orr.w	r3, r3, #11
 8001b90:	6453      	str	r3, [r2, #68]	@ 0x44
      USBx_DEVICE->DCFG &= ~USB_OTG_DCFG_DAD;
 8001b92:	f8d6 3800 	ldr.w	r3, [r6, #2048]	@ 0x800
      (void)USB_EP0_OutStart(hpcd->Instance, (uint8_t)hpcd->Init.dma_enable,
 8001b96:	f204 429c 	addw	r2, r4, #1180	@ 0x49c
 8001b9a:	6820      	ldr	r0, [r4, #0]
      USBx_DEVICE->DCFG &= ~USB_OTG_DCFG_DAD;
 8001b9c:	f423 63fe 	bic.w	r3, r3, #2032	@ 0x7f0
 8001ba0:	f8c6 3800 	str.w	r3, [r6, #2048]	@ 0x800
      (void)USB_EP0_OutStart(hpcd->Instance, (uint8_t)hpcd->Init.dma_enable,
 8001ba4:	79a1      	ldrb	r1, [r4, #6]
 8001ba6:	f003 feaf 	bl	8005908 <USB_EP0_OutStart>
      __HAL_PCD_CLEAR_FLAG(hpcd, USB_OTG_GINTSTS_USBRST);
 8001baa:	6820      	ldr	r0, [r4, #0]
 8001bac:	6943      	ldr	r3, [r0, #20]
 8001bae:	f403 5380 	and.w	r3, r3, #4096	@ 0x1000
 8001bb2:	6143      	str	r3, [r0, #20]
 8001bb4:	e618      	b.n	80017e8 <HAL_PCD_IRQHandler+0xf0>
      HAL_PCD_ConnectCallback(hpcd);
 8001bb6:	4620      	mov	r0, r4
 8001bb8:	f004 fee4 	bl	8006984 <HAL_PCD_ConnectCallback>
      __HAL_PCD_CLEAR_FLAG(hpcd, USB_OTG_GINTSTS_SRQINT);
 8001bbc:	6820      	ldr	r0, [r4, #0]
 8001bbe:	6943      	ldr	r3, [r0, #20]
 8001bc0:	f003 4380 	and.w	r3, r3, #1073741824	@ 0x40000000
 8001bc4:	6143      	str	r3, [r0, #20]
 8001bc6:	e735      	b.n	8001a34 <HAL_PCD_IRQHandler+0x33c>
      HAL_PCD_SOFCallback(hpcd);
 8001bc8:	4620      	mov	r0, r4
 8001bca:	f004 fe9d 	bl	8006908 <HAL_PCD_SOFCallback>
      __HAL_PCD_CLEAR_FLAG(hpcd, USB_OTG_GINTSTS_SOF);
 8001bce:	6820      	ldr	r0, [r4, #0]
 8001bd0:	6943      	ldr	r3, [r0, #20]
 8001bd2:	f003 0308 	and.w	r3, r3, #8
 8001bd6:	6143      	str	r3, [r0, #20]
 8001bd8:	e613      	b.n	8001802 <HAL_PCD_IRQHandler+0x10a>
      ep_intr = USB_ReadDevAllInEpInterrupt(hpcd->Instance);
 8001bda:	6820      	ldr	r0, [r4, #0]
 8001bdc:	f003 fe58 	bl	8005890 <USB_ReadDevAllInEpInterrupt>
      while (ep_intr != 0U)
 8001be0:	4681      	mov	r9, r0
    if (__HAL_PCD_GET_FLAG(hpcd, USB_OTG_GINTSTS_WKUINT))
 8001be2:	6820      	ldr	r0, [r4, #0]
      while (ep_intr != 0U)
 8001be4:	f1b9 0f00 	cmp.w	r9, #0
 8001be8:	f43f add2 	beq.w	8001790 <HAL_PCD_IRQHandler+0x98>
      epnum = 0U;
 8001bec:	f04f 0a00 	mov.w	sl, #0
            CLEAR_IN_EP_INTR(epnum, USB_OTG_DIEPINT_TOC);
 8001bf0:	9505      	str	r5, [sp, #20]
 8001bf2:	46a0      	mov	r8, r4
 8001bf4:	f506 6710 	add.w	r7, r6, #2304	@ 0x900
 8001bf8:	46d3      	mov	fp, sl
 8001bfa:	4605      	mov	r5, r0
 8001bfc:	9604      	str	r6, [sp, #16]
 8001bfe:	e009      	b.n	8001c14 <HAL_PCD_IRQHandler+0x51c>
      while (ep_intr != 0U)
 8001c00:	ea5f 0959 	movs.w	r9, r9, lsr #1
        epnum++;
 8001c04:	f10b 0b01 	add.w	fp, fp, #1
      while (ep_intr != 0U)
 8001c08:	f108 0824 	add.w	r8, r8, #36	@ 0x24
 8001c0c:	f107 0720 	add.w	r7, r7, #32
 8001c10:	f000 8138 	beq.w	8001e84 <HAL_PCD_IRQHandler+0x78c>
        if ((ep_intr & 0x1U) != 0U) /* In ITR */
 8001c14:	f019 0f01 	tst.w	r9, #1
 8001c18:	d0f2      	beq.n	8001c00 <HAL_PCD_IRQHandler+0x508>
          epint = USB_ReadDevInEPInterrupt(hpcd->Instance, (uint8_t)epnum);
 8001c1a:	fa5f fa8b 	uxtb.w	sl, fp
 8001c1e:	4628      	mov	r0, r5
 8001c20:	4651      	mov	r1, sl
 8001c22:	f003 fe47 	bl	80058b4 <USB_ReadDevInEPInterrupt>
 8001c26:	4606      	mov	r6, r0
          if ((epint & USB_OTG_DIEPINT_XFRC) == USB_OTG_DIEPINT_XFRC)
 8001c28:	07f0      	lsls	r0, r6, #31
 8001c2a:	d512      	bpl.n	8001c52 <HAL_PCD_IRQHandler+0x55a>
            fifoemptymsk = (uint32_t)(0x1UL << (epnum & EP_ADDR_MSK));
 8001c2c:	2001      	movs	r0, #1
            USBx_DEVICE->DIEPEMPMSK &= ~fifoemptymsk;
 8001c2e:	9b03      	ldr	r3, [sp, #12]
            fifoemptymsk = (uint32_t)(0x1UL << (epnum & EP_ADDR_MSK));
 8001c30:	f00b 010f 	and.w	r1, fp, #15
            USBx_DEVICE->DIEPEMPMSK &= ~fifoemptymsk;
 8001c34:	6b5a      	ldr	r2, [r3, #52]	@ 0x34
            fifoemptymsk = (uint32_t)(0x1UL << (epnum & EP_ADDR_MSK));
 8001c36:	fa00 f101 	lsl.w	r1, r0, r1
            USBx_DEVICE->DIEPEMPMSK &= ~fifoemptymsk;
 8001c3a:	ea22 0201 	bic.w	r2, r2, r1
 8001c3e:	635a      	str	r2, [r3, #52]	@ 0x34
            CLEAR_IN_EP_INTR(epnum, USB_OTG_DIEPINT_XFRC);
 8001c40:	60b8      	str	r0, [r7, #8]
            if (hpcd->Init.dma_enable == 1U)
 8001c42:	79a1      	ldrb	r1, [r4, #6]
 8001c44:	4281      	cmp	r1, r0
 8001c46:	f000 8187 	beq.w	8001f58 <HAL_PCD_IRQHandler+0x860>
            HAL_PCD_DataInStageCallback(hpcd, (uint8_t)epnum);
 8001c4a:	4651      	mov	r1, sl
 8001c4c:	4620      	mov	r0, r4
 8001c4e:	f004 fe51 	bl	80068f4 <HAL_PCD_DataInStageCallback>
          if ((epint & USB_OTG_DIEPINT_TOC) == USB_OTG_DIEPINT_TOC)
 8001c52:	0731      	lsls	r1, r6, #28
 8001c54:	d501      	bpl.n	8001c5a <HAL_PCD_IRQHandler+0x562>
            CLEAR_IN_EP_INTR(epnum, USB_OTG_DIEPINT_TOC);
 8001c56:	2308      	movs	r3, #8
 8001c58:	60bb      	str	r3, [r7, #8]
          if ((epint & USB_OTG_DIEPINT_ITTXFE) == USB_OTG_DIEPINT_ITTXFE)
 8001c5a:	06f2      	lsls	r2, r6, #27
 8001c5c:	d501      	bpl.n	8001c62 <HAL_PCD_IRQHandler+0x56a>
            CLEAR_IN_EP_INTR(epnum, USB_OTG_DIEPINT_ITTXFE);
 8001c5e:	2310      	movs	r3, #16
 8001c60:	60bb      	str	r3, [r7, #8]
          if ((epint & USB_OTG_DIEPINT_INEPNE) == USB_OTG_DIEPINT_INEPNE)
 8001c62:	0673      	lsls	r3, r6, #25
 8001c64:	d501      	bpl.n	8001c6a <HAL_PCD_IRQHandler+0x572>
            CLEAR_IN_EP_INTR(epnum, USB_OTG_DIEPINT_INEPNE);
 8001c66:	2340      	movs	r3, #64	@ 0x40
 8001c68:	60bb      	str	r3, [r7, #8]
          if ((epint & USB_OTG_DIEPINT_EPDISD) == USB_OTG_DIEPINT_EPDISD)
 8001c6a:	07b5      	lsls	r5, r6, #30
 8001c6c:	f100 8142 	bmi.w	8001ef4 <HAL_PCD_IRQHandler+0x7fc>
          if ((epint & USB_OTG_DIEPINT_TXFE) == USB_OTG_DIEPINT_TXFE)
 8001c70:	0630      	lsls	r0, r6, #24
  * @param  epnum endpoint number
  * @retval HAL status
  */
static HAL_StatusTypeDef PCD_WriteEmptyTxFifo(PCD_HandleTypeDef *hpcd, uint32_t epnum)
{
  USB_OTG_GlobalTypeDef *USBx = hpcd->Instance;
 8001c72:	6825      	ldr	r5, [r4, #0]
          if ((epint & USB_OTG_DIEPINT_TXFE) == USB_OTG_DIEPINT_TXFE)
 8001c74:	d5c4      	bpl.n	8001c00 <HAL_PCD_IRQHandler+0x508>
  uint32_t len32b;
  uint32_t fifoemptymsk;

  ep = &hpcd->IN_ep[epnum];

  if (ep->xfer_count > ep->xfer_len)
 8001c76:	e9d8 2309 	ldrd	r2, r3, [r8, #36]	@ 0x24
 8001c7a:	4293      	cmp	r3, r2
 8001c7c:	d8c0      	bhi.n	8001c00 <HAL_PCD_IRQHandler+0x508>
  {
    return HAL_ERROR;
  }

  len = ep->xfer_len - ep->xfer_count;
 8001c7e:	eba2 0e03 	sub.w	lr, r2, r3
  if (len > ep->maxpacket)
  {
    len = ep->maxpacket;
  }

  len32b = (len + 3U) / 4U;
 8001c82:	f8d8 101c 	ldr.w	r1, [r8, #28]

  while (((USBx_INEP(epnum)->DTXFSTS & USB_OTG_DTXFSTS_INEPTFSAV) >= len32b) &&
 8001c86:	f505 6c10 	add.w	ip, r5, #2304	@ 0x900
  uint32_t USBx_BASE = (uint32_t)USBx;
 8001c8a:	9507      	str	r5, [sp, #28]
  len32b = (len + 3U) / 4U;
 8001c8c:	458e      	cmp	lr, r1
  while (((USBx_INEP(epnum)->DTXFSTS & USB_OTG_DTXFSTS_INEPTFSAV) >= len32b) &&
 8001c8e:	eb0c 164b 	add.w	r6, ip, fp, lsl #5
  len32b = (len + 3U) / 4U;
 8001c92:	bf28      	it	cs
 8001c94:	468e      	movcs	lr, r1
  while (((USBx_INEP(epnum)->DTXFSTS & USB_OTG_DTXFSTS_INEPTFSAV) >= len32b) &&
 8001c96:	69b0      	ldr	r0, [r6, #24]
  len32b = (len + 3U) / 4U;
 8001c98:	f10e 0103 	add.w	r1, lr, #3
  while (((USBx_INEP(epnum)->DTXFSTS & USB_OTG_DTXFSTS_INEPTFSAV) >= len32b) &&
 8001c9c:	fa1f fe80 	uxth.w	lr, r0
         (ep->xfer_count < ep->xfer_len) && (ep->xfer_len != 0U))
 8001ca0:	ebbe 0f91 	cmp.w	lr, r1, lsr #2
 8001ca4:	f0c0 8181 	bcc.w	8001faa <HAL_PCD_IRQHandler+0x8b2>
 8001ca8:	9706      	str	r7, [sp, #24]
 8001caa:	4617      	mov	r7, r2
 8001cac:	e021      	b.n	8001cf2 <HAL_PCD_IRQHandler+0x5fa>
  {
    /* Write the FIFO */
    len = ep->xfer_len - ep->xfer_count;
 8001cae:	1aff      	subs	r7, r7, r3
 8001cb0:	f8d8 301c 	ldr.w	r3, [r8, #28]
    {
      len = ep->maxpacket;
    }
    len32b = (len + 3U) / 4U;

    (void)USB_WritePacket(USBx, ep->xfer_buff, (uint8_t)epnum, (uint16_t)len,
 8001cb4:	f8d8 1020 	ldr.w	r1, [r8, #32]
 8001cb8:	4652      	mov	r2, sl
 8001cba:	429f      	cmp	r7, r3
 8001cbc:	4628      	mov	r0, r5
 8001cbe:	bf28      	it	cs
 8001cc0:	461f      	movcs	r7, r3
 8001cc2:	79a3      	ldrb	r3, [r4, #6]
 8001cc4:	9300      	str	r3, [sp, #0]
 8001cc6:	b2bb      	uxth	r3, r7
 8001cc8:	f003 fd06 	bl	80056d8 <USB_WritePacket>
                          (uint8_t)hpcd->Init.dma_enable);

    ep->xfer_buff  += len;
 8001ccc:	f8d8 3020 	ldr.w	r3, [r8, #32]
  while (((USBx_INEP(epnum)->DTXFSTS & USB_OTG_DTXFSTS_INEPTFSAV) >= len32b) &&
 8001cd0:	69b2      	ldr	r2, [r6, #24]
    ep->xfer_buff  += len;
 8001cd2:	443b      	add	r3, r7
  while (((USBx_INEP(epnum)->DTXFSTS & USB_OTG_DTXFSTS_INEPTFSAV) >= len32b) &&
 8001cd4:	b292      	uxth	r2, r2
    ep->xfer_buff  += len;
 8001cd6:	f8c8 3020 	str.w	r3, [r8, #32]
    ep->xfer_count += len;
 8001cda:	f8d8 3028 	ldr.w	r3, [r8, #40]	@ 0x28
 8001cde:	443b      	add	r3, r7
    len32b = (len + 3U) / 4U;
 8001ce0:	3703      	adds	r7, #3
         (ep->xfer_count < ep->xfer_len) && (ep->xfer_len != 0U))
 8001ce2:	ebb2 0f97 	cmp.w	r2, r7, lsr #2
    ep->xfer_count += len;
 8001ce6:	f8c8 3028 	str.w	r3, [r8, #40]	@ 0x28
         (ep->xfer_count < ep->xfer_len) && (ep->xfer_len != 0U))
 8001cea:	f0c0 815a 	bcc.w	8001fa2 <HAL_PCD_IRQHandler+0x8aa>
  }

  if (ep->xfer_len <= ep->xfer_count)
 8001cee:	f8d8 7024 	ldr.w	r7, [r8, #36]	@ 0x24
  while (((USBx_INEP(epnum)->DTXFSTS & USB_OTG_DTXFSTS_INEPTFSAV) >= len32b) &&
 8001cf2:	429f      	cmp	r7, r3
 8001cf4:	d8db      	bhi.n	8001cae <HAL_PCD_IRQHandler+0x5b6>
    if (__HAL_PCD_GET_FLAG(hpcd, USB_OTG_GINTSTS_WKUINT))
 8001cf6:	9f06      	ldr	r7, [sp, #24]
 8001cf8:	6825      	ldr	r5, [r4, #0]
  {
    fifoemptymsk = (uint32_t)(0x1UL << (epnum & EP_ADDR_MSK));
    USBx_DEVICE->DIEPEMPMSK &= ~fifoemptymsk;
 8001cfa:	9b07      	ldr	r3, [sp, #28]
    fifoemptymsk = (uint32_t)(0x1UL << (epnum & EP_ADDR_MSK));
 8001cfc:	2201      	movs	r2, #1
    USBx_DEVICE->DIEPEMPMSK &= ~fifoemptymsk;
 8001cfe:	f503 6100 	add.w	r1, r3, #2048	@ 0x800
    fifoemptymsk = (uint32_t)(0x1UL << (epnum & EP_ADDR_MSK));
 8001d02:	f00b 030f 	and.w	r3, fp, #15
 8001d06:	409a      	lsls	r2, r3
    USBx_DEVICE->DIEPEMPMSK &= ~fifoemptymsk;
 8001d08:	6b4b      	ldr	r3, [r1, #52]	@ 0x34
 8001d0a:	ea23 0302 	bic.w	r3, r3, r2
 8001d0e:	634b      	str	r3, [r1, #52]	@ 0x34
 8001d10:	e776      	b.n	8001c00 <HAL_PCD_IRQHandler+0x508>
      ep_intr = USB_ReadDevAllOutEpInterrupt(hpcd->Instance);
 8001d12:	f003 fdb5 	bl	8005880 <USB_ReadDevAllOutEpInterrupt>
      while (ep_intr != 0U)
 8001d16:	4607      	mov	r7, r0
 8001d18:	2800      	cmp	r0, #0
 8001d1a:	f000 80b1 	beq.w	8001e80 <HAL_PCD_IRQHandler+0x788>
            CLEAR_OUT_EP_INTR(epnum, USB_OTG_DOEPINT_EPDISD);
 8001d1e:	9504      	str	r5, [sp, #16]
 8001d20:	f506 6830 	add.w	r8, r6, #2816	@ 0xb00
 8001d24:	46a3      	mov	fp, r4
      epnum = 0U;
 8001d26:	f04f 0a00 	mov.w	sl, #0
 8001d2a:	6820      	ldr	r0, [r4, #0]
            CLEAR_OUT_EP_INTR(epnum, USB_OTG_DOEPINT_EPDISD);
 8001d2c:	4625      	mov	r5, r4
 8001d2e:	e008      	b.n	8001d42 <HAL_PCD_IRQHandler+0x64a>
      while (ep_intr != 0U)
 8001d30:	087f      	lsrs	r7, r7, #1
        epnum++;
 8001d32:	f10a 0a01 	add.w	sl, sl, #1
      while (ep_intr != 0U)
 8001d36:	f108 0820 	add.w	r8, r8, #32
 8001d3a:	f10b 0b24 	add.w	fp, fp, #36	@ 0x24
 8001d3e:	f000 80a5 	beq.w	8001e8c <HAL_PCD_IRQHandler+0x794>
        if ((ep_intr & 0x1U) != 0U)
 8001d42:	07fc      	lsls	r4, r7, #31
 8001d44:	d5f4      	bpl.n	8001d30 <HAL_PCD_IRQHandler+0x638>
          epint = USB_ReadDevOutEPInterrupt(hpcd->Instance, (uint8_t)epnum);
 8001d46:	fa5f f48a 	uxtb.w	r4, sl
 8001d4a:	4621      	mov	r1, r4
 8001d4c:	f003 fda8 	bl	80058a0 <USB_ReadDevOutEPInterrupt>
          if ((epint & USB_OTG_DOEPINT_XFRC) == USB_OTG_DOEPINT_XFRC)
 8001d50:	f010 0f01 	tst.w	r0, #1
          epint = USB_ReadDevOutEPInterrupt(hpcd->Instance, (uint8_t)epnum);
 8001d54:	4681      	mov	r9, r0
          if ((epint & USB_OTG_DOEPINT_XFRC) == USB_OTG_DOEPINT_XFRC)
 8001d56:	f040 809c 	bne.w	8001e92 <HAL_PCD_IRQHandler+0x79a>
          if ((epint & USB_OTG_DOEPINT_STUP) == USB_OTG_DOEPINT_STUP)
 8001d5a:	f019 0f08 	tst.w	r9, #8
 8001d5e:	f040 80b8 	bne.w	8001ed2 <HAL_PCD_IRQHandler+0x7da>
          if ((epint & USB_OTG_DOEPINT_OTEPDIS) == USB_OTG_DOEPINT_OTEPDIS)
 8001d62:	f019 0f10 	tst.w	r9, #16
 8001d66:	d002      	beq.n	8001d6e <HAL_PCD_IRQHandler+0x676>
            CLEAR_OUT_EP_INTR(epnum, USB_OTG_DOEPINT_OTEPDIS);
 8001d68:	2210      	movs	r2, #16
 8001d6a:	f8c8 2008 	str.w	r2, [r8, #8]
          if ((epint & USB_OTG_DOEPINT_EPDISD) == USB_OTG_DOEPINT_EPDISD)
 8001d6e:	f019 0f02 	tst.w	r9, #2
 8001d72:	d00f      	beq.n	8001d94 <HAL_PCD_IRQHandler+0x69c>
            if ((USBx->GINTSTS & USB_OTG_GINTSTS_BOUTNAKEFF) == USB_OTG_GINTSTS_BOUTNAKEFF)
 8001d74:	6972      	ldr	r2, [r6, #20]
 8001d76:	0613      	lsls	r3, r2, #24
 8001d78:	d504      	bpl.n	8001d84 <HAL_PCD_IRQHandler+0x68c>
              USBx_DEVICE->DCTL |= USB_OTG_DCTL_CGONAK;
 8001d7a:	9b03      	ldr	r3, [sp, #12]
 8001d7c:	685a      	ldr	r2, [r3, #4]
 8001d7e:	f442 6280 	orr.w	r2, r2, #1024	@ 0x400
 8001d82:	605a      	str	r2, [r3, #4]
            if (ep->is_iso_incomplete == 1U)
 8001d84:	f89b 2257 	ldrb.w	r2, [fp, #599]	@ 0x257
 8001d88:	2a01      	cmp	r2, #1
 8001d8a:	f000 8133 	beq.w	8001ff4 <HAL_PCD_IRQHandler+0x8fc>
            CLEAR_OUT_EP_INTR(epnum, USB_OTG_DOEPINT_EPDISD);
 8001d8e:	2302      	movs	r3, #2
 8001d90:	f8c8 3008 	str.w	r3, [r8, #8]
          if ((epint & USB_OTG_DOEPINT_OTEPSPR) == USB_OTG_DOEPINT_OTEPSPR)
 8001d94:	f019 0f20 	tst.w	r9, #32
 8001d98:	d002      	beq.n	8001da0 <HAL_PCD_IRQHandler+0x6a8>
            CLEAR_OUT_EP_INTR(epnum, USB_OTG_DOEPINT_OTEPSPR);
 8001d9a:	2320      	movs	r3, #32
 8001d9c:	f8c8 3008 	str.w	r3, [r8, #8]
          if ((epint & USB_OTG_DOEPINT_NAK) == USB_OTG_DOEPINT_NAK)
 8001da0:	f419 5f00 	tst.w	r9, #8192	@ 0x2000
 8001da4:	d003      	beq.n	8001dae <HAL_PCD_IRQHandler+0x6b6>
            CLEAR_OUT_EP_INTR(epnum, USB_OTG_DOEPINT_NAK);
 8001da6:	f44f 5300 	mov.w	r3, #8192	@ 0x2000
 8001daa:	f8c8 3008 	str.w	r3, [r8, #8]
 8001dae:	6828      	ldr	r0, [r5, #0]
 8001db0:	e7be      	b.n	8001d30 <HAL_PCD_IRQHandler+0x638>
        HAL_PCD_SuspendCallback(hpcd);
 8001db2:	4620      	mov	r0, r4
 8001db4:	f004 fdc2 	bl	800693c <HAL_PCD_SuspendCallback>
 8001db8:	e50f      	b.n	80017da <HAL_PCD_IRQHandler+0xe2>
        USBx_DEVICE->DOEPMSK |= USB_OTG_DOEPMSK_STUPM |
 8001dba:	4611      	mov	r1, r2
 8001dbc:	f242 032b 	movw	r3, #8235	@ 0x202b
 8001dc0:	6952      	ldr	r2, [r2, #20]
 8001dc2:	4313      	orrs	r3, r2
 8001dc4:	614b      	str	r3, [r1, #20]
        USBx_DEVICE->DIEPMSK |= USB_OTG_DIEPMSK_TOM |
 8001dc6:	690b      	ldr	r3, [r1, #16]
 8001dc8:	f043 030b 	orr.w	r3, r3, #11
 8001dcc:	610b      	str	r3, [r1, #16]
 8001dce:	e6e0      	b.n	8001b92 <HAL_PCD_IRQHandler+0x49a>
        if ((hpcd->IN_ep[epnum].type == EP_TYPE_ISOC) &&
 8001dd0:	2900      	cmp	r1, #0
 8001dd2:	f6bf ad9d 	bge.w	8001910 <HAL_PCD_IRQHandler+0x218>
  ret = USB_EPStopXfer(hpcd->Instance, ep);
 8001dd6:	f104 0138 	add.w	r1, r4, #56	@ 0x38
 8001dda:	6820      	ldr	r0, [r4, #0]
          hpcd->IN_ep[epnum].is_iso_incomplete = 1U;
 8001ddc:	f884 203b 	strb.w	r2, [r4, #59]	@ 0x3b
  ret = USB_EPStopXfer(hpcd->Instance, ep);
 8001de0:	f003 fc30 	bl	8005644 <USB_EPStopXfer>
      for (epnum = 1U; epnum < hpcd->Init.dev_endpoints; epnum++)
 8001de4:	7923      	ldrb	r3, [r4, #4]
 8001de6:	e593      	b.n	8001910 <HAL_PCD_IRQHandler+0x218>
        hpcd->LPM_State = LPM_L0;
 8001de8:	2100      	movs	r1, #0
        HAL_PCDEx_LPM_Callback(hpcd, PCD_LPM_L0_ACTIVE);
 8001dea:	4620      	mov	r0, r4
        hpcd->LPM_State = LPM_L0;
 8001dec:	f884 14cc 	strb.w	r1, [r4, #1228]	@ 0x4cc
        HAL_PCDEx_LPM_Callback(hpcd, PCD_LPM_L0_ACTIVE);
 8001df0:	f000 fc12 	bl	8002618 <HAL_PCDEx_LPM_Callback>
 8001df4:	e676      	b.n	8001ae4 <HAL_PCD_IRQHandler+0x3ec>
        if ((hpcd->IN_ep[epnum].type == EP_TYPE_ISOC) &&
 8001df6:	2900      	cmp	r1, #0
 8001df8:	f6bf ad93 	bge.w	8001922 <HAL_PCD_IRQHandler+0x22a>
  ret = USB_EPStopXfer(hpcd->Instance, ep);
 8001dfc:	f104 015c 	add.w	r1, r4, #92	@ 0x5c
 8001e00:	6820      	ldr	r0, [r4, #0]
          hpcd->IN_ep[epnum].is_iso_incomplete = 1U;
 8001e02:	f884 205f 	strb.w	r2, [r4, #95]	@ 0x5f
  ret = USB_EPStopXfer(hpcd->Instance, ep);
 8001e06:	f003 fc1d 	bl	8005644 <USB_EPStopXfer>
      for (epnum = 1U; epnum < hpcd->Init.dev_endpoints; epnum++)
 8001e0a:	7923      	ldrb	r3, [r4, #4]
 8001e0c:	e589      	b.n	8001922 <HAL_PCD_IRQHandler+0x22a>
        if ((hpcd->IN_ep[epnum].type == EP_TYPE_ISOC) &&
 8001e0e:	2900      	cmp	r1, #0
 8001e10:	f6bf ad90 	bge.w	8001934 <HAL_PCD_IRQHandler+0x23c>
  ret = USB_EPStopXfer(hpcd->Instance, ep);
 8001e14:	f104 0180 	add.w	r1, r4, #128	@ 0x80
 8001e18:	6820      	ldr	r0, [r4, #0]
          hpcd->IN_ep[epnum].is_iso_incomplete = 1U;
 8001e1a:	f884 2083 	strb.w	r2, [r4, #131]	@ 0x83
  ret = USB_EPStopXfer(hpcd->Instance, ep);
 8001e1e:	f003 fc11 	bl	8005644 <USB_EPStopXfer>
      for (epnum = 1U; epnum < hpcd->Init.dev_endpoints; epnum++)
 8001e22:	7923      	ldrb	r3, [r4, #4]
 8001e24:	e586      	b.n	8001934 <HAL_PCD_IRQHandler+0x23c>
        if ((hpcd->IN_ep[epnum].type == EP_TYPE_ISOC) &&
 8001e26:	2900      	cmp	r1, #0
 8001e28:	f6bf ad8d 	bge.w	8001946 <HAL_PCD_IRQHandler+0x24e>
  ret = USB_EPStopXfer(hpcd->Instance, ep);
 8001e2c:	f104 01a4 	add.w	r1, r4, #164	@ 0xa4
 8001e30:	6820      	ldr	r0, [r4, #0]
          hpcd->IN_ep[epnum].is_iso_incomplete = 1U;
 8001e32:	f884 20a7 	strb.w	r2, [r4, #167]	@ 0xa7
  ret = USB_EPStopXfer(hpcd->Instance, ep);
 8001e36:	f003 fc05 	bl	8005644 <USB_EPStopXfer>
      for (epnum = 1U; epnum < hpcd->Init.dev_endpoints; epnum++)
 8001e3a:	7923      	ldrb	r3, [r4, #4]
 8001e3c:	e583      	b.n	8001946 <HAL_PCD_IRQHandler+0x24e>
  ret = USB_EPStopXfer(hpcd->Instance, ep);
 8001e3e:	f504 7130 	add.w	r1, r4, #704	@ 0x2c0
 8001e42:	6820      	ldr	r0, [r4, #0]
 8001e44:	f003 fbfe 	bl	8005644 <USB_EPStopXfer>
      for (epnum = 1U; epnum < hpcd->Init.dev_endpoints; epnum++)
 8001e48:	7923      	ldrb	r3, [r4, #4]
 8001e4a:	e4f8      	b.n	800183e <HAL_PCD_IRQHandler+0x146>
        ep->xfer_count += (RegVal & USB_OTG_GRXSTSP_BCNT) >> 4;
 8001e4c:	eb08 08c8 	add.w	r8, r8, r8, lsl #3
        (void)USB_ReadPacket(USBx, (uint8_t *)hpcd->Setup, 8U);
 8001e50:	2208      	movs	r2, #8
 8001e52:	f204 419c 	addw	r1, r4, #1180	@ 0x49c
 8001e56:	4630      	mov	r0, r6
 8001e58:	f003 fc54 	bl	8005704 <USB_ReadPacket>
        ep->xfer_count += (RegVal & USB_OTG_GRXSTSP_BCNT) >> 4;
 8001e5c:	f3c7 130a 	ubfx	r3, r7, #4, #11
 8001e60:	eb04 0288 	add.w	r2, r4, r8, lsl #2
      USB_UNMASK_INTERRUPT(hpcd->Instance, USB_OTG_GINTSTS_RXFLVL);
 8001e64:	6820      	ldr	r0, [r4, #0]
        ep->xfer_count += (RegVal & USB_OTG_GRXSTSP_BCNT) >> 4;
 8001e66:	f8d2 1268 	ldr.w	r1, [r2, #616]	@ 0x268
 8001e6a:	440b      	add	r3, r1
 8001e6c:	f8c2 3268 	str.w	r3, [r2, #616]	@ 0x268
 8001e70:	e47d      	b.n	800176e <HAL_PCD_IRQHandler+0x76>
  ret = USB_EPStopXfer(hpcd->Instance, ep);
 8001e72:	f504 7139 	add.w	r1, r4, #740	@ 0x2e4
 8001e76:	6820      	ldr	r0, [r4, #0]
 8001e78:	f003 fbe4 	bl	8005644 <USB_EPStopXfer>
      for (epnum = 1U; epnum < hpcd->Init.dev_endpoints; epnum++)
 8001e7c:	7923      	ldrb	r3, [r4, #4]
 8001e7e:	e4e5      	b.n	800184c <HAL_PCD_IRQHandler+0x154>
 8001e80:	6820      	ldr	r0, [r4, #0]
 8001e82:	e47f      	b.n	8001784 <HAL_PCD_IRQHandler+0x8c>
 8001e84:	4628      	mov	r0, r5
 8001e86:	9e04      	ldr	r6, [sp, #16]
 8001e88:	9d05      	ldr	r5, [sp, #20]
 8001e8a:	e481      	b.n	8001790 <HAL_PCD_IRQHandler+0x98>
 8001e8c:	462c      	mov	r4, r5
 8001e8e:	9d04      	ldr	r5, [sp, #16]
 8001e90:	e478      	b.n	8001784 <HAL_PCD_IRQHandler+0x8c>
  * @retval HAL status
  */
static HAL_StatusTypeDef PCD_EP_OutXfrComplete_int(PCD_HandleTypeDef *hpcd, uint32_t epnum)
{
  USB_OTG_EPTypeDef *ep;
  const USB_OTG_GlobalTypeDef *USBx = hpcd->Instance;
 8001e92:	6828      	ldr	r0, [r5, #0]
            CLEAR_OUT_EP_INTR(epnum, USB_OTG_DOEPINT_XFRC);
 8001e94:	2201      	movs	r2, #1
 8001e96:	f8c8 2008 	str.w	r2, [r8, #8]
  uint32_t USBx_BASE = (uint32_t)USBx;
  uint32_t gSNPSiD = *(__IO const uint32_t *)(&USBx->CID + 0x1U);
  uint32_t DoepintReg = USBx_OUTEP(epnum)->DOEPINT;
 8001e9a:	f500 6230 	add.w	r2, r0, #2816	@ 0xb00

  if (hpcd->Init.dma_enable == 1U)
 8001e9e:	79a9      	ldrb	r1, [r5, #6]
  uint32_t DoepintReg = USBx_OUTEP(epnum)->DOEPINT;
 8001ea0:	eb02 124a 	add.w	r2, r2, sl, lsl #5
  uint32_t gSNPSiD = *(__IO const uint32_t *)(&USBx->CID + 0x1U);
 8001ea4:	f8d0 e040 	ldr.w	lr, [r0, #64]	@ 0x40
  if (hpcd->Init.dma_enable == 1U)
 8001ea8:	2901      	cmp	r1, #1
  uint32_t DoepintReg = USBx_OUTEP(epnum)->DOEPINT;
 8001eaa:	6893      	ldr	r3, [r2, #8]
  if (hpcd->Init.dma_enable == 1U)
 8001eac:	f000 8081 	beq.w	8001fb2 <HAL_PCD_IRQHandler+0x8ba>
      /* ... */
    }
  }
  else
  {
    if (gSNPSiD == USB_OTG_CORE_ID_310A)
 8001eb0:	49bc      	ldr	r1, [pc, #752]	@ (80021a4 <HAL_PCD_IRQHandler+0xaac>)
 8001eb2:	458e      	cmp	lr, r1
 8001eb4:	f000 80d5 	beq.w	8002062 <HAL_PCD_IRQHandler+0x96a>
#endif /* USE_HAL_PCD_REGISTER_CALLBACKS */
      }
    }
    else
    {
      if ((epnum == 0U) && (hpcd->OUT_ep[epnum].xfer_len == 0U))
 8001eb8:	f1ba 0f00 	cmp.w	sl, #0
 8001ebc:	d104      	bne.n	8001ec8 <HAL_PCD_IRQHandler+0x7d0>
 8001ebe:	f8d5 2264 	ldr.w	r2, [r5, #612]	@ 0x264
 8001ec2:	2a00      	cmp	r2, #0
 8001ec4:	f000 81a1 	beq.w	800220a <HAL_PCD_IRQHandler+0xb12>
      }

#if (USE_HAL_PCD_REGISTER_CALLBACKS == 1U)
      hpcd->DataOutStageCallback(hpcd, (uint8_t)epnum);
#else
      HAL_PCD_DataOutStageCallback(hpcd, (uint8_t)epnum);
 8001ec8:	4621      	mov	r1, r4
 8001eca:	4628      	mov	r0, r5
 8001ecc:	f004 fd08 	bl	80068e0 <HAL_PCD_DataOutStageCallback>
 8001ed0:	e743      	b.n	8001d5a <HAL_PCD_IRQHandler+0x662>
  * @param  epnum endpoint number
  * @retval HAL status
  */
static HAL_StatusTypeDef PCD_EP_OutSetupPacket_int(PCD_HandleTypeDef *hpcd, uint32_t epnum)
{
  const USB_OTG_GlobalTypeDef *USBx = hpcd->Instance;
 8001ed2:	6829      	ldr	r1, [r5, #0]
            CLEAR_OUT_EP_INTR(epnum, USB_OTG_DOEPINT_STUP);
 8001ed4:	2208      	movs	r2, #8
 8001ed6:	f8c8 2008 	str.w	r2, [r8, #8]
  uint32_t USBx_BASE = (uint32_t)USBx;
  uint32_t gSNPSiD = *(__IO const uint32_t *)(&USBx->CID + 0x1U);
  uint32_t DoepintReg = USBx_OUTEP(epnum)->DOEPINT;
 8001eda:	f501 6230 	add.w	r2, r1, #2816	@ 0xb00
  uint32_t gSNPSiD = *(__IO const uint32_t *)(&USBx->CID + 0x1U);
 8001ede:	6c08      	ldr	r0, [r1, #64]	@ 0x40

  if ((gSNPSiD > USB_OTG_CORE_ID_300A) &&
 8001ee0:	49b1      	ldr	r1, [pc, #708]	@ (80021a8 <HAL_PCD_IRQHandler+0xab0>)
  uint32_t DoepintReg = USBx_OUTEP(epnum)->DOEPINT;
 8001ee2:	eb02 124a 	add.w	r2, r2, sl, lsl #5
  if ((gSNPSiD > USB_OTG_CORE_ID_300A) &&
 8001ee6:	4288      	cmp	r0, r1
  uint32_t DoepintReg = USBx_OUTEP(epnum)->DOEPINT;
 8001ee8:	6893      	ldr	r3, [r2, #8]
  if ((gSNPSiD > USB_OTG_CORE_ID_300A) &&
 8001eea:	d848      	bhi.n	8001f7e <HAL_PCD_IRQHandler+0x886>

  /* Inform the upper layer that a setup packet is available */
#if (USE_HAL_PCD_REGISTER_CALLBACKS == 1U)
  hpcd->SetupStageCallback(hpcd);
#else
  HAL_PCD_SetupStageCallback(hpcd);
 8001eec:	4628      	mov	r0, r5
 8001eee:	f004 fcf1 	bl	80068d4 <HAL_PCD_SetupStageCallback>
#endif /* USE_HAL_PCD_REGISTER_CALLBACKS */

  if ((gSNPSiD > USB_OTG_CORE_ID_300A) && (hpcd->Init.dma_enable == 1U))
 8001ef2:	e736      	b.n	8001d62 <HAL_PCD_IRQHandler+0x66a>
            (void)USB_FlushTxFifo(USBx, epnum);
 8001ef4:	4659      	mov	r1, fp
 8001ef6:	9804      	ldr	r0, [sp, #16]
 8001ef8:	f003 f9a6 	bl	8005248 <USB_FlushTxFifo>
            if (ep->is_iso_incomplete == 1U)
 8001efc:	f898 2017 	ldrb.w	r2, [r8, #23]
 8001f00:	2a01      	cmp	r2, #1
 8001f02:	f000 80c2 	beq.w	800208a <HAL_PCD_IRQHandler+0x992>
            CLEAR_IN_EP_INTR(epnum, USB_OTG_DIEPINT_EPDISD);
 8001f06:	2202      	movs	r2, #2
 8001f08:	60ba      	str	r2, [r7, #8]
 8001f0a:	e6b1      	b.n	8001c70 <HAL_PCD_IRQHandler+0x578>
        if ((RegVal & USB_OTG_GRXSTSP_BCNT) != 0U)
 8001f0c:	f647 73f0 	movw	r3, #32752	@ 0x7ff0
 8001f10:	421f      	tst	r7, r3
 8001f12:	f43f ac2c 	beq.w	800176e <HAL_PCD_IRQHandler+0x76>
          (void)USB_ReadPacket(USBx, ep->xfer_buff,
 8001f16:	eb08 08c8 	add.w	r8, r8, r8, lsl #3
 8001f1a:	f3c7 120a 	ubfx	r2, r7, #4, #11
 8001f1e:	4630      	mov	r0, r6
 8001f20:	eb04 0888 	add.w	r8, r4, r8, lsl #2
 8001f24:	4617      	mov	r7, r2
 8001f26:	f8d8 1260 	ldr.w	r1, [r8, #608]	@ 0x260
 8001f2a:	f003 fbeb 	bl	8005704 <USB_ReadPacket>
          ep->xfer_buff += (RegVal & USB_OTG_GRXSTSP_BCNT) >> 4;
 8001f2e:	f8d8 3260 	ldr.w	r3, [r8, #608]	@ 0x260
      USB_UNMASK_INTERRUPT(hpcd->Instance, USB_OTG_GINTSTS_RXFLVL);
 8001f32:	6820      	ldr	r0, [r4, #0]
          ep->xfer_buff += (RegVal & USB_OTG_GRXSTSP_BCNT) >> 4;
 8001f34:	443b      	add	r3, r7
 8001f36:	f8c8 3260 	str.w	r3, [r8, #608]	@ 0x260
          ep->xfer_count += (RegVal & USB_OTG_GRXSTSP_BCNT) >> 4;
 8001f3a:	f8d8 3268 	ldr.w	r3, [r8, #616]	@ 0x268
 8001f3e:	443b      	add	r3, r7
 8001f40:	f8c8 3268 	str.w	r3, [r8, #616]	@ 0x268
 8001f44:	e413      	b.n	800176e <HAL_PCD_IRQHandler+0x76>
        HAL_PCD_SuspendCallback(hpcd);
 8001f46:	4620      	mov	r0, r4
 8001f48:	f004 fcf8 	bl	800693c <HAL_PCD_SuspendCallback>
 8001f4c:	e587      	b.n	8001a5e <HAL_PCD_IRQHandler+0x366>
        HAL_PCD_DisconnectCallback(hpcd);
 8001f4e:	4620      	mov	r0, r4
 8001f50:	f004 fd1c 	bl	800698c <HAL_PCD_DisconnectCallback>
      hpcd->Instance->GOTGINT |= RegVal;
 8001f54:	6823      	ldr	r3, [r4, #0]
 8001f56:	e577      	b.n	8001a48 <HAL_PCD_IRQHandler+0x350>
              hpcd->IN_ep[epnum].xfer_buff += hpcd->IN_ep[epnum].maxpacket;
 8001f58:	e9d8 0207 	ldrd	r0, r2, [r8, #28]
 8001f5c:	4402      	add	r2, r0
 8001f5e:	f8c8 2020 	str.w	r2, [r8, #32]
              if ((epnum == 0U) && (hpcd->IN_ep[epnum].xfer_len == 0U))
 8001f62:	f1bb 0f00 	cmp.w	fp, #0
 8001f66:	f47f ae70 	bne.w	8001c4a <HAL_PCD_IRQHandler+0x552>
 8001f6a:	6a62      	ldr	r2, [r4, #36]	@ 0x24
 8001f6c:	2a00      	cmp	r2, #0
 8001f6e:	f47f ae6c 	bne.w	8001c4a <HAL_PCD_IRQHandler+0x552>
                (void)USB_EP0_OutStart(hpcd->Instance, 1U, (uint8_t *)hpcd->Setup);
 8001f72:	f204 429c 	addw	r2, r4, #1180	@ 0x49c
 8001f76:	6820      	ldr	r0, [r4, #0]
 8001f78:	f003 fcc6 	bl	8005908 <USB_EP0_OutStart>
 8001f7c:	e665      	b.n	8001c4a <HAL_PCD_IRQHandler+0x552>
  if ((gSNPSiD > USB_OTG_CORE_ID_300A) &&
 8001f7e:	0419      	lsls	r1, r3, #16
 8001f80:	d55f      	bpl.n	8002042 <HAL_PCD_IRQHandler+0x94a>
    CLEAR_OUT_EP_INTR(epnum, USB_OTG_DOEPINT_STPKTRX);
 8001f82:	f44f 4100 	mov.w	r1, #32768	@ 0x8000
  HAL_PCD_SetupStageCallback(hpcd);
 8001f86:	4628      	mov	r0, r5
    CLEAR_OUT_EP_INTR(epnum, USB_OTG_DOEPINT_STPKTRX);
 8001f88:	6091      	str	r1, [r2, #8]
  HAL_PCD_SetupStageCallback(hpcd);
 8001f8a:	f004 fca3 	bl	80068d4 <HAL_PCD_SetupStageCallback>
  if ((gSNPSiD > USB_OTG_CORE_ID_300A) && (hpcd->Init.dma_enable == 1U))
 8001f8e:	79a9      	ldrb	r1, [r5, #6]
 8001f90:	2901      	cmp	r1, #1
 8001f92:	f47f aee6 	bne.w	8001d62 <HAL_PCD_IRQHandler+0x66a>
  {
    (void)USB_EP0_OutStart(hpcd->Instance, 1U, (uint8_t *)hpcd->Setup);
 8001f96:	f205 429c 	addw	r2, r5, #1180	@ 0x49c
 8001f9a:	6828      	ldr	r0, [r5, #0]
 8001f9c:	f003 fcb4 	bl	8005908 <USB_EP0_OutStart>
 8001fa0:	e6df      	b.n	8001d62 <HAL_PCD_IRQHandler+0x66a>
  if (ep->xfer_len <= ep->xfer_count)
 8001fa2:	9f06      	ldr	r7, [sp, #24]
 8001fa4:	f8d8 2024 	ldr.w	r2, [r8, #36]	@ 0x24
    if (__HAL_PCD_GET_FLAG(hpcd, USB_OTG_GINTSTS_WKUINT))
 8001fa8:	6825      	ldr	r5, [r4, #0]
  if (ep->xfer_len <= ep->xfer_count)
 8001faa:	4293      	cmp	r3, r2
 8001fac:	f4ff ae28 	bcc.w	8001c00 <HAL_PCD_IRQHandler+0x508>
 8001fb0:	e6a3      	b.n	8001cfa <HAL_PCD_IRQHandler+0x602>
    if ((DoepintReg & USB_OTG_DOEPINT_STUP) == USB_OTG_DOEPINT_STUP) /* Class C */
 8001fb2:	0719      	lsls	r1, r3, #28
 8001fb4:	f140 808d 	bpl.w	80020d2 <HAL_PCD_IRQHandler+0x9da>
      if ((gSNPSiD > USB_OTG_CORE_ID_300A) &&
 8001fb8:	497b      	ldr	r1, [pc, #492]	@ (80021a8 <HAL_PCD_IRQHandler+0xab0>)
 8001fba:	458e      	cmp	lr, r1
 8001fbc:	f67f aecd 	bls.w	8001d5a <HAL_PCD_IRQHandler+0x662>
 8001fc0:	0418      	lsls	r0, r3, #16
 8001fc2:	f57f aeca 	bpl.w	8001d5a <HAL_PCD_IRQHandler+0x662>
        CLEAR_OUT_EP_INTR(epnum, USB_OTG_DOEPINT_STPKTRX);
 8001fc6:	f44f 4100 	mov.w	r1, #32768	@ 0x8000
 8001fca:	6091      	str	r1, [r2, #8]
 8001fcc:	e6c5      	b.n	8001d5a <HAL_PCD_IRQHandler+0x662>
        if ((hpcd->IN_ep[epnum].type == EP_TYPE_ISOC) &&
 8001fce:	2900      	cmp	r1, #0
 8001fd0:	f6bf acc2 	bge.w	8001958 <HAL_PCD_IRQHandler+0x260>
  ret = USB_EPStopXfer(hpcd->Instance, ep);
 8001fd4:	f104 01c8 	add.w	r1, r4, #200	@ 0xc8
 8001fd8:	6820      	ldr	r0, [r4, #0]
          hpcd->IN_ep[epnum].is_iso_incomplete = 1U;
 8001fda:	f884 20cb 	strb.w	r2, [r4, #203]	@ 0xcb
  ret = USB_EPStopXfer(hpcd->Instance, ep);
 8001fde:	f003 fb31 	bl	8005644 <USB_EPStopXfer>
      for (epnum = 1U; epnum < hpcd->Init.dev_endpoints; epnum++)
 8001fe2:	7923      	ldrb	r3, [r4, #4]
 8001fe4:	e4b8      	b.n	8001958 <HAL_PCD_IRQHandler+0x260>
  ret = USB_EPStopXfer(hpcd->Instance, ep);
 8001fe6:	f504 711e 	add.w	r1, r4, #632	@ 0x278
 8001fea:	6820      	ldr	r0, [r4, #0]
 8001fec:	f003 fb2a 	bl	8005644 <USB_EPStopXfer>
      for (epnum = 1U; epnum < hpcd->Init.dev_endpoints; epnum++)
 8001ff0:	7923      	ldrb	r3, [r4, #4]
 8001ff2:	e416      	b.n	8001822 <HAL_PCD_IRQHandler+0x12a>
              ep->is_iso_incomplete = 0U;
 8001ff4:	2200      	movs	r2, #0
              HAL_PCD_ISOOUTIncompleteCallback(hpcd, (uint8_t)epnum);
 8001ff6:	4621      	mov	r1, r4
 8001ff8:	4628      	mov	r0, r5
              ep->is_iso_incomplete = 0U;
 8001ffa:	f88b 2257 	strb.w	r2, [fp, #599]	@ 0x257
              HAL_PCD_ISOOUTIncompleteCallback(hpcd, (uint8_t)epnum);
 8001ffe:	f004 fcb9 	bl	8006974 <HAL_PCD_ISOOUTIncompleteCallback>
 8002002:	e6c4      	b.n	8001d8e <HAL_PCD_IRQHandler+0x696>
        if ((hpcd->IN_ep[epnum].type == EP_TYPE_ISOC) &&
 8002004:	2900      	cmp	r1, #0
 8002006:	f6bf acb0 	bge.w	800196a <HAL_PCD_IRQHandler+0x272>
  ret = USB_EPStopXfer(hpcd->Instance, ep);
 800200a:	f104 01ec 	add.w	r1, r4, #236	@ 0xec
 800200e:	6820      	ldr	r0, [r4, #0]
          hpcd->IN_ep[epnum].is_iso_incomplete = 1U;
 8002010:	f884 20ef 	strb.w	r2, [r4, #239]	@ 0xef
  ret = USB_EPStopXfer(hpcd->Instance, ep);
 8002014:	f003 fb16 	bl	8005644 <USB_EPStopXfer>
      for (epnum = 1U; epnum < hpcd->Init.dev_endpoints; epnum++)
 8002018:	7923      	ldrb	r3, [r4, #4]
 800201a:	e4a6      	b.n	800196a <HAL_PCD_IRQHandler+0x272>
  ret = USB_EPStopXfer(hpcd->Instance, ep);
 800201c:	f504 7127 	add.w	r1, r4, #668	@ 0x29c
 8002020:	6820      	ldr	r0, [r4, #0]
 8002022:	f003 fb0f 	bl	8005644 <USB_EPStopXfer>
      for (epnum = 1U; epnum < hpcd->Init.dev_endpoints; epnum++)
 8002026:	7923      	ldrb	r3, [r4, #4]
 8002028:	e402      	b.n	8001830 <HAL_PCD_IRQHandler+0x138>
        if ((hpcd->IN_ep[epnum].type == EP_TYPE_ISOC) &&
 800202a:	2900      	cmp	r1, #0
 800202c:	f6bf aca6 	bge.w	800197c <HAL_PCD_IRQHandler+0x284>
  ret = USB_EPStopXfer(hpcd->Instance, ep);
 8002030:	f504 7188 	add.w	r1, r4, #272	@ 0x110
 8002034:	6820      	ldr	r0, [r4, #0]
          hpcd->IN_ep[epnum].is_iso_incomplete = 1U;
 8002036:	f884 2113 	strb.w	r2, [r4, #275]	@ 0x113
  ret = USB_EPStopXfer(hpcd->Instance, ep);
 800203a:	f003 fb03 	bl	8005644 <USB_EPStopXfer>
      for (epnum = 1U; epnum < hpcd->Init.dev_endpoints; epnum++)
 800203e:	7923      	ldrb	r3, [r4, #4]
 8002040:	e49c      	b.n	800197c <HAL_PCD_IRQHandler+0x284>
  HAL_PCD_SetupStageCallback(hpcd);
 8002042:	4628      	mov	r0, r5
 8002044:	f004 fc46 	bl	80068d4 <HAL_PCD_SetupStageCallback>
  if ((gSNPSiD > USB_OTG_CORE_ID_300A) && (hpcd->Init.dma_enable == 1U))
 8002048:	e7a1      	b.n	8001f8e <HAL_PCD_IRQHandler+0x896>
        if ((hpcd->IN_ep[epnum].type == EP_TYPE_ISOC) &&
 800204a:	2900      	cmp	r1, #0
 800204c:	f6bf ac9f 	bge.w	800198e <HAL_PCD_IRQHandler+0x296>
  ret = USB_EPStopXfer(hpcd->Instance, ep);
 8002050:	f504 719a 	add.w	r1, r4, #308	@ 0x134
 8002054:	6820      	ldr	r0, [r4, #0]
          hpcd->IN_ep[epnum].is_iso_incomplete = 1U;
 8002056:	f884 2137 	strb.w	r2, [r4, #311]	@ 0x137
  ret = USB_EPStopXfer(hpcd->Instance, ep);
 800205a:	f003 faf3 	bl	8005644 <USB_EPStopXfer>
      for (epnum = 1U; epnum < hpcd->Init.dev_endpoints; epnum++)
 800205e:	7923      	ldrb	r3, [r4, #4]
 8002060:	e495      	b.n	800198e <HAL_PCD_IRQHandler+0x296>
      if ((DoepintReg & USB_OTG_DOEPINT_STPKTRX) == USB_OTG_DOEPINT_STPKTRX)
 8002062:	0419      	lsls	r1, r3, #16
 8002064:	d4af      	bmi.n	8001fc6 <HAL_PCD_IRQHandler+0x8ce>
        if ((DoepintReg & USB_OTG_DOEPINT_OTEPSPR) == USB_OTG_DOEPINT_OTEPSPR)
 8002066:	0698      	lsls	r0, r3, #26
 8002068:	f57f af2e 	bpl.w	8001ec8 <HAL_PCD_IRQHandler+0x7d0>
          CLEAR_OUT_EP_INTR(epnum, USB_OTG_DOEPINT_OTEPSPR);
 800206c:	2120      	movs	r1, #32
 800206e:	6091      	str	r1, [r2, #8]
        HAL_PCD_DataOutStageCallback(hpcd, (uint8_t)epnum);
 8002070:	e72a      	b.n	8001ec8 <HAL_PCD_IRQHandler+0x7d0>
        if ((hpcd->IN_ep[epnum].type == EP_TYPE_ISOC) &&
 8002072:	2900      	cmp	r1, #0
 8002074:	f6bf ac94 	bge.w	80019a0 <HAL_PCD_IRQHandler+0x2a8>
  ret = USB_EPStopXfer(hpcd->Instance, ep);
 8002078:	f504 71ac 	add.w	r1, r4, #344	@ 0x158
 800207c:	6820      	ldr	r0, [r4, #0]
          hpcd->IN_ep[epnum].is_iso_incomplete = 1U;
 800207e:	f884 215b 	strb.w	r2, [r4, #347]	@ 0x15b
  ret = USB_EPStopXfer(hpcd->Instance, ep);
 8002082:	f003 fadf 	bl	8005644 <USB_EPStopXfer>
      for (epnum = 1U; epnum < hpcd->Init.dev_endpoints; epnum++)
 8002086:	7923      	ldrb	r3, [r4, #4]
 8002088:	e48a      	b.n	80019a0 <HAL_PCD_IRQHandler+0x2a8>
              ep->is_iso_incomplete = 0U;
 800208a:	2200      	movs	r2, #0
              HAL_PCD_ISOINIncompleteCallback(hpcd, (uint8_t)epnum);
 800208c:	4651      	mov	r1, sl
 800208e:	4620      	mov	r0, r4
              ep->is_iso_incomplete = 0U;
 8002090:	f888 2017 	strb.w	r2, [r8, #23]
              HAL_PCD_ISOINIncompleteCallback(hpcd, (uint8_t)epnum);
 8002094:	f004 fc72 	bl	800697c <HAL_PCD_ISOINIncompleteCallback>
 8002098:	e735      	b.n	8001f06 <HAL_PCD_IRQHandler+0x80e>
  ret = USB_EPStopXfer(hpcd->Instance, ep);
 800209a:	f504 7142 	add.w	r1, r4, #776	@ 0x308
 800209e:	6820      	ldr	r0, [r4, #0]
 80020a0:	f003 fad0 	bl	8005644 <USB_EPStopXfer>
      for (epnum = 1U; epnum < hpcd->Init.dev_endpoints; epnum++)
 80020a4:	7923      	ldrb	r3, [r4, #4]
 80020a6:	f7ff bbd8 	b.w	800185a <HAL_PCD_IRQHandler+0x162>
        if ((hpcd->IN_ep[epnum].type == EP_TYPE_ISOC) &&
 80020aa:	2900      	cmp	r1, #0
 80020ac:	f6bf ac81 	bge.w	80019b2 <HAL_PCD_IRQHandler+0x2ba>
  ret = USB_EPStopXfer(hpcd->Instance, ep);
 80020b0:	f504 71be 	add.w	r1, r4, #380	@ 0x17c
 80020b4:	6820      	ldr	r0, [r4, #0]
          hpcd->IN_ep[epnum].is_iso_incomplete = 1U;
 80020b6:	f884 217f 	strb.w	r2, [r4, #383]	@ 0x17f
  ret = USB_EPStopXfer(hpcd->Instance, ep);
 80020ba:	f003 fac3 	bl	8005644 <USB_EPStopXfer>
      for (epnum = 1U; epnum < hpcd->Init.dev_endpoints; epnum++)
 80020be:	7923      	ldrb	r3, [r4, #4]
 80020c0:	e477      	b.n	80019b2 <HAL_PCD_IRQHandler+0x2ba>
  ret = USB_EPStopXfer(hpcd->Instance, ep);
 80020c2:	f504 714b 	add.w	r1, r4, #812	@ 0x32c
 80020c6:	6820      	ldr	r0, [r4, #0]
 80020c8:	f003 fabc 	bl	8005644 <USB_EPStopXfer>
      for (epnum = 1U; epnum < hpcd->Init.dev_endpoints; epnum++)
 80020cc:	7923      	ldrb	r3, [r4, #4]
 80020ce:	f7ff bbcb 	b.w	8001868 <HAL_PCD_IRQHandler+0x170>
    else if ((DoepintReg & USB_OTG_DOEPINT_OTEPSPR) == USB_OTG_DOEPINT_OTEPSPR) /* Class E */
 80020d2:	0699      	lsls	r1, r3, #26
 80020d4:	d572      	bpl.n	80021bc <HAL_PCD_IRQHandler+0xac4>
      CLEAR_OUT_EP_INTR(epnum, USB_OTG_DOEPINT_OTEPSPR);
 80020d6:	2120      	movs	r1, #32
 80020d8:	6091      	str	r1, [r2, #8]
 80020da:	e63e      	b.n	8001d5a <HAL_PCD_IRQHandler+0x662>
        if ((hpcd->IN_ep[epnum].type == EP_TYPE_ISOC) &&
 80020dc:	2900      	cmp	r1, #0
 80020de:	f6bf ac71 	bge.w	80019c4 <HAL_PCD_IRQHandler+0x2cc>
  ret = USB_EPStopXfer(hpcd->Instance, ep);
 80020e2:	f504 71d0 	add.w	r1, r4, #416	@ 0x1a0
 80020e6:	6820      	ldr	r0, [r4, #0]
          hpcd->IN_ep[epnum].is_iso_incomplete = 1U;
 80020e8:	f884 21a3 	strb.w	r2, [r4, #419]	@ 0x1a3
  ret = USB_EPStopXfer(hpcd->Instance, ep);
 80020ec:	f003 faaa 	bl	8005644 <USB_EPStopXfer>
      for (epnum = 1U; epnum < hpcd->Init.dev_endpoints; epnum++)
 80020f0:	7923      	ldrb	r3, [r4, #4]
 80020f2:	e467      	b.n	80019c4 <HAL_PCD_IRQHandler+0x2cc>
  ret = USB_EPStopXfer(hpcd->Instance, ep);
 80020f4:	f504 7154 	add.w	r1, r4, #848	@ 0x350
 80020f8:	6820      	ldr	r0, [r4, #0]
 80020fa:	f003 faa3 	bl	8005644 <USB_EPStopXfer>
      for (epnum = 1U; epnum < hpcd->Init.dev_endpoints; epnum++)
 80020fe:	7923      	ldrb	r3, [r4, #4]
 8002100:	f7ff bbb9 	b.w	8001876 <HAL_PCD_IRQHandler+0x17e>
        if ((hpcd->IN_ep[epnum].type == EP_TYPE_ISOC) &&
 8002104:	2900      	cmp	r1, #0
 8002106:	f6bf ac66 	bge.w	80019d6 <HAL_PCD_IRQHandler+0x2de>
  ret = USB_EPStopXfer(hpcd->Instance, ep);
 800210a:	f504 71e2 	add.w	r1, r4, #452	@ 0x1c4
 800210e:	6820      	ldr	r0, [r4, #0]
          hpcd->IN_ep[epnum].is_iso_incomplete = 1U;
 8002110:	f884 21c7 	strb.w	r2, [r4, #455]	@ 0x1c7
  ret = USB_EPStopXfer(hpcd->Instance, ep);
 8002114:	f003 fa96 	bl	8005644 <USB_EPStopXfer>
      for (epnum = 1U; epnum < hpcd->Init.dev_endpoints; epnum++)
 8002118:	7923      	ldrb	r3, [r4, #4]
 800211a:	e45c      	b.n	80019d6 <HAL_PCD_IRQHandler+0x2de>
  ret = USB_EPStopXfer(hpcd->Instance, ep);
 800211c:	f504 715d 	add.w	r1, r4, #884	@ 0x374
 8002120:	6820      	ldr	r0, [r4, #0]
 8002122:	f003 fa8f 	bl	8005644 <USB_EPStopXfer>
      for (epnum = 1U; epnum < hpcd->Init.dev_endpoints; epnum++)
 8002126:	7923      	ldrb	r3, [r4, #4]
 8002128:	f7ff bbac 	b.w	8001884 <HAL_PCD_IRQHandler+0x18c>
        if ((hpcd->IN_ep[epnum].type == EP_TYPE_ISOC) &&
 800212c:	2900      	cmp	r1, #0
 800212e:	f6bf ac5b 	bge.w	80019e8 <HAL_PCD_IRQHandler+0x2f0>
  ret = USB_EPStopXfer(hpcd->Instance, ep);
 8002132:	f504 71f4 	add.w	r1, r4, #488	@ 0x1e8
 8002136:	6820      	ldr	r0, [r4, #0]
          hpcd->IN_ep[epnum].is_iso_incomplete = 1U;
 8002138:	f884 21eb 	strb.w	r2, [r4, #491]	@ 0x1eb
  ret = USB_EPStopXfer(hpcd->Instance, ep);
 800213c:	f003 fa82 	bl	8005644 <USB_EPStopXfer>
      for (epnum = 1U; epnum < hpcd->Init.dev_endpoints; epnum++)
 8002140:	7923      	ldrb	r3, [r4, #4]
 8002142:	e451      	b.n	80019e8 <HAL_PCD_IRQHandler+0x2f0>
  ret = USB_EPStopXfer(hpcd->Instance, ep);
 8002144:	f504 7166 	add.w	r1, r4, #920	@ 0x398
 8002148:	6820      	ldr	r0, [r4, #0]
 800214a:	f003 fa7b 	bl	8005644 <USB_EPStopXfer>
      for (epnum = 1U; epnum < hpcd->Init.dev_endpoints; epnum++)
 800214e:	7923      	ldrb	r3, [r4, #4]
 8002150:	f7ff bb9f 	b.w	8001892 <HAL_PCD_IRQHandler+0x19a>
        if ((hpcd->IN_ep[epnum].type == EP_TYPE_ISOC) &&
 8002154:	2900      	cmp	r1, #0
 8002156:	f6bf ac50 	bge.w	80019fa <HAL_PCD_IRQHandler+0x302>
  ret = USB_EPStopXfer(hpcd->Instance, ep);
 800215a:	f504 7103 	add.w	r1, r4, #524	@ 0x20c
 800215e:	6820      	ldr	r0, [r4, #0]
          hpcd->IN_ep[epnum].is_iso_incomplete = 1U;
 8002160:	f884 220f 	strb.w	r2, [r4, #527]	@ 0x20f
  ret = USB_EPStopXfer(hpcd->Instance, ep);
 8002164:	f003 fa6e 	bl	8005644 <USB_EPStopXfer>
      for (epnum = 1U; epnum < hpcd->Init.dev_endpoints; epnum++)
 8002168:	7923      	ldrb	r3, [r4, #4]
 800216a:	e446      	b.n	80019fa <HAL_PCD_IRQHandler+0x302>
  ret = USB_EPStopXfer(hpcd->Instance, ep);
 800216c:	f504 716f 	add.w	r1, r4, #956	@ 0x3bc
 8002170:	6820      	ldr	r0, [r4, #0]
 8002172:	f003 fa67 	bl	8005644 <USB_EPStopXfer>
      for (epnum = 1U; epnum < hpcd->Init.dev_endpoints; epnum++)
 8002176:	7923      	ldrb	r3, [r4, #4]
 8002178:	f7ff bb92 	b.w	80018a0 <HAL_PCD_IRQHandler+0x1a8>
        if ((hpcd->IN_ep[epnum].type == EP_TYPE_ISOC) &&
 800217c:	2900      	cmp	r1, #0
 800217e:	f6bf ac45 	bge.w	8001a0c <HAL_PCD_IRQHandler+0x314>
  ret = USB_EPStopXfer(hpcd->Instance, ep);
 8002182:	f504 710c 	add.w	r1, r4, #560	@ 0x230
 8002186:	6820      	ldr	r0, [r4, #0]
          hpcd->IN_ep[epnum].is_iso_incomplete = 1U;
 8002188:	f884 2233 	strb.w	r2, [r4, #563]	@ 0x233
  ret = USB_EPStopXfer(hpcd->Instance, ep);
 800218c:	f003 fa5a 	bl	8005644 <USB_EPStopXfer>
      for (epnum = 1U; epnum < hpcd->Init.dev_endpoints; epnum++)
 8002190:	7923      	ldrb	r3, [r4, #4]
 8002192:	e43b      	b.n	8001a0c <HAL_PCD_IRQHandler+0x314>
  ret = USB_EPStopXfer(hpcd->Instance, ep);
 8002194:	f504 7178 	add.w	r1, r4, #992	@ 0x3e0
 8002198:	6820      	ldr	r0, [r4, #0]
 800219a:	f003 fa53 	bl	8005644 <USB_EPStopXfer>
      for (epnum = 1U; epnum < hpcd->Init.dev_endpoints; epnum++)
 800219e:	7923      	ldrb	r3, [r4, #4]
 80021a0:	f7ff bb85 	b.w	80018ae <HAL_PCD_IRQHandler+0x1b6>
 80021a4:	4f54310a 	.word	0x4f54310a
 80021a8:	4f54300a 	.word	0x4f54300a
  ret = USB_EPStopXfer(hpcd->Instance, ep);
 80021ac:	f204 4104 	addw	r1, r4, #1028	@ 0x404
 80021b0:	6820      	ldr	r0, [r4, #0]
 80021b2:	f003 fa47 	bl	8005644 <USB_EPStopXfer>
      for (epnum = 1U; epnum < hpcd->Init.dev_endpoints; epnum++)
 80021b6:	7923      	ldrb	r3, [r4, #4]
 80021b8:	f7ff bb80 	b.w	80018bc <HAL_PCD_IRQHandler+0x1c4>
    else if ((DoepintReg & (USB_OTG_DOEPINT_STUP | USB_OTG_DOEPINT_OTEPSPR)) == 0U)
 80021bc:	f013 0f28 	tst.w	r3, #40	@ 0x28
 80021c0:	f47f adcb 	bne.w	8001d5a <HAL_PCD_IRQHandler+0x662>
      if ((gSNPSiD > USB_OTG_CORE_ID_300A) &&
 80021c4:	491b      	ldr	r1, [pc, #108]	@ (8002234 <HAL_PCD_IRQHandler+0xb3c>)
 80021c6:	458e      	cmp	lr, r1
 80021c8:	d902      	bls.n	80021d0 <HAL_PCD_IRQHandler+0xad8>
 80021ca:	041b      	lsls	r3, r3, #16
 80021cc:	f53f aefb 	bmi.w	8001fc6 <HAL_PCD_IRQHandler+0x8ce>
        ep->xfer_count = ep->xfer_size - (USBx_OUTEP(epnum)->DOEPTSIZ & USB_OTG_DOEPTSIZ_XFRSIZ);
 80021d0:	6911      	ldr	r1, [r2, #16]
 80021d2:	f8db 2274 	ldr.w	r2, [fp, #628]	@ 0x274
 80021d6:	f3c1 0112 	ubfx	r1, r1, #0, #19
 80021da:	1a52      	subs	r2, r2, r1
 80021dc:	f8cb 2268 	str.w	r2, [fp, #616]	@ 0x268
        if (epnum == 0U)
 80021e0:	f1ba 0f00 	cmp.w	sl, #0
 80021e4:	f47f ae70 	bne.w	8001ec8 <HAL_PCD_IRQHandler+0x7d0>
          if (ep->xfer_len == 0U)
 80021e8:	f8d5 1264 	ldr.w	r1, [r5, #612]	@ 0x264
 80021ec:	b1d9      	cbz	r1, 8002226 <HAL_PCD_IRQHandler+0xb2e>
            ep->xfer_buff += ep->xfer_count;
 80021ee:	f8d5 1260 	ldr.w	r1, [r5, #608]	@ 0x260
 80021f2:	4411      	add	r1, r2
 80021f4:	f8c5 1260 	str.w	r1, [r5, #608]	@ 0x260
        HAL_PCD_DataOutStageCallback(hpcd, (uint8_t)epnum);
 80021f8:	e666      	b.n	8001ec8 <HAL_PCD_IRQHandler+0x7d0>
  ret = USB_EPStopXfer(hpcd->Instance, ep);
 80021fa:	f504 6185 	add.w	r1, r4, #1064	@ 0x428
 80021fe:	6820      	ldr	r0, [r4, #0]
 8002200:	f003 fa20 	bl	8005644 <USB_EPStopXfer>
      for (epnum = 1U; epnum < hpcd->Init.dev_endpoints; epnum++)
 8002204:	7923      	ldrb	r3, [r4, #4]
 8002206:	f7ff bb60 	b.w	80018ca <HAL_PCD_IRQHandler+0x1d2>
        (void)USB_EP0_OutStart(hpcd->Instance, 0U, (uint8_t *)hpcd->Setup);
 800220a:	f205 429c 	addw	r2, r5, #1180	@ 0x49c
 800220e:	4651      	mov	r1, sl
 8002210:	f003 fb7a 	bl	8005908 <USB_EP0_OutStart>
 8002214:	e658      	b.n	8001ec8 <HAL_PCD_IRQHandler+0x7d0>
  ret = USB_EPStopXfer(hpcd->Instance, ep);
 8002216:	f204 414c 	addw	r1, r4, #1100	@ 0x44c
 800221a:	6820      	ldr	r0, [r4, #0]
 800221c:	f003 fa12 	bl	8005644 <USB_EPStopXfer>
      for (epnum = 1U; epnum < hpcd->Init.dev_endpoints; epnum++)
 8002220:	7923      	ldrb	r3, [r4, #4]
 8002222:	f7ff bb59 	b.w	80018d8 <HAL_PCD_IRQHandler+0x1e0>
            (void)USB_EP0_OutStart(hpcd->Instance, 1U, (uint8_t *)hpcd->Setup);
 8002226:	f205 429c 	addw	r2, r5, #1180	@ 0x49c
 800222a:	2101      	movs	r1, #1
 800222c:	f003 fb6c 	bl	8005908 <USB_EP0_OutStart>
 8002230:	e64a      	b.n	8001ec8 <HAL_PCD_IRQHandler+0x7d0>
 8002232:	bf00      	nop
 8002234:	4f54300a 	.word	0x4f54300a

08002238 <HAL_PCD_SetAddress>:
  __HAL_LOCK(hpcd);
 8002238:	f890 2494 	ldrb.w	r2, [r0, #1172]	@ 0x494
 800223c:	2a01      	cmp	r2, #1
 800223e:	d00d      	beq.n	800225c <HAL_PCD_SetAddress+0x24>
 8002240:	2201      	movs	r2, #1
{
 8002242:	b510      	push	{r4, lr}
 8002244:	4604      	mov	r4, r0
  (void)USB_SetDevAddress(hpcd->Instance, address);
 8002246:	6800      	ldr	r0, [r0, #0]
  hpcd->USB_Address = address;
 8002248:	7461      	strb	r1, [r4, #17]
  __HAL_LOCK(hpcd);
 800224a:	f884 2494 	strb.w	r2, [r4, #1172]	@ 0x494
  (void)USB_SetDevAddress(hpcd->Instance, address);
 800224e:	f003 fae1 	bl	8005814 <USB_SetDevAddress>
  __HAL_UNLOCK(hpcd);
 8002252:	2300      	movs	r3, #0
  return HAL_OK;
 8002254:	4618      	mov	r0, r3
  __HAL_UNLOCK(hpcd);
 8002256:	f884 3494 	strb.w	r3, [r4, #1172]	@ 0x494
}
 800225a:	bd10      	pop	{r4, pc}
  __HAL_LOCK(hpcd);
 800225c:	2002      	movs	r0, #2
}
 800225e:	4770      	bx	lr

08002260 <HAL_PCD_EP_Open>:
{
 8002260:	b510      	push	{r4, lr}
 8002262:	f001 0e0f 	and.w	lr, r1, #15
  if ((ep_addr & 0x80U) == 0x80U)
 8002266:	0609      	lsls	r1, r1, #24
{
 8002268:	4604      	mov	r4, r0
 800226a:	eb0e 0cce 	add.w	ip, lr, lr, lsl #3
 800226e:	ea4f 0c8c 	mov.w	ip, ip, lsl #2
  if ((ep_addr & 0x80U) == 0x80U)
 8002272:	d427      	bmi.n	80022c4 <HAL_PCD_EP_Open+0x64>
    ep = &hpcd->OUT_ep[ep_addr & EP_ADDR_MSK];
 8002274:	f50c 7115 	add.w	r1, ip, #596	@ 0x254
    ep->is_in = 0U;
 8002278:	f04f 0c00 	mov.w	ip, #0
    ep = &hpcd->OUT_ep[ep_addr & EP_ADDR_MSK];
 800227c:	4401      	add	r1, r0
    ep->is_in = 0U;
 800227e:	eb0e 00ce 	add.w	r0, lr, lr, lsl #3
 8002282:	eb04 0080 	add.w	r0, r4, r0, lsl #2
 8002286:	f880 c255 	strb.w	ip, [r0, #597]	@ 0x255
  ep->maxpacket = (uint32_t)ep_mps & 0x7FFU;
 800228a:	f3c2 020a 	ubfx	r2, r2, #0, #11
  ep->num = ep_addr & EP_ADDR_MSK;
 800228e:	f881 e000 	strb.w	lr, [r1]
  ep->type = ep_type;
 8002292:	710b      	strb	r3, [r1, #4]
  ep->maxpacket = (uint32_t)ep_mps & 0x7FFU;
 8002294:	608a      	str	r2, [r1, #8]
  if (ep->is_in != 0U)
 8002296:	784a      	ldrb	r2, [r1, #1]
 8002298:	b10a      	cbz	r2, 800229e <HAL_PCD_EP_Open+0x3e>
    ep->tx_fifo_num = ep->num;
 800229a:	f8a1 e01a 	strh.w	lr, [r1, #26]
  if (ep_type == EP_TYPE_BULK)
 800229e:	2b02      	cmp	r3, #2
 80022a0:	d101      	bne.n	80022a6 <HAL_PCD_EP_Open+0x46>
    ep->data_pid_start = 0U;
 80022a2:	2300      	movs	r3, #0
 80022a4:	714b      	strb	r3, [r1, #5]
  __HAL_LOCK(hpcd);
 80022a6:	f894 3494 	ldrb.w	r3, [r4, #1172]	@ 0x494
 80022aa:	2b01      	cmp	r3, #1
 80022ac:	d016      	beq.n	80022dc <HAL_PCD_EP_Open+0x7c>
 80022ae:	2301      	movs	r3, #1
  (void)USB_ActivateEndpoint(hpcd->Instance, ep);
 80022b0:	6820      	ldr	r0, [r4, #0]
  __HAL_LOCK(hpcd);
 80022b2:	f884 3494 	strb.w	r3, [r4, #1172]	@ 0x494
  (void)USB_ActivateEndpoint(hpcd->Instance, ep);
 80022b6:	f002 fffb 	bl	80052b0 <USB_ActivateEndpoint>
  __HAL_UNLOCK(hpcd);
 80022ba:	2300      	movs	r3, #0
  return ret;
 80022bc:	4618      	mov	r0, r3
  __HAL_UNLOCK(hpcd);
 80022be:	f884 3494 	strb.w	r3, [r4, #1172]	@ 0x494
}
 80022c2:	bd10      	pop	{r4, pc}
    ep = &hpcd->IN_ep[ep_addr & EP_ADDR_MSK];
 80022c4:	f10c 0114 	add.w	r1, ip, #20
    ep->is_in = 1U;
 80022c8:	f04f 0c01 	mov.w	ip, #1
    ep = &hpcd->IN_ep[ep_addr & EP_ADDR_MSK];
 80022cc:	4401      	add	r1, r0
    ep->is_in = 1U;
 80022ce:	eb0e 00ce 	add.w	r0, lr, lr, lsl #3
 80022d2:	eb04 0080 	add.w	r0, r4, r0, lsl #2
 80022d6:	f880 c015 	strb.w	ip, [r0, #21]
 80022da:	e7d6      	b.n	800228a <HAL_PCD_EP_Open+0x2a>
  __HAL_LOCK(hpcd);
 80022dc:	2002      	movs	r0, #2
}
 80022de:	bd10      	pop	{r4, pc}

080022e0 <HAL_PCD_EP_Close>:
  if ((ep_addr & 0x80U) == 0x80U)
 80022e0:	f001 030f 	and.w	r3, r1, #15
 80022e4:	0609      	lsls	r1, r1, #24
 80022e6:	461a      	mov	r2, r3
 80022e8:	eb03 03c3 	add.w	r3, r3, r3, lsl #3
{
 80022ec:	b510      	push	{r4, lr}
 80022ee:	ea4f 0383 	mov.w	r3, r3, lsl #2
 80022f2:	4604      	mov	r4, r0
  if ((ep_addr & 0x80U) == 0x80U)
 80022f4:	d419      	bmi.n	800232a <HAL_PCD_EP_Close+0x4a>
    ep = &hpcd->OUT_ep[ep_addr & EP_ADDR_MSK];
 80022f6:	f503 7115 	add.w	r1, r3, #596	@ 0x254
    ep->is_in = 0U;
 80022fa:	eb02 03c2 	add.w	r3, r2, r2, lsl #3
 80022fe:	2000      	movs	r0, #0
 8002300:	eb04 0383 	add.w	r3, r4, r3, lsl #2
    ep = &hpcd->OUT_ep[ep_addr & EP_ADDR_MSK];
 8002304:	4421      	add	r1, r4
    ep->is_in = 0U;
 8002306:	f883 0255 	strb.w	r0, [r3, #597]	@ 0x255
  ep->num = ep_addr & EP_ADDR_MSK;
 800230a:	700a      	strb	r2, [r1, #0]
  __HAL_LOCK(hpcd);
 800230c:	f894 3494 	ldrb.w	r3, [r4, #1172]	@ 0x494
 8002310:	2b01      	cmp	r3, #1
 8002312:	d01a      	beq.n	800234a <HAL_PCD_EP_Close+0x6a>
 8002314:	2301      	movs	r3, #1
  (void)USB_DeactivateEndpoint(hpcd->Instance, ep);
 8002316:	6820      	ldr	r0, [r4, #0]
  __HAL_LOCK(hpcd);
 8002318:	f884 3494 	strb.w	r3, [r4, #1172]	@ 0x494
  (void)USB_DeactivateEndpoint(hpcd->Instance, ep);
 800231c:	f003 f80e 	bl	800533c <USB_DeactivateEndpoint>
  __HAL_UNLOCK(hpcd);
 8002320:	2300      	movs	r3, #0
  return HAL_OK;
 8002322:	4618      	mov	r0, r3
  __HAL_UNLOCK(hpcd);
 8002324:	f884 3494 	strb.w	r3, [r4, #1172]	@ 0x494
}
 8002328:	bd10      	pop	{r4, pc}
    ep = &hpcd->IN_ep[ep_addr & EP_ADDR_MSK];
 800232a:	f103 0114 	add.w	r1, r3, #20
    ep->is_in = 1U;
 800232e:	eb02 00c2 	add.w	r0, r2, r2, lsl #3
 8002332:	f04f 0c01 	mov.w	ip, #1
 8002336:	eb04 0380 	add.w	r3, r4, r0, lsl #2
    ep = &hpcd->IN_ep[ep_addr & EP_ADDR_MSK];
 800233a:	4421      	add	r1, r4
    ep->is_in = 1U;
 800233c:	f883 c015 	strb.w	ip, [r3, #21]
  ep->num = ep_addr & EP_ADDR_MSK;
 8002340:	700a      	strb	r2, [r1, #0]
  __HAL_LOCK(hpcd);
 8002342:	f894 3494 	ldrb.w	r3, [r4, #1172]	@ 0x494
 8002346:	2b01      	cmp	r3, #1
 8002348:	d1e4      	bne.n	8002314 <HAL_PCD_EP_Close+0x34>
 800234a:	2002      	movs	r0, #2
}
 800234c:	bd10      	pop	{r4, pc}
 800234e:	bf00      	nop

08002350 <HAL_PCD_EP_Receive>:
{
 8002350:	b510      	push	{r4, lr}
 8002352:	f001 0e0f 	and.w	lr, r1, #15
 8002356:	4614      	mov	r4, r2
  ep = &hpcd->OUT_ep[ep_addr & EP_ADDR_MSK];
 8002358:	2124      	movs	r1, #36	@ 0x24
  ep->xfer_buff = pBuf;
 800235a:	eb0e 0cce 	add.w	ip, lr, lr, lsl #3
  ep = &hpcd->OUT_ep[ep_addr & EP_ADDR_MSK];
 800235e:	fb01 010e 	mla	r1, r1, lr, r0
  ep->xfer_buff = pBuf;
 8002362:	eb00 0c8c 	add.w	ip, r0, ip, lsl #2
  ep = &hpcd->OUT_ep[ep_addr & EP_ADDR_MSK];
 8002366:	f501 7115 	add.w	r1, r1, #596	@ 0x254
  ep->xfer_len = len;
 800236a:	f8cc 3264 	str.w	r3, [ip, #612]	@ 0x264
  ep->xfer_count = 0U;
 800236e:	2300      	movs	r3, #0
  ep->num = ep_addr & EP_ADDR_MSK;
 8002370:	f88c e254 	strb.w	lr, [ip, #596]	@ 0x254
  ep->xfer_buff = pBuf;
 8002374:	f8cc 2260 	str.w	r2, [ip, #608]	@ 0x260
  ep->xfer_count = 0U;
 8002378:	f8cc 3268 	str.w	r3, [ip, #616]	@ 0x268
  ep->is_in = 0U;
 800237c:	f88c 3255 	strb.w	r3, [ip, #597]	@ 0x255
  if (hpcd->Init.dma_enable == 1U)
 8002380:	7982      	ldrb	r2, [r0, #6]
  (void)USB_EPStartXfer(hpcd->Instance, ep, (uint8_t)hpcd->Init.dma_enable);
 8002382:	6800      	ldr	r0, [r0, #0]
  if (hpcd->Init.dma_enable == 1U)
 8002384:	2a01      	cmp	r2, #1
    ep->dma_addr = (uint32_t)pBuf;
 8002386:	bf08      	it	eq
 8002388:	f8cc 4270 	streq.w	r4, [ip, #624]	@ 0x270
  (void)USB_EPStartXfer(hpcd->Instance, ep, (uint8_t)hpcd->Init.dma_enable);
 800238c:	f003 f834 	bl	80053f8 <USB_EPStartXfer>
}
 8002390:	2000      	movs	r0, #0
 8002392:	bd10      	pop	{r4, pc}

08002394 <HAL_PCD_EP_Transmit>:
{
 8002394:	b510      	push	{r4, lr}
 8002396:	f001 0e0f 	and.w	lr, r1, #15
 800239a:	4614      	mov	r4, r2
  ep = &hpcd->IN_ep[ep_addr & EP_ADDR_MSK];
 800239c:	2124      	movs	r1, #36	@ 0x24
  ep->xfer_buff = pBuf;
 800239e:	eb0e 0cce 	add.w	ip, lr, lr, lsl #3
  ep = &hpcd->IN_ep[ep_addr & EP_ADDR_MSK];
 80023a2:	fb01 010e 	mla	r1, r1, lr, r0
  ep->xfer_buff = pBuf;
 80023a6:	eb00 0c8c 	add.w	ip, r0, ip, lsl #2
  ep = &hpcd->IN_ep[ep_addr & EP_ADDR_MSK];
 80023aa:	3114      	adds	r1, #20
  ep->xfer_len = len;
 80023ac:	f8cc 3024 	str.w	r3, [ip, #36]	@ 0x24
  ep->xfer_count = 0U;
 80023b0:	2300      	movs	r3, #0
  ep->num = ep_addr & EP_ADDR_MSK;
 80023b2:	f88c e014 	strb.w	lr, [ip, #20]
  ep->xfer_count = 0U;
 80023b6:	f8cc 3028 	str.w	r3, [ip, #40]	@ 0x28
  ep->is_in = 1U;
 80023ba:	2301      	movs	r3, #1
  ep->xfer_buff = pBuf;
 80023bc:	f8cc 2020 	str.w	r2, [ip, #32]
  ep->is_in = 1U;
 80023c0:	f88c 3015 	strb.w	r3, [ip, #21]
  if (hpcd->Init.dma_enable == 1U)
 80023c4:	7982      	ldrb	r2, [r0, #6]
  (void)USB_EPStartXfer(hpcd->Instance, ep, (uint8_t)hpcd->Init.dma_enable);
 80023c6:	6800      	ldr	r0, [r0, #0]
  if (hpcd->Init.dma_enable == 1U)
 80023c8:	429a      	cmp	r2, r3
    ep->dma_addr = (uint32_t)pBuf;
 80023ca:	bf08      	it	eq
 80023cc:	f8cc 4030 	streq.w	r4, [ip, #48]	@ 0x30
  (void)USB_EPStartXfer(hpcd->Instance, ep, (uint8_t)hpcd->Init.dma_enable);
 80023d0:	f003 f812 	bl	80053f8 <USB_EPStartXfer>
}
 80023d4:	2000      	movs	r0, #0
 80023d6:	bd10      	pop	{r4, pc}

080023d8 <HAL_PCD_EP_SetStall>:
{
 80023d8:	b538      	push	{r3, r4, r5, lr}
 80023da:	f001 050f 	and.w	r5, r1, #15
  if (((uint32_t)ep_addr & EP_ADDR_MSK) > hpcd->Init.dev_endpoints)
 80023de:	7903      	ldrb	r3, [r0, #4]
 80023e0:	42ab      	cmp	r3, r5
 80023e2:	d333      	bcc.n	800244c <HAL_PCD_EP_SetStall+0x74>
  if ((0x80U & ep_addr) == 0x80U)
 80023e4:	060b      	lsls	r3, r1, #24
 80023e6:	4604      	mov	r4, r0
 80023e8:	d41d      	bmi.n	8002426 <HAL_PCD_EP_SetStall+0x4e>
    ep = &hpcd->OUT_ep[ep_addr];
 80023ea:	2224      	movs	r2, #36	@ 0x24
    ep->is_in = 0U;
 80023ec:	eb01 03c1 	add.w	r3, r1, r1, lsl #3
    ep = &hpcd->OUT_ep[ep_addr];
 80023f0:	fb02 0101 	mla	r1, r2, r1, r0
    ep->is_in = 0U;
 80023f4:	eb00 0383 	add.w	r3, r0, r3, lsl #2
 80023f8:	2200      	movs	r2, #0
    ep = &hpcd->OUT_ep[ep_addr];
 80023fa:	f501 7115 	add.w	r1, r1, #596	@ 0x254
    ep->is_in = 0U;
 80023fe:	f883 2255 	strb.w	r2, [r3, #597]	@ 0x255
  ep->is_stall = 1U;
 8002402:	2301      	movs	r3, #1
  ep->num = ep_addr & EP_ADDR_MSK;
 8002404:	700d      	strb	r5, [r1, #0]
  ep->is_stall = 1U;
 8002406:	708b      	strb	r3, [r1, #2]
  __HAL_LOCK(hpcd);
 8002408:	f894 2494 	ldrb.w	r2, [r4, #1172]	@ 0x494
 800240c:	429a      	cmp	r2, r3
 800240e:	d01b      	beq.n	8002448 <HAL_PCD_EP_SetStall+0x70>
  (void)USB_EPSetStall(hpcd->Instance, ep);
 8002410:	6820      	ldr	r0, [r4, #0]
  __HAL_LOCK(hpcd);
 8002412:	f884 3494 	strb.w	r3, [r4, #1172]	@ 0x494
  (void)USB_EPSetStall(hpcd->Instance, ep);
 8002416:	f003 f999 	bl	800574c <USB_EPSetStall>
  if ((ep_addr & EP_ADDR_MSK) == 0U)
 800241a:	b1cd      	cbz	r5, 8002450 <HAL_PCD_EP_SetStall+0x78>
  __HAL_UNLOCK(hpcd);
 800241c:	2300      	movs	r3, #0
  return HAL_OK;
 800241e:	4618      	mov	r0, r3
  __HAL_UNLOCK(hpcd);
 8002420:	f884 3494 	strb.w	r3, [r4, #1172]	@ 0x494
}
 8002424:	bd38      	pop	{r3, r4, r5, pc}
    ep = &hpcd->IN_ep[ep_addr & EP_ADDR_MSK];
 8002426:	2124      	movs	r1, #36	@ 0x24
    ep->is_in = 1U;
 8002428:	eb05 03c5 	add.w	r3, r5, r5, lsl #3
 800242c:	2201      	movs	r2, #1
    ep = &hpcd->IN_ep[ep_addr & EP_ADDR_MSK];
 800242e:	fb01 0105 	mla	r1, r1, r5, r0
    ep->is_in = 1U;
 8002432:	eb00 0383 	add.w	r3, r0, r3, lsl #2
    ep = &hpcd->IN_ep[ep_addr & EP_ADDR_MSK];
 8002436:	3114      	adds	r1, #20
    ep->is_in = 1U;
 8002438:	755a      	strb	r2, [r3, #21]
  ep->is_stall = 1U;
 800243a:	2301      	movs	r3, #1
  ep->num = ep_addr & EP_ADDR_MSK;
 800243c:	700d      	strb	r5, [r1, #0]
  ep->is_stall = 1U;
 800243e:	708b      	strb	r3, [r1, #2]
  __HAL_LOCK(hpcd);
 8002440:	f894 2494 	ldrb.w	r2, [r4, #1172]	@ 0x494
 8002444:	429a      	cmp	r2, r3
 8002446:	d1e3      	bne.n	8002410 <HAL_PCD_EP_SetStall+0x38>
 8002448:	2002      	movs	r0, #2
}
 800244a:	bd38      	pop	{r3, r4, r5, pc}
    return HAL_ERROR;
 800244c:	2001      	movs	r0, #1
}
 800244e:	bd38      	pop	{r3, r4, r5, pc}
    (void)USB_EP0_OutStart(hpcd->Instance, (uint8_t)hpcd->Init.dma_enable, (uint8_t *)hpcd->Setup);
 8002450:	f204 429c 	addw	r2, r4, #1180	@ 0x49c
 8002454:	79a1      	ldrb	r1, [r4, #6]
 8002456:	6820      	ldr	r0, [r4, #0]
 8002458:	f003 fa56 	bl	8005908 <USB_EP0_OutStart>
 800245c:	e7de      	b.n	800241c <HAL_PCD_EP_SetStall+0x44>
 800245e:	bf00      	nop

08002460 <HAL_PCD_EP_ClrStall>:
  if (((uint32_t)ep_addr & 0x0FU) > hpcd->Init.dev_endpoints)
 8002460:	f001 020f 	and.w	r2, r1, #15
{
 8002464:	b538      	push	{r3, r4, r5, lr}
  if (((uint32_t)ep_addr & 0x0FU) > hpcd->Init.dev_endpoints)
 8002466:	7903      	ldrb	r3, [r0, #4]
 8002468:	4293      	cmp	r3, r2
 800246a:	d332      	bcc.n	80024d2 <HAL_PCD_EP_ClrStall+0x72>
  if ((0x80U & ep_addr) == 0x80U)
 800246c:	eb02 03c2 	add.w	r3, r2, r2, lsl #3
 8002470:	0609      	lsls	r1, r1, #24
 8002472:	4604      	mov	r4, r0
 8002474:	ea4f 0383 	mov.w	r3, r3, lsl #2
 8002478:	d41a      	bmi.n	80024b0 <HAL_PCD_EP_ClrStall+0x50>
    ep->is_in = 0U;
 800247a:	eb02 00c2 	add.w	r0, r2, r2, lsl #3
    ep = &hpcd->OUT_ep[ep_addr & EP_ADDR_MSK];
 800247e:	f503 7315 	add.w	r3, r3, #596	@ 0x254
    ep->is_in = 0U;
 8002482:	2500      	movs	r5, #0
 8002484:	eb04 0080 	add.w	r0, r4, r0, lsl #2
    ep = &hpcd->OUT_ep[ep_addr & EP_ADDR_MSK];
 8002488:	18e1      	adds	r1, r4, r3
    ep->is_in = 0U;
 800248a:	f880 5255 	strb.w	r5, [r0, #597]	@ 0x255
  ep->is_stall = 0U;
 800248e:	2500      	movs	r5, #0
  ep->num = ep_addr & EP_ADDR_MSK;
 8002490:	700a      	strb	r2, [r1, #0]
  ep->is_stall = 0U;
 8002492:	708d      	strb	r5, [r1, #2]
  __HAL_LOCK(hpcd);
 8002494:	f894 3494 	ldrb.w	r3, [r4, #1172]	@ 0x494
 8002498:	2b01      	cmp	r3, #1
 800249a:	d018      	beq.n	80024ce <HAL_PCD_EP_ClrStall+0x6e>
 800249c:	2301      	movs	r3, #1
  (void)USB_EPClearStall(hpcd->Instance, ep);
 800249e:	6820      	ldr	r0, [r4, #0]
  __HAL_LOCK(hpcd);
 80024a0:	f884 3494 	strb.w	r3, [r4, #1172]	@ 0x494
  (void)USB_EPClearStall(hpcd->Instance, ep);
 80024a4:	f003 f98a 	bl	80057bc <USB_EPClearStall>
  return HAL_OK;
 80024a8:	4628      	mov	r0, r5
  __HAL_UNLOCK(hpcd);
 80024aa:	f884 5494 	strb.w	r5, [r4, #1172]	@ 0x494
}
 80024ae:	bd38      	pop	{r3, r4, r5, pc}
    ep->is_in = 1U;
 80024b0:	eb02 00c2 	add.w	r0, r2, r2, lsl #3
    ep = &hpcd->IN_ep[ep_addr & EP_ADDR_MSK];
 80024b4:	3314      	adds	r3, #20
    ep->is_in = 1U;
 80024b6:	2501      	movs	r5, #1
 80024b8:	eb04 0080 	add.w	r0, r4, r0, lsl #2
    ep = &hpcd->IN_ep[ep_addr & EP_ADDR_MSK];
 80024bc:	18e1      	adds	r1, r4, r3
    ep->is_in = 1U;
 80024be:	7545      	strb	r5, [r0, #21]
  ep->is_stall = 0U;
 80024c0:	2500      	movs	r5, #0
  ep->num = ep_addr & EP_ADDR_MSK;
 80024c2:	700a      	strb	r2, [r1, #0]
  ep->is_stall = 0U;
 80024c4:	708d      	strb	r5, [r1, #2]
  __HAL_LOCK(hpcd);
 80024c6:	f894 3494 	ldrb.w	r3, [r4, #1172]	@ 0x494
 80024ca:	2b01      	cmp	r3, #1
 80024cc:	d1e6      	bne.n	800249c <HAL_PCD_EP_ClrStall+0x3c>
 80024ce:	2002      	movs	r0, #2
}
 80024d0:	bd38      	pop	{r3, r4, r5, pc}
    return HAL_ERROR;
 80024d2:	2001      	movs	r0, #1
}
 80024d4:	bd38      	pop	{r3, r4, r5, pc}
 80024d6:	bf00      	nop

080024d8 <HAL_PCDEx_SetTxFiFo>:
         --> Txn should be configured with the minimum space of 16 words
     The FIFO is used optimally when used TxFIFOs are allocated in the top
         of the FIFO.Ex: use EP1 and EP2 as IN instead of EP1 and EP3 as IN ones.
     When DMA is used 3n * FIFO locations should be reserved for internal DMA registers */

  Tx_Offset = hpcd->Instance->GRXFSIZ;
 80024d8:	6800      	ldr	r0, [r0, #0]

  if (fifo == 0U)
  {
    hpcd->Instance->DIEPTXF0_HNPTXFSIZ = ((uint32_t)size << 16) | Tx_Offset;
 80024da:	0412      	lsls	r2, r2, #16
  Tx_Offset = hpcd->Instance->GRXFSIZ;
 80024dc:	6a43      	ldr	r3, [r0, #36]	@ 0x24
  if (fifo == 0U)
 80024de:	b919      	cbnz	r1, 80024e8 <HAL_PCDEx_SetTxFiFo+0x10>
    hpcd->Instance->DIEPTXF0_HNPTXFSIZ = ((uint32_t)size << 16) | Tx_Offset;
 80024e0:	4313      	orrs	r3, r2
 80024e2:	6283      	str	r3, [r0, #40]	@ 0x28
    /* Multiply Tx_Size by 2 to get higher performance */
    hpcd->Instance->DIEPTXF[fifo - 1U] = ((uint32_t)size << 16) | Tx_Offset;
  }

  return HAL_OK;
}
 80024e4:	2000      	movs	r0, #0
 80024e6:	4770      	bx	lr
{
 80024e8:	b430      	push	{r4, r5}
    for (i = 0U; i < (fifo - 1U); i++)
 80024ea:	3901      	subs	r1, #1
    Tx_Offset += (hpcd->Instance->DIEPTXF0_HNPTXFSIZ) >> 16;
 80024ec:	6a84      	ldr	r4, [r0, #40]	@ 0x28
 80024ee:	eb03 4314 	add.w	r3, r3, r4, lsr #16
    for (i = 0U; i < (fifo - 1U); i++)
 80024f2:	d06b      	beq.n	80025cc <HAL_PCDEx_SetTxFiFo+0xf4>
      Tx_Offset += (hpcd->Instance->DIEPTXF[i] >> 16);
 80024f4:	f8d0 4104 	ldr.w	r4, [r0, #260]	@ 0x104
    for (i = 0U; i < (fifo - 1U); i++)
 80024f8:	2901      	cmp	r1, #1
      Tx_Offset += (hpcd->Instance->DIEPTXF[i] >> 16);
 80024fa:	eb03 4314 	add.w	r3, r3, r4, lsr #16
    for (i = 0U; i < (fifo - 1U); i++)
 80024fe:	d065      	beq.n	80025cc <HAL_PCDEx_SetTxFiFo+0xf4>
      Tx_Offset += (hpcd->Instance->DIEPTXF[i] >> 16);
 8002500:	f8d0 4108 	ldr.w	r4, [r0, #264]	@ 0x108
    for (i = 0U; i < (fifo - 1U); i++)
 8002504:	2902      	cmp	r1, #2
      Tx_Offset += (hpcd->Instance->DIEPTXF[i] >> 16);
 8002506:	eb03 4314 	add.w	r3, r3, r4, lsr #16
    for (i = 0U; i < (fifo - 1U); i++)
 800250a:	d05f      	beq.n	80025cc <HAL_PCDEx_SetTxFiFo+0xf4>
      Tx_Offset += (hpcd->Instance->DIEPTXF[i] >> 16);
 800250c:	f8d0 410c 	ldr.w	r4, [r0, #268]	@ 0x10c
    for (i = 0U; i < (fifo - 1U); i++)
 8002510:	2903      	cmp	r1, #3
      Tx_Offset += (hpcd->Instance->DIEPTXF[i] >> 16);
 8002512:	eb03 4314 	add.w	r3, r3, r4, lsr #16
    for (i = 0U; i < (fifo - 1U); i++)
 8002516:	d059      	beq.n	80025cc <HAL_PCDEx_SetTxFiFo+0xf4>
      Tx_Offset += (hpcd->Instance->DIEPTXF[i] >> 16);
 8002518:	f8d0 4110 	ldr.w	r4, [r0, #272]	@ 0x110
    for (i = 0U; i < (fifo - 1U); i++)
 800251c:	2904      	cmp	r1, #4
      Tx_Offset += (hpcd->Instance->DIEPTXF[i] >> 16);
 800251e:	eb03 4314 	add.w	r3, r3, r4, lsr #16
    for (i = 0U; i < (fifo - 1U); i++)
 8002522:	d053      	beq.n	80025cc <HAL_PCDEx_SetTxFiFo+0xf4>
      Tx_Offset += (hpcd->Instance->DIEPTXF[i] >> 16);
 8002524:	f8d0 4114 	ldr.w	r4, [r0, #276]	@ 0x114
    for (i = 0U; i < (fifo - 1U); i++)
 8002528:	2905      	cmp	r1, #5
      Tx_Offset += (hpcd->Instance->DIEPTXF[i] >> 16);
 800252a:	eb03 4314 	add.w	r3, r3, r4, lsr #16
    for (i = 0U; i < (fifo - 1U); i++)
 800252e:	d04d      	beq.n	80025cc <HAL_PCDEx_SetTxFiFo+0xf4>
      Tx_Offset += (hpcd->Instance->DIEPTXF[i] >> 16);
 8002530:	f8d0 4118 	ldr.w	r4, [r0, #280]	@ 0x118
    for (i = 0U; i < (fifo - 1U); i++)
 8002534:	2906      	cmp	r1, #6
      Tx_Offset += (hpcd->Instance->DIEPTXF[i] >> 16);
 8002536:	eb03 4314 	add.w	r3, r3, r4, lsr #16
    for (i = 0U; i < (fifo - 1U); i++)
 800253a:	d047      	beq.n	80025cc <HAL_PCDEx_SetTxFiFo+0xf4>
      Tx_Offset += (hpcd->Instance->DIEPTXF[i] >> 16);
 800253c:	f8d0 411c 	ldr.w	r4, [r0, #284]	@ 0x11c
    for (i = 0U; i < (fifo - 1U); i++)
 8002540:	2907      	cmp	r1, #7
      Tx_Offset += (hpcd->Instance->DIEPTXF[i] >> 16);
 8002542:	eb03 4314 	add.w	r3, r3, r4, lsr #16
    for (i = 0U; i < (fifo - 1U); i++)
 8002546:	d041      	beq.n	80025cc <HAL_PCDEx_SetTxFiFo+0xf4>
      Tx_Offset += (hpcd->Instance->DIEPTXF[i] >> 16);
 8002548:	f8d0 4120 	ldr.w	r4, [r0, #288]	@ 0x120
    for (i = 0U; i < (fifo - 1U); i++)
 800254c:	2908      	cmp	r1, #8
      Tx_Offset += (hpcd->Instance->DIEPTXF[i] >> 16);
 800254e:	eb03 4314 	add.w	r3, r3, r4, lsr #16
    for (i = 0U; i < (fifo - 1U); i++)
 8002552:	d03b      	beq.n	80025cc <HAL_PCDEx_SetTxFiFo+0xf4>
      Tx_Offset += (hpcd->Instance->DIEPTXF[i] >> 16);
 8002554:	f8d0 4124 	ldr.w	r4, [r0, #292]	@ 0x124
    for (i = 0U; i < (fifo - 1U); i++)
 8002558:	2909      	cmp	r1, #9
      Tx_Offset += (hpcd->Instance->DIEPTXF[i] >> 16);
 800255a:	eb03 4314 	add.w	r3, r3, r4, lsr #16
    for (i = 0U; i < (fifo - 1U); i++)
 800255e:	d035      	beq.n	80025cc <HAL_PCDEx_SetTxFiFo+0xf4>
      Tx_Offset += (hpcd->Instance->DIEPTXF[i] >> 16);
 8002560:	f8d0 4128 	ldr.w	r4, [r0, #296]	@ 0x128
    for (i = 0U; i < (fifo - 1U); i++)
 8002564:	290a      	cmp	r1, #10
      Tx_Offset += (hpcd->Instance->DIEPTXF[i] >> 16);
 8002566:	eb03 4314 	add.w	r3, r3, r4, lsr #16
    for (i = 0U; i < (fifo - 1U); i++)
 800256a:	d02f      	beq.n	80025cc <HAL_PCDEx_SetTxFiFo+0xf4>
      Tx_Offset += (hpcd->Instance->DIEPTXF[i] >> 16);
 800256c:	f8d0 412c 	ldr.w	r4, [r0, #300]	@ 0x12c
    for (i = 0U; i < (fifo - 1U); i++)
 8002570:	290b      	cmp	r1, #11
      Tx_Offset += (hpcd->Instance->DIEPTXF[i] >> 16);
 8002572:	eb03 4314 	add.w	r3, r3, r4, lsr #16
    for (i = 0U; i < (fifo - 1U); i++)
 8002576:	d029      	beq.n	80025cc <HAL_PCDEx_SetTxFiFo+0xf4>
      Tx_Offset += (hpcd->Instance->DIEPTXF[i] >> 16);
 8002578:	f8d0 4130 	ldr.w	r4, [r0, #304]	@ 0x130
    for (i = 0U; i < (fifo - 1U); i++)
 800257c:	290c      	cmp	r1, #12
      Tx_Offset += (hpcd->Instance->DIEPTXF[i] >> 16);
 800257e:	eb03 4314 	add.w	r3, r3, r4, lsr #16
    for (i = 0U; i < (fifo - 1U); i++)
 8002582:	d023      	beq.n	80025cc <HAL_PCDEx_SetTxFiFo+0xf4>
      Tx_Offset += (hpcd->Instance->DIEPTXF[i] >> 16);
 8002584:	f8d0 4134 	ldr.w	r4, [r0, #308]	@ 0x134
    for (i = 0U; i < (fifo - 1U); i++)
 8002588:	290d      	cmp	r1, #13
      Tx_Offset += (hpcd->Instance->DIEPTXF[i] >> 16);
 800258a:	eb03 4314 	add.w	r3, r3, r4, lsr #16
    for (i = 0U; i < (fifo - 1U); i++)
 800258e:	d01d      	beq.n	80025cc <HAL_PCDEx_SetTxFiFo+0xf4>
      Tx_Offset += (hpcd->Instance->DIEPTXF[i] >> 16);
 8002590:	f8d0 4138 	ldr.w	r4, [r0, #312]	@ 0x138
    for (i = 0U; i < (fifo - 1U); i++)
 8002594:	290e      	cmp	r1, #14
      Tx_Offset += (hpcd->Instance->DIEPTXF[i] >> 16);
 8002596:	eb03 4314 	add.w	r3, r3, r4, lsr #16
    for (i = 0U; i < (fifo - 1U); i++)
 800259a:	d017      	beq.n	80025cc <HAL_PCDEx_SetTxFiFo+0xf4>
      Tx_Offset += (hpcd->Instance->DIEPTXF[i] >> 16);
 800259c:	f8d0 413c 	ldr.w	r4, [r0, #316]	@ 0x13c
    for (i = 0U; i < (fifo - 1U); i++)
 80025a0:	290f      	cmp	r1, #15
      Tx_Offset += (hpcd->Instance->DIEPTXF[i] >> 16);
 80025a2:	eb03 4314 	add.w	r3, r3, r4, lsr #16
    for (i = 0U; i < (fifo - 1U); i++)
 80025a6:	d011      	beq.n	80025cc <HAL_PCDEx_SetTxFiFo+0xf4>
      Tx_Offset += (hpcd->Instance->DIEPTXF[i] >> 16);
 80025a8:	f8d0 4140 	ldr.w	r4, [r0, #320]	@ 0x140
    for (i = 0U; i < (fifo - 1U); i++)
 80025ac:	2910      	cmp	r1, #16
      Tx_Offset += (hpcd->Instance->DIEPTXF[i] >> 16);
 80025ae:	eb03 4314 	add.w	r3, r3, r4, lsr #16
    for (i = 0U; i < (fifo - 1U); i++)
 80025b2:	d00b      	beq.n	80025cc <HAL_PCDEx_SetTxFiFo+0xf4>
 80025b4:	2410      	movs	r4, #16
      Tx_Offset += (hpcd->Instance->DIEPTXF[i] >> 16);
 80025b6:	f104 0c40 	add.w	ip, r4, #64	@ 0x40
    for (i = 0U; i < (fifo - 1U); i++)
 80025ba:	3401      	adds	r4, #1
      Tx_Offset += (hpcd->Instance->DIEPTXF[i] >> 16);
 80025bc:	eb00 0c8c 	add.w	ip, r0, ip, lsl #2
    for (i = 0U; i < (fifo - 1U); i++)
 80025c0:	428c      	cmp	r4, r1
      Tx_Offset += (hpcd->Instance->DIEPTXF[i] >> 16);
 80025c2:	f8dc 5004 	ldr.w	r5, [ip, #4]
 80025c6:	eb03 4315 	add.w	r3, r3, r5, lsr #16
    for (i = 0U; i < (fifo - 1U); i++)
 80025ca:	d3f4      	bcc.n	80025b6 <HAL_PCDEx_SetTxFiFo+0xde>
    hpcd->Instance->DIEPTXF[fifo - 1U] = ((uint32_t)size << 16) | Tx_Offset;
 80025cc:	3140      	adds	r1, #64	@ 0x40
 80025ce:	431a      	orrs	r2, r3
 80025d0:	eb00 0381 	add.w	r3, r0, r1, lsl #2
}
 80025d4:	2000      	movs	r0, #0
 80025d6:	bc30      	pop	{r4, r5}
    hpcd->Instance->DIEPTXF[fifo - 1U] = ((uint32_t)size << 16) | Tx_Offset;
 80025d8:	605a      	str	r2, [r3, #4]
}
 80025da:	4770      	bx	lr

080025dc <HAL_PCDEx_SetRxFiFo>:
  * @param  hpcd PCD handle
  * @param  size Size of Rx fifo
  * @retval HAL status
  */
HAL_StatusTypeDef HAL_PCDEx_SetRxFiFo(PCD_HandleTypeDef *hpcd, uint16_t size)
{
 80025dc:	4603      	mov	r3, r0
  hpcd->Instance->GRXFSIZ = size;

  return HAL_OK;
}
 80025de:	2000      	movs	r0, #0
  hpcd->Instance->GRXFSIZ = size;
 80025e0:	681b      	ldr	r3, [r3, #0]
 80025e2:	6259      	str	r1, [r3, #36]	@ 0x24
}
 80025e4:	4770      	bx	lr
 80025e6:	bf00      	nop

080025e8 <HAL_PCDEx_ActivateLPM>:
  * @brief  Activate LPM feature.
  * @param  hpcd PCD handle
  * @retval HAL status
  */
HAL_StatusTypeDef HAL_PCDEx_ActivateLPM(PCD_HandleTypeDef *hpcd)
{
 80025e8:	4603      	mov	r3, r0
  USB_OTG_GlobalTypeDef *USBx = hpcd->Instance;

  hpcd->lpm_active = 1U;
  hpcd->LPM_State = LPM_L0;
 80025ea:	f04f 0c00 	mov.w	ip, #0
  USBx->GINTMSK |= USB_OTG_GINTMSK_LPMINTM;
  USBx->GLPMCFG |= (USB_OTG_GLPMCFG_LPMEN | USB_OTG_GLPMCFG_LPMACK | USB_OTG_GLPMCFG_ENBESL);
 80025ee:	4909      	ldr	r1, [pc, #36]	@ (8002614 <HAL_PCDEx_ActivateLPM+0x2c>)
  USB_OTG_GlobalTypeDef *USBx = hpcd->Instance;
 80025f0:	681a      	ldr	r2, [r3, #0]

  return HAL_OK;
}
 80025f2:	4660      	mov	r0, ip
{
 80025f4:	b410      	push	{r4}
  hpcd->lpm_active = 1U;
 80025f6:	2401      	movs	r4, #1
  hpcd->LPM_State = LPM_L0;
 80025f8:	f883 c4cc 	strb.w	ip, [r3, #1228]	@ 0x4cc
  hpcd->lpm_active = 1U;
 80025fc:	f8c3 44d8 	str.w	r4, [r3, #1240]	@ 0x4d8
  USBx->GINTMSK |= USB_OTG_GINTMSK_LPMINTM;
 8002600:	6993      	ldr	r3, [r2, #24]
}
 8002602:	f85d 4b04 	ldr.w	r4, [sp], #4
  USBx->GINTMSK |= USB_OTG_GINTMSK_LPMINTM;
 8002606:	f043 6300 	orr.w	r3, r3, #134217728	@ 0x8000000
 800260a:	6193      	str	r3, [r2, #24]
  USBx->GLPMCFG |= (USB_OTG_GLPMCFG_LPMEN | USB_OTG_GLPMCFG_LPMACK | USB_OTG_GLPMCFG_ENBESL);
 800260c:	6d53      	ldr	r3, [r2, #84]	@ 0x54
 800260e:	4319      	orrs	r1, r3
 8002610:	6551      	str	r1, [r2, #84]	@ 0x54
}
 8002612:	4770      	bx	lr
 8002614:	10000003 	.word	0x10000003

08002618 <HAL_PCDEx_LPM_Callback>:
  UNUSED(msg);

  /* NOTE : This function should not be modified, when the callback is needed,
            the HAL_PCDEx_LPM_Callback could be implemented in the user file
   */
}
 8002618:	4770      	bx	lr
 800261a:	bf00      	nop

0800261c <HAL_PWREx_ConfigSupply>:
  *         process during startup.
  *         For more details, please refer to the power control chapter in the reference manual
  * @retval HAL status.
  */
HAL_StatusTypeDef HAL_PWREx_ConfigSupply (uint32_t SupplySource)
{
 800261c:	b538      	push	{r3, r4, r5, lr}
  /* Check the parameters */
  assert_param (IS_PWR_SUPPLY (SupplySource));

  /* Check if supply source was configured */
#if defined (PWR_FLAG_SCUEN)
  if (__HAL_PWR_GET_FLAG (PWR_FLAG_SCUEN) == 0U)
 800261e:	4c10      	ldr	r4, [pc, #64]	@ (8002660 <HAL_PWREx_ConfigSupply+0x44>)
 8002620:	68e3      	ldr	r3, [r4, #12]
 8002622:	f013 0f04 	tst.w	r3, #4
#else
  if ((PWR->CR3 & (PWR_CR3_SMPSEN | PWR_CR3_LDOEN | PWR_CR3_BYPASS)) != (PWR_CR3_SMPSEN | PWR_CR3_LDOEN))
#endif /* defined (PWR_FLAG_SCUEN) */
  {
    /* Check supply configuration */
    if ((PWR->CR3 & PWR_SUPPLY_CONFIG_MASK) != SupplySource)
 8002626:	68e3      	ldr	r3, [r4, #12]
  if (__HAL_PWR_GET_FLAG (PWR_FLAG_SCUEN) == 0U)
 8002628:	d105      	bne.n	8002636 <HAL_PWREx_ConfigSupply+0x1a>
    if ((PWR->CR3 & PWR_SUPPLY_CONFIG_MASK) != SupplySource)
 800262a:	f003 0307 	and.w	r3, r3, #7
 800262e:	1a18      	subs	r0, r3, r0
 8002630:	bf18      	it	ne
 8002632:	2001      	movne	r0, #1
    }
  }
#endif /* defined (SMPS) */

  return HAL_OK;
}
 8002634:	bd38      	pop	{r3, r4, r5, pc}
  MODIFY_REG (PWR->CR3, PWR_SUPPLY_CONFIG_MASK, SupplySource);
 8002636:	f023 0307 	bic.w	r3, r3, #7
 800263a:	4303      	orrs	r3, r0
 800263c:	60e3      	str	r3, [r4, #12]
  tickstart = HAL_GetTick ();
 800263e:	f7fe fc25 	bl	8000e8c <HAL_GetTick>
 8002642:	4605      	mov	r5, r0
  while (__HAL_PWR_GET_FLAG (PWR_FLAG_ACTVOSRDY) == 0U)
 8002644:	e005      	b.n	8002652 <HAL_PWREx_ConfigSupply+0x36>
    if ((HAL_GetTick () - tickstart) > PWR_FLAG_SETTING_DELAY)
 8002646:	f7fe fc21 	bl	8000e8c <HAL_GetTick>
 800264a:	1b40      	subs	r0, r0, r5
 800264c:	f5b0 7f7a 	cmp.w	r0, #1000	@ 0x3e8
 8002650:	d804      	bhi.n	800265c <HAL_PWREx_ConfigSupply+0x40>
  while (__HAL_PWR_GET_FLAG (PWR_FLAG_ACTVOSRDY) == 0U)
 8002652:	6863      	ldr	r3, [r4, #4]
 8002654:	049b      	lsls	r3, r3, #18
 8002656:	d5f6      	bpl.n	8002646 <HAL_PWREx_ConfigSupply+0x2a>
      return HAL_OK;
 8002658:	2000      	movs	r0, #0
}
 800265a:	bd38      	pop	{r3, r4, r5, pc}
      return HAL_ERROR;
 800265c:	2001      	movs	r0, #1
}
 800265e:	bd38      	pop	{r3, r4, r5, pc}
 8002660:	58024800 	.word	0x58024800

08002664 <HAL_PWREx_EnableUSBVoltageDetector>:
  * @retval None.
  */
void HAL_PWREx_EnableUSBVoltageDetector (void)
{
  /* Enable the USB voltage detector */
  SET_BIT (PWR->CR3, PWR_CR3_USB33DEN);
 8002664:	4a02      	ldr	r2, [pc, #8]	@ (8002670 <HAL_PWREx_EnableUSBVoltageDetector+0xc>)
 8002666:	68d3      	ldr	r3, [r2, #12]
 8002668:	f043 7380 	orr.w	r3, r3, #16777216	@ 0x1000000
 800266c:	60d3      	str	r3, [r2, #12]
}
 800266e:	4770      	bx	lr
 8002670:	58024800 	.word	0x58024800

08002674 <HAL_RCC_GetSysClockFreq.part.0>:
    case RCC_CFGR_SWS_PLL1:  /* PLL1 used as system clock  source */

      /* PLL_VCO = (HSE_VALUE or HSI_VALUE or CSI_VALUE/ PLLM) * PLLN
      SYSCLK = PLL_VCO / PLLR
      */
      pllsource = (RCC->PLLCKSELR & RCC_PLLCKSELR_PLLSRC);
 8002674:	4b33      	ldr	r3, [pc, #204]	@ (8002744 <HAL_RCC_GetSysClockFreq.part.0+0xd0>)
uint32_t HAL_RCC_GetSysClockFreq(void)
 8002676:	b430      	push	{r4, r5}
      pllsource = (RCC->PLLCKSELR & RCC_PLLCKSELR_PLLSRC);
 8002678:	6a9a      	ldr	r2, [r3, #40]	@ 0x28
      pllm = ((RCC->PLLCKSELR & RCC_PLLCKSELR_DIVM1) >> 4)  ;
 800267a:	6a9c      	ldr	r4, [r3, #40]	@ 0x28
      pllfracen = ((RCC-> PLLCFGR & RCC_PLLCFGR_PLL1FRACEN) >> RCC_PLLCFGR_PLL1FRACEN_Pos);
 800267c:	6add      	ldr	r5, [r3, #44]	@ 0x2c
      fracn1 = (float_t)(uint32_t)(pllfracen * ((RCC->PLL1FRACR & RCC_PLL1FRACR_FRACN1) >> 3));

      if (pllm != 0U)
 800267e:	f414 7f7c 	tst.w	r4, #1008	@ 0x3f0
      fracn1 = (float_t)(uint32_t)(pllfracen * ((RCC->PLL1FRACR & RCC_PLL1FRACR_FRACN1) >> 3));
 8002682:	6b59      	ldr	r1, [r3, #52]	@ 0x34
      pllm = ((RCC->PLLCKSELR & RCC_PLLCKSELR_DIVM1) >> 4)  ;
 8002684:	f3c4 1005 	ubfx	r0, r4, #4, #6
      if (pllm != 0U)
 8002688:	d036      	beq.n	80026f8 <HAL_RCC_GetSysClockFreq.part.0+0x84>
      fracn1 = (float_t)(uint32_t)(pllfracen * ((RCC->PLL1FRACR & RCC_PLL1FRACR_FRACN1) >> 3));
 800268a:	f3c1 01cc 	ubfx	r1, r1, #3, #13
      pllfracen = ((RCC-> PLLCFGR & RCC_PLLCFGR_PLL1FRACEN) >> RCC_PLLCFGR_PLL1FRACEN_Pos);
 800268e:	f005 0501 	and.w	r5, r5, #1
      pllsource = (RCC->PLLCKSELR & RCC_PLLCKSELR_PLLSRC);
 8002692:	f002 0203 	and.w	r2, r2, #3
          case RCC_PLLSOURCE_HSI:  /* HSI used as PLL clock source */

            if (__HAL_RCC_GET_FLAG(RCC_FLAG_HSIDIV) != 0U)
            {
              hsivalue = (HSI_VALUE >> (__HAL_RCC_GET_HSI_DIVIDER() >> 3));
              pllvco = ((float_t)hsivalue / (float_t)pllm) * ((float_t)(uint32_t)(RCC->PLL1DIVR & RCC_PLL1DIVR_N1) + (fracn1 / (float_t)0x2000) + (float_t)1);
 8002696:	ee07 0a90 	vmov	s15, r0
      fracn1 = (float_t)(uint32_t)(pllfracen * ((RCC->PLL1FRACR & RCC_PLL1FRACR_FRACN1) >> 3));
 800269a:	fb05 f101 	mul.w	r1, r5, r1
 800269e:	2a01      	cmp	r2, #1
              pllvco = ((float_t)hsivalue / (float_t)pllm) * ((float_t)(uint32_t)(RCC->PLL1DIVR & RCC_PLL1DIVR_N1) + (fracn1 / (float_t)0x2000) + (float_t)1);
 80026a0:	eeb8 7ae7 	vcvt.f32.s32	s14, s15
 80026a4:	ee06 1a90 	vmov	s13, r1
 80026a8:	eefa 6ae9 	vcvt.f32.s32	s13, s13, #13
 80026ac:	d002      	beq.n	80026b4 <HAL_RCC_GetSysClockFreq.part.0+0x40>
 80026ae:	2a02      	cmp	r2, #2
 80026b0:	d042      	beq.n	8002738 <HAL_RCC_GetSysClockFreq.part.0+0xc4>
 80026b2:	b31a      	cbz	r2, 80026fc <HAL_RCC_GetSysClockFreq.part.0+0x88>
          case RCC_PLLSOURCE_HSE:  /* HSE used as PLL clock source */
            pllvco = ((float_t)HSE_VALUE / (float_t)pllm) * ((float_t)(uint32_t)(RCC->PLL1DIVR & RCC_PLL1DIVR_N1) + (fracn1 / (float_t)0x2000) + (float_t)1);
            break;

          default:
            pllvco = ((float_t)CSI_VALUE / (float_t)pllm) * ((float_t)(uint32_t)(RCC->PLL1DIVR & RCC_PLL1DIVR_N1) + (fracn1 / (float_t)0x2000) + (float_t)1);
 80026b4:	eddf 7a24 	vldr	s15, [pc, #144]	@ 8002748 <HAL_RCC_GetSysClockFreq.part.0+0xd4>
 80026b8:	ee87 6a87 	vdiv.f32	s12, s15, s14
 80026bc:	6b1b      	ldr	r3, [r3, #48]	@ 0x30
 80026be:	f3c3 0308 	ubfx	r3, r3, #0, #9
 80026c2:	ee07 3a90 	vmov	s15, r3
 80026c6:	eef7 5a00 	vmov.f32	s11, #112	@ 0x3f800000  1.0
 80026ca:	eef8 7ae7 	vcvt.f32.s32	s15, s15
 80026ce:	ee77 7aa5 	vadd.f32	s15, s15, s11
 80026d2:	ee77 7aa6 	vadd.f32	s15, s15, s13
 80026d6:	ee67 7a86 	vmul.f32	s15, s15, s12
            break;
        }
        pllp = (((RCC->PLL1DIVR & RCC_PLL1DIVR_P1) >> 9) + 1U) ;
 80026da:	4b1a      	ldr	r3, [pc, #104]	@ (8002744 <HAL_RCC_GetSysClockFreq.part.0+0xd0>)
 80026dc:	6b1b      	ldr	r3, [r3, #48]	@ 0x30
 80026de:	f3c3 2346 	ubfx	r3, r3, #9, #7
 80026e2:	3301      	adds	r3, #1
        sysclockfreq = (uint32_t)(float_t)(pllvco / (float_t)pllp);
 80026e4:	ee07 3a10 	vmov	s14, r3
 80026e8:	eef8 6ac7 	vcvt.f32.s32	s13, s14
 80026ec:	ee87 7aa6 	vdiv.f32	s14, s15, s13
 80026f0:	eefc 7ac7 	vcvt.u32.f32	s15, s14
 80026f4:	ee17 0a90 	vmov	r0, s15
      sysclockfreq = CSI_VALUE;
      break;
  }

  return sysclockfreq;
}
 80026f8:	bc30      	pop	{r4, r5}
 80026fa:	4770      	bx	lr
            if (__HAL_RCC_GET_FLAG(RCC_FLAG_HSIDIV) != 0U)
 80026fc:	681a      	ldr	r2, [r3, #0]
 80026fe:	0692      	lsls	r2, r2, #26
 8002700:	d51d      	bpl.n	800273e <HAL_RCC_GetSysClockFreq.part.0+0xca>
              hsivalue = (HSI_VALUE >> (__HAL_RCC_GET_HSI_DIVIDER() >> 3));
 8002702:	6819      	ldr	r1, [r3, #0]
              pllvco = ((float_t)hsivalue / (float_t)pllm) * ((float_t)(uint32_t)(RCC->PLL1DIVR & RCC_PLL1DIVR_N1) + (fracn1 / (float_t)0x2000) + (float_t)1);
 8002704:	eef7 7a00 	vmov.f32	s15, #112	@ 0x3f800000  1.0
              hsivalue = (HSI_VALUE >> (__HAL_RCC_GET_HSI_DIVIDER() >> 3));
 8002708:	4a10      	ldr	r2, [pc, #64]	@ (800274c <HAL_RCC_GetSysClockFreq.part.0+0xd8>)
              pllvco = ((float_t)hsivalue / (float_t)pllm) * ((float_t)(uint32_t)(RCC->PLL1DIVR & RCC_PLL1DIVR_N1) + (fracn1 / (float_t)0x2000) + (float_t)1);
 800270a:	6b1b      	ldr	r3, [r3, #48]	@ 0x30
              hsivalue = (HSI_VALUE >> (__HAL_RCC_GET_HSI_DIVIDER() >> 3));
 800270c:	f3c1 01c1 	ubfx	r1, r1, #3, #2
              pllvco = ((float_t)hsivalue / (float_t)pllm) * ((float_t)(uint32_t)(RCC->PLL1DIVR & RCC_PLL1DIVR_N1) + (fracn1 / (float_t)0x2000) + (float_t)1);
 8002710:	f3c3 0308 	ubfx	r3, r3, #0, #9
              hsivalue = (HSI_VALUE >> (__HAL_RCC_GET_HSI_DIVIDER() >> 3));
 8002714:	40ca      	lsrs	r2, r1
              pllvco = ((float_t)hsivalue / (float_t)pllm) * ((float_t)(uint32_t)(RCC->PLL1DIVR & RCC_PLL1DIVR_N1) + (fracn1 / (float_t)0x2000) + (float_t)1);
 8002716:	ee06 3a10 	vmov	s12, r3
 800271a:	ee05 2a90 	vmov	s11, r2
 800271e:	eeb8 6ac6 	vcvt.f32.s32	s12, s12
 8002722:	eef8 5ae5 	vcvt.f32.s32	s11, s11
 8002726:	ee36 6a27 	vadd.f32	s12, s12, s15
 800272a:	eec5 7a87 	vdiv.f32	s15, s11, s14
 800272e:	ee36 7a26 	vadd.f32	s14, s12, s13
 8002732:	ee67 7a87 	vmul.f32	s15, s15, s14
 8002736:	e7d0      	b.n	80026da <HAL_RCC_GetSysClockFreq.part.0+0x66>
            pllvco = ((float_t)HSE_VALUE / (float_t)pllm) * ((float_t)(uint32_t)(RCC->PLL1DIVR & RCC_PLL1DIVR_N1) + (fracn1 / (float_t)0x2000) + (float_t)1);
 8002738:	eddf 7a05 	vldr	s15, [pc, #20]	@ 8002750 <HAL_RCC_GetSysClockFreq.part.0+0xdc>
 800273c:	e7bc      	b.n	80026b8 <HAL_RCC_GetSysClockFreq.part.0+0x44>
              pllvco = ((float_t)HSI_VALUE / (float_t)pllm) * ((float_t)(uint32_t)(RCC->PLL1DIVR & RCC_PLL1DIVR_N1) + (fracn1 / (float_t)0x2000) + (float_t)1);
 800273e:	eddf 7a05 	vldr	s15, [pc, #20]	@ 8002754 <HAL_RCC_GetSysClockFreq.part.0+0xe0>
 8002742:	e7b9      	b.n	80026b8 <HAL_RCC_GetSysClockFreq.part.0+0x44>
 8002744:	58024400 	.word	0x58024400
 8002748:	4a742400 	.word	0x4a742400
 800274c:	03d09000 	.word	0x03d09000
 8002750:	4bbebc20 	.word	0x4bbebc20
 8002754:	4c742400 	.word	0x4c742400

08002758 <HAL_RCC_OscConfig>:
  if (RCC_OscInitStruct == NULL)
 8002758:	2800      	cmp	r0, #0
 800275a:	f000 82a1 	beq.w	8002ca0 <HAL_RCC_OscConfig+0x548>
{
 800275e:	b5f8      	push	{r3, r4, r5, r6, r7, lr}
  if (((RCC_OscInitStruct->OscillatorType) & RCC_OSCILLATORTYPE_HSE) == RCC_OSCILLATORTYPE_HSE)
 8002760:	6803      	ldr	r3, [r0, #0]
 8002762:	4604      	mov	r4, r0
 8002764:	07d9      	lsls	r1, r3, #31
 8002766:	d52e      	bpl.n	80027c6 <HAL_RCC_OscConfig+0x6e>
    const uint32_t temp_sysclksrc = __HAL_RCC_GET_SYSCLK_SOURCE();
 8002768:	499b      	ldr	r1, [pc, #620]	@ (80029d8 <HAL_RCC_OscConfig+0x280>)
 800276a:	690a      	ldr	r2, [r1, #16]
    const uint32_t temp_pllckselr = RCC->PLLCKSELR;
 800276c:	6a89      	ldr	r1, [r1, #40]	@ 0x28
    const uint32_t temp_sysclksrc = __HAL_RCC_GET_SYSCLK_SOURCE();
 800276e:	f002 0238 	and.w	r2, r2, #56	@ 0x38
    if ((temp_sysclksrc == RCC_CFGR_SWS_HSE) || ((temp_sysclksrc == RCC_CFGR_SWS_PLL1) && ((temp_pllckselr & RCC_PLLCKSELR_PLLSRC) == RCC_PLLCKSELR_PLLSRC_HSE)))
 8002772:	2a10      	cmp	r2, #16
 8002774:	f000 80d6 	beq.w	8002924 <HAL_RCC_OscConfig+0x1cc>
 8002778:	2a18      	cmp	r2, #24
 800277a:	f000 80ce 	beq.w	800291a <HAL_RCC_OscConfig+0x1c2>
      __HAL_RCC_HSE_CONFIG(RCC_OscInitStruct->HSEState);
 800277e:	6863      	ldr	r3, [r4, #4]
 8002780:	f5b3 3f80 	cmp.w	r3, #65536	@ 0x10000
 8002784:	f000 80ee 	beq.w	8002964 <HAL_RCC_OscConfig+0x20c>
 8002788:	2b00      	cmp	r3, #0
 800278a:	f000 8144 	beq.w	8002a16 <HAL_RCC_OscConfig+0x2be>
 800278e:	f5b3 2fa0 	cmp.w	r3, #327680	@ 0x50000
 8002792:	4b91      	ldr	r3, [pc, #580]	@ (80029d8 <HAL_RCC_OscConfig+0x280>)
 8002794:	681a      	ldr	r2, [r3, #0]
 8002796:	f000 824e 	beq.w	8002c36 <HAL_RCC_OscConfig+0x4de>
 800279a:	f422 3280 	bic.w	r2, r2, #65536	@ 0x10000
 800279e:	601a      	str	r2, [r3, #0]
 80027a0:	681a      	ldr	r2, [r3, #0]
 80027a2:	f422 2280 	bic.w	r2, r2, #262144	@ 0x40000
 80027a6:	601a      	str	r2, [r3, #0]
        tickstart = HAL_GetTick();
 80027a8:	f7fe fb70 	bl	8000e8c <HAL_GetTick>
        while (__HAL_RCC_GET_FLAG(RCC_FLAG_HSERDY) == 0U)
 80027ac:	4e8a      	ldr	r6, [pc, #552]	@ (80029d8 <HAL_RCC_OscConfig+0x280>)
        tickstart = HAL_GetTick();
 80027ae:	4605      	mov	r5, r0
        while (__HAL_RCC_GET_FLAG(RCC_FLAG_HSERDY) == 0U)
 80027b0:	e005      	b.n	80027be <HAL_RCC_OscConfig+0x66>
          if ((uint32_t)(HAL_GetTick() - tickstart) > HSE_TIMEOUT_VALUE)
 80027b2:	f7fe fb6b 	bl	8000e8c <HAL_GetTick>
 80027b6:	1b40      	subs	r0, r0, r5
 80027b8:	2864      	cmp	r0, #100	@ 0x64
 80027ba:	f200 812a 	bhi.w	8002a12 <HAL_RCC_OscConfig+0x2ba>
        while (__HAL_RCC_GET_FLAG(RCC_FLAG_HSERDY) == 0U)
 80027be:	6833      	ldr	r3, [r6, #0]
 80027c0:	039b      	lsls	r3, r3, #14
 80027c2:	d5f6      	bpl.n	80027b2 <HAL_RCC_OscConfig+0x5a>
  if (((RCC_OscInitStruct->OscillatorType) & RCC_OSCILLATORTYPE_HSI) == RCC_OSCILLATORTYPE_HSI)
 80027c4:	6823      	ldr	r3, [r4, #0]
 80027c6:	079d      	lsls	r5, r3, #30
 80027c8:	d464      	bmi.n	8002894 <HAL_RCC_OscConfig+0x13c>
  if (((RCC_OscInitStruct->OscillatorType) & RCC_OSCILLATORTYPE_CSI) == RCC_OSCILLATORTYPE_CSI)
 80027ca:	06d9      	lsls	r1, r3, #27
 80027cc:	d528      	bpl.n	8002820 <HAL_RCC_OscConfig+0xc8>
    const uint32_t temp_sysclksrc = __HAL_RCC_GET_SYSCLK_SOURCE();
 80027ce:	4982      	ldr	r1, [pc, #520]	@ (80029d8 <HAL_RCC_OscConfig+0x280>)
 80027d0:	690a      	ldr	r2, [r1, #16]
    const uint32_t temp_pllckselr = RCC->PLLCKSELR;
 80027d2:	6a89      	ldr	r1, [r1, #40]	@ 0x28
    const uint32_t temp_sysclksrc = __HAL_RCC_GET_SYSCLK_SOURCE();
 80027d4:	f002 0238 	and.w	r2, r2, #56	@ 0x38
    if ((temp_sysclksrc == RCC_CFGR_SWS_CSI) || ((temp_sysclksrc == RCC_CFGR_SWS_PLL1) && ((temp_pllckselr & RCC_PLLCKSELR_PLLSRC) == RCC_PLLCKSELR_PLLSRC_CSI)))
 80027d8:	2a08      	cmp	r2, #8
 80027da:	f000 80b3 	beq.w	8002944 <HAL_RCC_OscConfig+0x1ec>
 80027de:	2a18      	cmp	r2, #24
 80027e0:	f000 80ab 	beq.w	800293a <HAL_RCC_OscConfig+0x1e2>
      if ((RCC_OscInitStruct->CSIState) != RCC_CSI_OFF)
 80027e4:	69e3      	ldr	r3, [r4, #28]
        __HAL_RCC_CSI_ENABLE();
 80027e6:	4d7c      	ldr	r5, [pc, #496]	@ (80029d8 <HAL_RCC_OscConfig+0x280>)
      if ((RCC_OscInitStruct->CSIState) != RCC_CSI_OFF)
 80027e8:	2b00      	cmp	r3, #0
 80027ea:	f000 814c 	beq.w	8002a86 <HAL_RCC_OscConfig+0x32e>
        __HAL_RCC_CSI_ENABLE();
 80027ee:	682b      	ldr	r3, [r5, #0]
 80027f0:	f043 0380 	orr.w	r3, r3, #128	@ 0x80
 80027f4:	602b      	str	r3, [r5, #0]
        tickstart = HAL_GetTick();
 80027f6:	f7fe fb49 	bl	8000e8c <HAL_GetTick>
 80027fa:	4606      	mov	r6, r0
        while (__HAL_RCC_GET_FLAG(RCC_FLAG_CSIRDY) == 0U)
 80027fc:	e005      	b.n	800280a <HAL_RCC_OscConfig+0xb2>
          if ((HAL_GetTick() - tickstart) > CSI_TIMEOUT_VALUE)
 80027fe:	f7fe fb45 	bl	8000e8c <HAL_GetTick>
 8002802:	1b80      	subs	r0, r0, r6
 8002804:	2802      	cmp	r0, #2
 8002806:	f200 8104 	bhi.w	8002a12 <HAL_RCC_OscConfig+0x2ba>
        while (__HAL_RCC_GET_FLAG(RCC_FLAG_CSIRDY) == 0U)
 800280a:	682b      	ldr	r3, [r5, #0]
 800280c:	05db      	lsls	r3, r3, #23
 800280e:	d5f6      	bpl.n	80027fe <HAL_RCC_OscConfig+0xa6>
        __HAL_RCC_CSI_CALIBRATIONVALUE_ADJUST(RCC_OscInitStruct->CSICalibrationValue);
 8002810:	68eb      	ldr	r3, [r5, #12]
 8002812:	6a22      	ldr	r2, [r4, #32]
 8002814:	f023 537c 	bic.w	r3, r3, #1056964608	@ 0x3f000000
 8002818:	ea43 6302 	orr.w	r3, r3, r2, lsl #24
 800281c:	60eb      	str	r3, [r5, #12]
  if (((RCC_OscInitStruct->OscillatorType) & RCC_OSCILLATORTYPE_LSI) == RCC_OSCILLATORTYPE_LSI)
 800281e:	6823      	ldr	r3, [r4, #0]
 8002820:	071d      	lsls	r5, r3, #28
 8002822:	d516      	bpl.n	8002852 <HAL_RCC_OscConfig+0xfa>
    if ((RCC_OscInitStruct->LSIState) != RCC_LSI_OFF)
 8002824:	6963      	ldr	r3, [r4, #20]
      __HAL_RCC_LSI_ENABLE();
 8002826:	4d6c      	ldr	r5, [pc, #432]	@ (80029d8 <HAL_RCC_OscConfig+0x280>)
    if ((RCC_OscInitStruct->LSIState) != RCC_LSI_OFF)
 8002828:	2b00      	cmp	r3, #0
 800282a:	f000 810a 	beq.w	8002a42 <HAL_RCC_OscConfig+0x2ea>
      __HAL_RCC_LSI_ENABLE();
 800282e:	6f6b      	ldr	r3, [r5, #116]	@ 0x74
 8002830:	f043 0301 	orr.w	r3, r3, #1
 8002834:	676b      	str	r3, [r5, #116]	@ 0x74
      tickstart = HAL_GetTick();
 8002836:	f7fe fb29 	bl	8000e8c <HAL_GetTick>
 800283a:	4606      	mov	r6, r0
      while (__HAL_RCC_GET_FLAG(RCC_FLAG_LSIRDY) == 0U)
 800283c:	e005      	b.n	800284a <HAL_RCC_OscConfig+0xf2>
        if ((HAL_GetTick() - tickstart) > LSI_TIMEOUT_VALUE)
 800283e:	f7fe fb25 	bl	8000e8c <HAL_GetTick>
 8002842:	1b80      	subs	r0, r0, r6
 8002844:	2802      	cmp	r0, #2
 8002846:	f200 80e4 	bhi.w	8002a12 <HAL_RCC_OscConfig+0x2ba>
      while (__HAL_RCC_GET_FLAG(RCC_FLAG_LSIRDY) == 0U)
 800284a:	6f6b      	ldr	r3, [r5, #116]	@ 0x74
 800284c:	0798      	lsls	r0, r3, #30
 800284e:	d5f6      	bpl.n	800283e <HAL_RCC_OscConfig+0xe6>
  if (((RCC_OscInitStruct->OscillatorType) & RCC_OSCILLATORTYPE_HSI48) == RCC_OSCILLATORTYPE_HSI48)
 8002850:	6823      	ldr	r3, [r4, #0]
 8002852:	069a      	lsls	r2, r3, #26
 8002854:	d516      	bpl.n	8002884 <HAL_RCC_OscConfig+0x12c>
    if ((RCC_OscInitStruct->HSI48State) != RCC_HSI48_OFF)
 8002856:	69a3      	ldr	r3, [r4, #24]
      __HAL_RCC_HSI48_ENABLE();
 8002858:	4d5f      	ldr	r5, [pc, #380]	@ (80029d8 <HAL_RCC_OscConfig+0x280>)
    if ((RCC_OscInitStruct->HSI48State) != RCC_HSI48_OFF)
 800285a:	2b00      	cmp	r3, #0
 800285c:	f000 8102 	beq.w	8002a64 <HAL_RCC_OscConfig+0x30c>
      __HAL_RCC_HSI48_ENABLE();
 8002860:	682b      	ldr	r3, [r5, #0]
 8002862:	f443 5380 	orr.w	r3, r3, #4096	@ 0x1000
 8002866:	602b      	str	r3, [r5, #0]
      tickstart = HAL_GetTick();
 8002868:	f7fe fb10 	bl	8000e8c <HAL_GetTick>
 800286c:	4606      	mov	r6, r0
      while (__HAL_RCC_GET_FLAG(RCC_FLAG_HSI48RDY) == 0U)
 800286e:	e005      	b.n	800287c <HAL_RCC_OscConfig+0x124>
        if ((HAL_GetTick() - tickstart) > HSI48_TIMEOUT_VALUE)
 8002870:	f7fe fb0c 	bl	8000e8c <HAL_GetTick>
 8002874:	1b80      	subs	r0, r0, r6
 8002876:	2802      	cmp	r0, #2
 8002878:	f200 80cb 	bhi.w	8002a12 <HAL_RCC_OscConfig+0x2ba>
      while (__HAL_RCC_GET_FLAG(RCC_FLAG_HSI48RDY) == 0U)
 800287c:	682b      	ldr	r3, [r5, #0]
 800287e:	049f      	lsls	r7, r3, #18
 8002880:	d5f6      	bpl.n	8002870 <HAL_RCC_OscConfig+0x118>
  if (((RCC_OscInitStruct->OscillatorType) & RCC_OSCILLATORTYPE_LSE) == RCC_OSCILLATORTYPE_LSE)
 8002882:	6823      	ldr	r3, [r4, #0]
 8002884:	0759      	lsls	r1, r3, #29
 8002886:	d473      	bmi.n	8002970 <HAL_RCC_OscConfig+0x218>
  if ((RCC_OscInitStruct->PLL.PLLState) != RCC_PLL_NONE)
 8002888:	6a63      	ldr	r3, [r4, #36]	@ 0x24
 800288a:	2b00      	cmp	r3, #0
 800288c:	f040 80a8 	bne.w	80029e0 <HAL_RCC_OscConfig+0x288>
  return HAL_OK;
 8002890:	2000      	movs	r0, #0
}
 8002892:	bdf8      	pop	{r3, r4, r5, r6, r7, pc}
    const uint32_t temp_sysclksrc = __HAL_RCC_GET_SYSCLK_SOURCE();
 8002894:	4a50      	ldr	r2, [pc, #320]	@ (80029d8 <HAL_RCC_OscConfig+0x280>)
 8002896:	6913      	ldr	r3, [r2, #16]
    const uint32_t temp_pllckselr = RCC->PLLCKSELR;
 8002898:	6a92      	ldr	r2, [r2, #40]	@ 0x28
    if ((temp_sysclksrc == RCC_CFGR_SWS_HSI) || ((temp_sysclksrc == RCC_CFGR_SWS_PLL1) && ((temp_pllckselr & RCC_PLLCKSELR_PLLSRC) == RCC_PLLCKSELR_PLLSRC_HSI)))
 800289a:	f013 0338 	ands.w	r3, r3, #56	@ 0x38
 800289e:	d122      	bne.n	80028e6 <HAL_RCC_OscConfig+0x18e>
      if ((__HAL_RCC_GET_FLAG(RCC_FLAG_HSIRDY) != 0U) && (RCC_OscInitStruct->HSIState == RCC_HSI_OFF))
 80028a0:	4b4d      	ldr	r3, [pc, #308]	@ (80029d8 <HAL_RCC_OscConfig+0x280>)
      if ((RCC_OscInitStruct->HSIState) != RCC_HSI_OFF)
 80028a2:	68e2      	ldr	r2, [r4, #12]
      if ((__HAL_RCC_GET_FLAG(RCC_FLAG_HSIRDY) != 0U) && (RCC_OscInitStruct->HSIState == RCC_HSI_OFF))
 80028a4:	681b      	ldr	r3, [r3, #0]
 80028a6:	0759      	lsls	r1, r3, #29
 80028a8:	d501      	bpl.n	80028ae <HAL_RCC_OscConfig+0x156>
 80028aa:	2a00      	cmp	r2, #0
 80028ac:	d043      	beq.n	8002936 <HAL_RCC_OscConfig+0x1de>
        __HAL_RCC_HSI_CONFIG(RCC_OscInitStruct->HSIState);
 80028ae:	4d4a      	ldr	r5, [pc, #296]	@ (80029d8 <HAL_RCC_OscConfig+0x280>)
 80028b0:	682b      	ldr	r3, [r5, #0]
 80028b2:	f023 0319 	bic.w	r3, r3, #25
 80028b6:	4313      	orrs	r3, r2
 80028b8:	602b      	str	r3, [r5, #0]
        tickstart = HAL_GetTick();
 80028ba:	f7fe fae7 	bl	8000e8c <HAL_GetTick>
 80028be:	4606      	mov	r6, r0
        while (__HAL_RCC_GET_FLAG(RCC_FLAG_HSIRDY) == 0U)
 80028c0:	e005      	b.n	80028ce <HAL_RCC_OscConfig+0x176>
          if ((uint32_t)(HAL_GetTick() - tickstart) > HSI_TIMEOUT_VALUE)
 80028c2:	f7fe fae3 	bl	8000e8c <HAL_GetTick>
 80028c6:	1b80      	subs	r0, r0, r6
 80028c8:	2802      	cmp	r0, #2
 80028ca:	f200 80a2 	bhi.w	8002a12 <HAL_RCC_OscConfig+0x2ba>
        while (__HAL_RCC_GET_FLAG(RCC_FLAG_HSIRDY) == 0U)
 80028ce:	682b      	ldr	r3, [r5, #0]
 80028d0:	075b      	lsls	r3, r3, #29
 80028d2:	d5f6      	bpl.n	80028c2 <HAL_RCC_OscConfig+0x16a>
        __HAL_RCC_HSI_CALIBRATIONVALUE_ADJUST(RCC_OscInitStruct->HSICalibrationValue);
 80028d4:	686b      	ldr	r3, [r5, #4]
 80028d6:	6922      	ldr	r2, [r4, #16]
 80028d8:	f023 43fe 	bic.w	r3, r3, #2130706432	@ 0x7f000000
 80028dc:	ea43 6302 	orr.w	r3, r3, r2, lsl #24
 80028e0:	606b      	str	r3, [r5, #4]
  if (((RCC_OscInitStruct->OscillatorType) & RCC_OSCILLATORTYPE_CSI) == RCC_OSCILLATORTYPE_CSI)
 80028e2:	6823      	ldr	r3, [r4, #0]
 80028e4:	e771      	b.n	80027ca <HAL_RCC_OscConfig+0x72>
    if ((temp_sysclksrc == RCC_CFGR_SWS_HSI) || ((temp_sysclksrc == RCC_CFGR_SWS_PLL1) && ((temp_pllckselr & RCC_PLLCKSELR_PLLSRC) == RCC_PLLCKSELR_PLLSRC_HSI)))
 80028e6:	2b18      	cmp	r3, #24
 80028e8:	f000 80f0 	beq.w	8002acc <HAL_RCC_OscConfig+0x374>
        __HAL_RCC_HSI_CONFIG(RCC_OscInitStruct->HSIState);
 80028ec:	4d3a      	ldr	r5, [pc, #232]	@ (80029d8 <HAL_RCC_OscConfig+0x280>)
      if ((RCC_OscInitStruct->HSIState) != RCC_HSI_OFF)
 80028ee:	68e2      	ldr	r2, [r4, #12]
        __HAL_RCC_HSI_CONFIG(RCC_OscInitStruct->HSIState);
 80028f0:	682b      	ldr	r3, [r5, #0]
      if ((RCC_OscInitStruct->HSIState) != RCC_HSI_OFF)
 80028f2:	2a00      	cmp	r2, #0
 80028f4:	f000 80d9 	beq.w	8002aaa <HAL_RCC_OscConfig+0x352>
        __HAL_RCC_HSI_CONFIG(RCC_OscInitStruct->HSIState);
 80028f8:	f023 0319 	bic.w	r3, r3, #25
 80028fc:	4313      	orrs	r3, r2
 80028fe:	602b      	str	r3, [r5, #0]
        tickstart = HAL_GetTick();
 8002900:	f7fe fac4 	bl	8000e8c <HAL_GetTick>
 8002904:	4606      	mov	r6, r0
        while (__HAL_RCC_GET_FLAG(RCC_FLAG_HSIRDY) == 0U)
 8002906:	e004      	b.n	8002912 <HAL_RCC_OscConfig+0x1ba>
          if ((HAL_GetTick() - tickstart) > HSI_TIMEOUT_VALUE)
 8002908:	f7fe fac0 	bl	8000e8c <HAL_GetTick>
 800290c:	1b80      	subs	r0, r0, r6
 800290e:	2802      	cmp	r0, #2
 8002910:	d87f      	bhi.n	8002a12 <HAL_RCC_OscConfig+0x2ba>
        while (__HAL_RCC_GET_FLAG(RCC_FLAG_HSIRDY) == 0U)
 8002912:	682b      	ldr	r3, [r5, #0]
 8002914:	075f      	lsls	r7, r3, #29
 8002916:	d5f7      	bpl.n	8002908 <HAL_RCC_OscConfig+0x1b0>
 8002918:	e7dc      	b.n	80028d4 <HAL_RCC_OscConfig+0x17c>
    if ((temp_sysclksrc == RCC_CFGR_SWS_HSE) || ((temp_sysclksrc == RCC_CFGR_SWS_PLL1) && ((temp_pllckselr & RCC_PLLCKSELR_PLLSRC) == RCC_PLLCKSELR_PLLSRC_HSE)))
 800291a:	f001 0103 	and.w	r1, r1, #3
 800291e:	2902      	cmp	r1, #2
 8002920:	f47f af2d 	bne.w	800277e <HAL_RCC_OscConfig+0x26>
      if ((__HAL_RCC_GET_FLAG(RCC_FLAG_HSERDY) != 0U) && (RCC_OscInitStruct->HSEState == RCC_HSE_OFF))
 8002924:	4a2c      	ldr	r2, [pc, #176]	@ (80029d8 <HAL_RCC_OscConfig+0x280>)
 8002926:	6812      	ldr	r2, [r2, #0]
 8002928:	0392      	lsls	r2, r2, #14
 800292a:	f57f af4c 	bpl.w	80027c6 <HAL_RCC_OscConfig+0x6e>
 800292e:	6862      	ldr	r2, [r4, #4]
 8002930:	2a00      	cmp	r2, #0
 8002932:	f47f af48 	bne.w	80027c6 <HAL_RCC_OscConfig+0x6e>
    return HAL_ERROR;
 8002936:	2001      	movs	r0, #1
}
 8002938:	bdf8      	pop	{r3, r4, r5, r6, r7, pc}
    if ((temp_sysclksrc == RCC_CFGR_SWS_CSI) || ((temp_sysclksrc == RCC_CFGR_SWS_PLL1) && ((temp_pllckselr & RCC_PLLCKSELR_PLLSRC) == RCC_PLLCKSELR_PLLSRC_CSI)))
 800293a:	f001 0103 	and.w	r1, r1, #3
 800293e:	2901      	cmp	r1, #1
 8002940:	f47f af50 	bne.w	80027e4 <HAL_RCC_OscConfig+0x8c>
      if ((__HAL_RCC_GET_FLAG(RCC_FLAG_CSIRDY) != 0U) && (RCC_OscInitStruct->CSIState != RCC_CSI_ON))
 8002944:	4a24      	ldr	r2, [pc, #144]	@ (80029d8 <HAL_RCC_OscConfig+0x280>)
 8002946:	6812      	ldr	r2, [r2, #0]
 8002948:	05d2      	lsls	r2, r2, #23
 800294a:	d502      	bpl.n	8002952 <HAL_RCC_OscConfig+0x1fa>
 800294c:	69e2      	ldr	r2, [r4, #28]
 800294e:	2a80      	cmp	r2, #128	@ 0x80
 8002950:	d1f1      	bne.n	8002936 <HAL_RCC_OscConfig+0x1de>
        __HAL_RCC_CSI_CALIBRATIONVALUE_ADJUST(RCC_OscInitStruct->CSICalibrationValue);
 8002952:	4921      	ldr	r1, [pc, #132]	@ (80029d8 <HAL_RCC_OscConfig+0x280>)
 8002954:	6a20      	ldr	r0, [r4, #32]
 8002956:	68ca      	ldr	r2, [r1, #12]
 8002958:	f022 527c 	bic.w	r2, r2, #1056964608	@ 0x3f000000
 800295c:	ea42 6200 	orr.w	r2, r2, r0, lsl #24
 8002960:	60ca      	str	r2, [r1, #12]
      if ((__HAL_RCC_GET_FLAG(RCC_FLAG_CSIRDY) != 0U) && (RCC_OscInitStruct->CSIState != RCC_CSI_ON))
 8002962:	e75d      	b.n	8002820 <HAL_RCC_OscConfig+0xc8>
      __HAL_RCC_HSE_CONFIG(RCC_OscInitStruct->HSEState);
 8002964:	4a1c      	ldr	r2, [pc, #112]	@ (80029d8 <HAL_RCC_OscConfig+0x280>)
 8002966:	6813      	ldr	r3, [r2, #0]
 8002968:	f443 3380 	orr.w	r3, r3, #65536	@ 0x10000
 800296c:	6013      	str	r3, [r2, #0]
      if (RCC_OscInitStruct->HSEState != RCC_HSE_OFF)
 800296e:	e71b      	b.n	80027a8 <HAL_RCC_OscConfig+0x50>
    PWR->CR1 |= PWR_CR1_DBP;
 8002970:	4d1a      	ldr	r5, [pc, #104]	@ (80029dc <HAL_RCC_OscConfig+0x284>)
 8002972:	682b      	ldr	r3, [r5, #0]
 8002974:	f443 7380 	orr.w	r3, r3, #256	@ 0x100
 8002978:	602b      	str	r3, [r5, #0]
    tickstart = HAL_GetTick();
 800297a:	f7fe fa87 	bl	8000e8c <HAL_GetTick>
 800297e:	4606      	mov	r6, r0
    while ((PWR->CR1 & PWR_CR1_DBP) == 0U)
 8002980:	e004      	b.n	800298c <HAL_RCC_OscConfig+0x234>
      if ((HAL_GetTick() - tickstart) > RCC_DBP_TIMEOUT_VALUE)
 8002982:	f7fe fa83 	bl	8000e8c <HAL_GetTick>
 8002986:	1b80      	subs	r0, r0, r6
 8002988:	2864      	cmp	r0, #100	@ 0x64
 800298a:	d842      	bhi.n	8002a12 <HAL_RCC_OscConfig+0x2ba>
    while ((PWR->CR1 & PWR_CR1_DBP) == 0U)
 800298c:	682b      	ldr	r3, [r5, #0]
 800298e:	05da      	lsls	r2, r3, #23
 8002990:	d5f7      	bpl.n	8002982 <HAL_RCC_OscConfig+0x22a>
    __HAL_RCC_LSE_CONFIG(RCC_OscInitStruct->LSEState);
 8002992:	68a3      	ldr	r3, [r4, #8]
 8002994:	2b01      	cmp	r3, #1
 8002996:	f000 816f 	beq.w	8002c78 <HAL_RCC_OscConfig+0x520>
 800299a:	2b00      	cmp	r3, #0
 800299c:	f000 8153 	beq.w	8002c46 <HAL_RCC_OscConfig+0x4ee>
 80029a0:	2b05      	cmp	r3, #5
 80029a2:	4b0d      	ldr	r3, [pc, #52]	@ (80029d8 <HAL_RCC_OscConfig+0x280>)
 80029a4:	6f1a      	ldr	r2, [r3, #112]	@ 0x70
 80029a6:	f000 8173 	beq.w	8002c90 <HAL_RCC_OscConfig+0x538>
 80029aa:	f022 0201 	bic.w	r2, r2, #1
 80029ae:	671a      	str	r2, [r3, #112]	@ 0x70
 80029b0:	6f1a      	ldr	r2, [r3, #112]	@ 0x70
 80029b2:	f022 0204 	bic.w	r2, r2, #4
 80029b6:	671a      	str	r2, [r3, #112]	@ 0x70
      tickstart = HAL_GetTick();
 80029b8:	f7fe fa68 	bl	8000e8c <HAL_GetTick>
      while (__HAL_RCC_GET_FLAG(RCC_FLAG_LSERDY) == 0U)
 80029bc:	4e06      	ldr	r6, [pc, #24]	@ (80029d8 <HAL_RCC_OscConfig+0x280>)
        if ((HAL_GetTick() - tickstart) > RCC_LSE_TIMEOUT_VALUE)
 80029be:	f241 3788 	movw	r7, #5000	@ 0x1388
      tickstart = HAL_GetTick();
 80029c2:	4605      	mov	r5, r0
      while (__HAL_RCC_GET_FLAG(RCC_FLAG_LSERDY) == 0U)
 80029c4:	e004      	b.n	80029d0 <HAL_RCC_OscConfig+0x278>
        if ((HAL_GetTick() - tickstart) > RCC_LSE_TIMEOUT_VALUE)
 80029c6:	f7fe fa61 	bl	8000e8c <HAL_GetTick>
 80029ca:	1b40      	subs	r0, r0, r5
 80029cc:	42b8      	cmp	r0, r7
 80029ce:	d820      	bhi.n	8002a12 <HAL_RCC_OscConfig+0x2ba>
      while (__HAL_RCC_GET_FLAG(RCC_FLAG_LSERDY) == 0U)
 80029d0:	6f33      	ldr	r3, [r6, #112]	@ 0x70
 80029d2:	079b      	lsls	r3, r3, #30
 80029d4:	d5f7      	bpl.n	80029c6 <HAL_RCC_OscConfig+0x26e>
 80029d6:	e757      	b.n	8002888 <HAL_RCC_OscConfig+0x130>
 80029d8:	58024400 	.word	0x58024400
 80029dc:	58024800 	.word	0x58024800
    if (__HAL_RCC_GET_SYSCLK_SOURCE() != RCC_CFGR_SWS_PLL1)
 80029e0:	4da8      	ldr	r5, [pc, #672]	@ (8002c84 <HAL_RCC_OscConfig+0x52c>)
 80029e2:	692a      	ldr	r2, [r5, #16]
 80029e4:	f002 0238 	and.w	r2, r2, #56	@ 0x38
 80029e8:	2a18      	cmp	r2, #24
 80029ea:	f000 80d7 	beq.w	8002b9c <HAL_RCC_OscConfig+0x444>
      if ((RCC_OscInitStruct->PLL.PLLState) == RCC_PLL_ON)
 80029ee:	2b02      	cmp	r3, #2
        __HAL_RCC_PLL_DISABLE();
 80029f0:	682b      	ldr	r3, [r5, #0]
 80029f2:	f023 7380 	bic.w	r3, r3, #16777216	@ 0x1000000
 80029f6:	602b      	str	r3, [r5, #0]
      if ((RCC_OscInitStruct->PLL.PLLState) == RCC_PLL_ON)
 80029f8:	d06c      	beq.n	8002ad4 <HAL_RCC_OscConfig+0x37c>
        tickstart = HAL_GetTick();
 80029fa:	f7fe fa47 	bl	8000e8c <HAL_GetTick>
 80029fe:	4604      	mov	r4, r0
        while (__HAL_RCC_GET_FLAG(RCC_FLAG_PLLRDY) != 0U)
 8002a00:	682b      	ldr	r3, [r5, #0]
 8002a02:	019b      	lsls	r3, r3, #6
 8002a04:	f57f af44 	bpl.w	8002890 <HAL_RCC_OscConfig+0x138>
          if ((HAL_GetTick() - tickstart) > PLL_TIMEOUT_VALUE)
 8002a08:	f7fe fa40 	bl	8000e8c <HAL_GetTick>
 8002a0c:	1b00      	subs	r0, r0, r4
 8002a0e:	2802      	cmp	r0, #2
 8002a10:	d9f6      	bls.n	8002a00 <HAL_RCC_OscConfig+0x2a8>
            return HAL_TIMEOUT;
 8002a12:	2003      	movs	r0, #3
}
 8002a14:	bdf8      	pop	{r3, r4, r5, r6, r7, pc}
      __HAL_RCC_HSE_CONFIG(RCC_OscInitStruct->HSEState);
 8002a16:	4d9b      	ldr	r5, [pc, #620]	@ (8002c84 <HAL_RCC_OscConfig+0x52c>)
 8002a18:	682b      	ldr	r3, [r5, #0]
 8002a1a:	f423 3380 	bic.w	r3, r3, #65536	@ 0x10000
 8002a1e:	602b      	str	r3, [r5, #0]
 8002a20:	682b      	ldr	r3, [r5, #0]
 8002a22:	f423 2380 	bic.w	r3, r3, #262144	@ 0x40000
 8002a26:	602b      	str	r3, [r5, #0]
        tickstart = HAL_GetTick();
 8002a28:	f7fe fa30 	bl	8000e8c <HAL_GetTick>
 8002a2c:	4606      	mov	r6, r0
        while (__HAL_RCC_GET_FLAG(RCC_FLAG_HSERDY) != 0U)
 8002a2e:	e004      	b.n	8002a3a <HAL_RCC_OscConfig+0x2e2>
          if ((uint32_t)(HAL_GetTick() - tickstart) > HSE_TIMEOUT_VALUE)
 8002a30:	f7fe fa2c 	bl	8000e8c <HAL_GetTick>
 8002a34:	1b80      	subs	r0, r0, r6
 8002a36:	2864      	cmp	r0, #100	@ 0x64
 8002a38:	d8eb      	bhi.n	8002a12 <HAL_RCC_OscConfig+0x2ba>
        while (__HAL_RCC_GET_FLAG(RCC_FLAG_HSERDY) != 0U)
 8002a3a:	682b      	ldr	r3, [r5, #0]
 8002a3c:	039f      	lsls	r7, r3, #14
 8002a3e:	d4f7      	bmi.n	8002a30 <HAL_RCC_OscConfig+0x2d8>
 8002a40:	e6c0      	b.n	80027c4 <HAL_RCC_OscConfig+0x6c>
      __HAL_RCC_LSI_DISABLE();
 8002a42:	6f6b      	ldr	r3, [r5, #116]	@ 0x74
 8002a44:	f023 0301 	bic.w	r3, r3, #1
 8002a48:	676b      	str	r3, [r5, #116]	@ 0x74
      tickstart = HAL_GetTick();
 8002a4a:	f7fe fa1f 	bl	8000e8c <HAL_GetTick>
 8002a4e:	4606      	mov	r6, r0
      while (__HAL_RCC_GET_FLAG(RCC_FLAG_LSIRDY) != 0U)
 8002a50:	e004      	b.n	8002a5c <HAL_RCC_OscConfig+0x304>
        if ((HAL_GetTick() - tickstart) > LSI_TIMEOUT_VALUE)
 8002a52:	f7fe fa1b 	bl	8000e8c <HAL_GetTick>
 8002a56:	1b80      	subs	r0, r0, r6
 8002a58:	2802      	cmp	r0, #2
 8002a5a:	d8da      	bhi.n	8002a12 <HAL_RCC_OscConfig+0x2ba>
      while (__HAL_RCC_GET_FLAG(RCC_FLAG_LSIRDY) != 0U)
 8002a5c:	6f6b      	ldr	r3, [r5, #116]	@ 0x74
 8002a5e:	0799      	lsls	r1, r3, #30
 8002a60:	d4f7      	bmi.n	8002a52 <HAL_RCC_OscConfig+0x2fa>
 8002a62:	e6f5      	b.n	8002850 <HAL_RCC_OscConfig+0xf8>
      __HAL_RCC_HSI48_DISABLE();
 8002a64:	682b      	ldr	r3, [r5, #0]
 8002a66:	f423 5380 	bic.w	r3, r3, #4096	@ 0x1000
 8002a6a:	602b      	str	r3, [r5, #0]
      tickstart = HAL_GetTick();
 8002a6c:	f7fe fa0e 	bl	8000e8c <HAL_GetTick>
 8002a70:	4606      	mov	r6, r0
      while (__HAL_RCC_GET_FLAG(RCC_FLAG_HSI48RDY) != 0U)
 8002a72:	e004      	b.n	8002a7e <HAL_RCC_OscConfig+0x326>
        if ((HAL_GetTick() - tickstart) > HSI48_TIMEOUT_VALUE)
 8002a74:	f7fe fa0a 	bl	8000e8c <HAL_GetTick>
 8002a78:	1b80      	subs	r0, r0, r6
 8002a7a:	2802      	cmp	r0, #2
 8002a7c:	d8c9      	bhi.n	8002a12 <HAL_RCC_OscConfig+0x2ba>
      while (__HAL_RCC_GET_FLAG(RCC_FLAG_HSI48RDY) != 0U)
 8002a7e:	682b      	ldr	r3, [r5, #0]
 8002a80:	0498      	lsls	r0, r3, #18
 8002a82:	d4f7      	bmi.n	8002a74 <HAL_RCC_OscConfig+0x31c>
 8002a84:	e6fd      	b.n	8002882 <HAL_RCC_OscConfig+0x12a>
        __HAL_RCC_CSI_DISABLE();
 8002a86:	682b      	ldr	r3, [r5, #0]
 8002a88:	f023 0380 	bic.w	r3, r3, #128	@ 0x80
 8002a8c:	602b      	str	r3, [r5, #0]
        tickstart = HAL_GetTick();
 8002a8e:	f7fe f9fd 	bl	8000e8c <HAL_GetTick>
 8002a92:	4606      	mov	r6, r0
        while (__HAL_RCC_GET_FLAG(RCC_FLAG_CSIRDY) != 0U)
 8002a94:	e004      	b.n	8002aa0 <HAL_RCC_OscConfig+0x348>
          if ((HAL_GetTick() - tickstart) > CSI_TIMEOUT_VALUE)
 8002a96:	f7fe f9f9 	bl	8000e8c <HAL_GetTick>
 8002a9a:	1b80      	subs	r0, r0, r6
 8002a9c:	2802      	cmp	r0, #2
 8002a9e:	d8b8      	bhi.n	8002a12 <HAL_RCC_OscConfig+0x2ba>
        while (__HAL_RCC_GET_FLAG(RCC_FLAG_CSIRDY) != 0U)
 8002aa0:	682b      	ldr	r3, [r5, #0]
 8002aa2:	05df      	lsls	r7, r3, #23
 8002aa4:	d4f7      	bmi.n	8002a96 <HAL_RCC_OscConfig+0x33e>
  if (((RCC_OscInitStruct->OscillatorType) & RCC_OSCILLATORTYPE_LSI) == RCC_OSCILLATORTYPE_LSI)
 8002aa6:	6823      	ldr	r3, [r4, #0]
 8002aa8:	e6ba      	b.n	8002820 <HAL_RCC_OscConfig+0xc8>
        __HAL_RCC_HSI_DISABLE();
 8002aaa:	f023 0301 	bic.w	r3, r3, #1
 8002aae:	602b      	str	r3, [r5, #0]
        tickstart = HAL_GetTick();
 8002ab0:	f7fe f9ec 	bl	8000e8c <HAL_GetTick>
 8002ab4:	4606      	mov	r6, r0
        while (__HAL_RCC_GET_FLAG(RCC_FLAG_HSIRDY) != 0U)
 8002ab6:	e004      	b.n	8002ac2 <HAL_RCC_OscConfig+0x36a>
          if ((HAL_GetTick() - tickstart) > HSI_TIMEOUT_VALUE)
 8002ab8:	f7fe f9e8 	bl	8000e8c <HAL_GetTick>
 8002abc:	1b80      	subs	r0, r0, r6
 8002abe:	2802      	cmp	r0, #2
 8002ac0:	d8a7      	bhi.n	8002a12 <HAL_RCC_OscConfig+0x2ba>
        while (__HAL_RCC_GET_FLAG(RCC_FLAG_HSIRDY) != 0U)
 8002ac2:	682b      	ldr	r3, [r5, #0]
 8002ac4:	0758      	lsls	r0, r3, #29
 8002ac6:	d4f7      	bmi.n	8002ab8 <HAL_RCC_OscConfig+0x360>
  if (((RCC_OscInitStruct->OscillatorType) & RCC_OSCILLATORTYPE_CSI) == RCC_OSCILLATORTYPE_CSI)
 8002ac8:	6823      	ldr	r3, [r4, #0]
 8002aca:	e67e      	b.n	80027ca <HAL_RCC_OscConfig+0x72>
    if ((temp_sysclksrc == RCC_CFGR_SWS_HSI) || ((temp_sysclksrc == RCC_CFGR_SWS_PLL1) && ((temp_pllckselr & RCC_PLLCKSELR_PLLSRC) == RCC_PLLCKSELR_PLLSRC_HSI)))
 8002acc:	0790      	lsls	r0, r2, #30
 8002ace:	f47f af0d 	bne.w	80028ec <HAL_RCC_OscConfig+0x194>
 8002ad2:	e6e5      	b.n	80028a0 <HAL_RCC_OscConfig+0x148>
        tickstart = HAL_GetTick();
 8002ad4:	f7fe f9da 	bl	8000e8c <HAL_GetTick>
 8002ad8:	4606      	mov	r6, r0
        while (__HAL_RCC_GET_FLAG(RCC_FLAG_PLLRDY) != 0U)
 8002ada:	e004      	b.n	8002ae6 <HAL_RCC_OscConfig+0x38e>
          if ((HAL_GetTick() - tickstart) > PLL_TIMEOUT_VALUE)
 8002adc:	f7fe f9d6 	bl	8000e8c <HAL_GetTick>
 8002ae0:	1b80      	subs	r0, r0, r6
 8002ae2:	2802      	cmp	r0, #2
 8002ae4:	d895      	bhi.n	8002a12 <HAL_RCC_OscConfig+0x2ba>
        while (__HAL_RCC_GET_FLAG(RCC_FLAG_PLLRDY) != 0U)
 8002ae6:	682b      	ldr	r3, [r5, #0]
 8002ae8:	0199      	lsls	r1, r3, #6
 8002aea:	d4f7      	bmi.n	8002adc <HAL_RCC_OscConfig+0x384>
        __HAL_RCC_PLL_CONFIG(RCC_OscInitStruct->PLL.PLLSource,
 8002aec:	6aa9      	ldr	r1, [r5, #40]	@ 0x28
 8002aee:	4b66      	ldr	r3, [pc, #408]	@ (8002c88 <HAL_RCC_OscConfig+0x530>)
 8002af0:	6aa2      	ldr	r2, [r4, #40]	@ 0x28
 8002af2:	400b      	ands	r3, r1
        __HAL_RCC_PLLFRACN_CONFIG(RCC_OscInitStruct->PLL.PLLFRACN);
 8002af4:	4965      	ldr	r1, [pc, #404]	@ (8002c8c <HAL_RCC_OscConfig+0x534>)
        while (__HAL_RCC_GET_FLAG(RCC_FLAG_PLLRDY) == 0U)
 8002af6:	4e63      	ldr	r6, [pc, #396]	@ (8002c84 <HAL_RCC_OscConfig+0x52c>)
        __HAL_RCC_PLL_CONFIG(RCC_OscInitStruct->PLL.PLLSource,
 8002af8:	4313      	orrs	r3, r2
 8002afa:	6ae2      	ldr	r2, [r4, #44]	@ 0x2c
 8002afc:	ea43 1302 	orr.w	r3, r3, r2, lsl #4
 8002b00:	62ab      	str	r3, [r5, #40]	@ 0x28
 8002b02:	e9d4 320d 	ldrd	r3, r2, [r4, #52]	@ 0x34
 8002b06:	3b01      	subs	r3, #1
 8002b08:	3a01      	subs	r2, #1
 8002b0a:	025b      	lsls	r3, r3, #9
 8002b0c:	0412      	lsls	r2, r2, #16
 8002b0e:	b29b      	uxth	r3, r3
 8002b10:	f402 02fe 	and.w	r2, r2, #8323072	@ 0x7f0000
 8002b14:	4313      	orrs	r3, r2
 8002b16:	6b22      	ldr	r2, [r4, #48]	@ 0x30
 8002b18:	3a01      	subs	r2, #1
 8002b1a:	f3c2 0208 	ubfx	r2, r2, #0, #9
 8002b1e:	4313      	orrs	r3, r2
 8002b20:	6be2      	ldr	r2, [r4, #60]	@ 0x3c
 8002b22:	3a01      	subs	r2, #1
 8002b24:	0612      	lsls	r2, r2, #24
 8002b26:	f002 42fe 	and.w	r2, r2, #2130706432	@ 0x7f000000
 8002b2a:	4313      	orrs	r3, r2
 8002b2c:	632b      	str	r3, [r5, #48]	@ 0x30
        __HAL_RCC_PLLFRACN_DISABLE();
 8002b2e:	6aeb      	ldr	r3, [r5, #44]	@ 0x2c
 8002b30:	f023 0301 	bic.w	r3, r3, #1
 8002b34:	62eb      	str	r3, [r5, #44]	@ 0x2c
        __HAL_RCC_PLLFRACN_CONFIG(RCC_OscInitStruct->PLL.PLLFRACN);
 8002b36:	6b6a      	ldr	r2, [r5, #52]	@ 0x34
 8002b38:	6ca3      	ldr	r3, [r4, #72]	@ 0x48
 8002b3a:	4011      	ands	r1, r2
 8002b3c:	ea41 01c3 	orr.w	r1, r1, r3, lsl #3
 8002b40:	6369      	str	r1, [r5, #52]	@ 0x34
        __HAL_RCC_PLL_VCIRANGE(RCC_OscInitStruct->PLL.PLLRGE) ;
 8002b42:	6aeb      	ldr	r3, [r5, #44]	@ 0x2c
 8002b44:	6c22      	ldr	r2, [r4, #64]	@ 0x40
 8002b46:	f023 030c 	bic.w	r3, r3, #12
 8002b4a:	4313      	orrs	r3, r2
 8002b4c:	62eb      	str	r3, [r5, #44]	@ 0x2c
        __HAL_RCC_PLL_VCORANGE(RCC_OscInitStruct->PLL.PLLVCOSEL) ;
 8002b4e:	6aeb      	ldr	r3, [r5, #44]	@ 0x2c
 8002b50:	6c62      	ldr	r2, [r4, #68]	@ 0x44
 8002b52:	f023 0302 	bic.w	r3, r3, #2
 8002b56:	4313      	orrs	r3, r2
 8002b58:	62eb      	str	r3, [r5, #44]	@ 0x2c
        __HAL_RCC_PLLCLKOUT_ENABLE(RCC_PLL1_DIVP);
 8002b5a:	6aeb      	ldr	r3, [r5, #44]	@ 0x2c
 8002b5c:	f443 3380 	orr.w	r3, r3, #65536	@ 0x10000
 8002b60:	62eb      	str	r3, [r5, #44]	@ 0x2c
        __HAL_RCC_PLLCLKOUT_ENABLE(RCC_PLL1_DIVQ);
 8002b62:	6aeb      	ldr	r3, [r5, #44]	@ 0x2c
 8002b64:	f443 3300 	orr.w	r3, r3, #131072	@ 0x20000
 8002b68:	62eb      	str	r3, [r5, #44]	@ 0x2c
        __HAL_RCC_PLLCLKOUT_ENABLE(RCC_PLL1_DIVR);
 8002b6a:	6aeb      	ldr	r3, [r5, #44]	@ 0x2c
 8002b6c:	f443 2380 	orr.w	r3, r3, #262144	@ 0x40000
 8002b70:	62eb      	str	r3, [r5, #44]	@ 0x2c
        __HAL_RCC_PLLFRACN_ENABLE();
 8002b72:	6aeb      	ldr	r3, [r5, #44]	@ 0x2c
 8002b74:	f043 0301 	orr.w	r3, r3, #1
 8002b78:	62eb      	str	r3, [r5, #44]	@ 0x2c
        __HAL_RCC_PLL_ENABLE();
 8002b7a:	682b      	ldr	r3, [r5, #0]
 8002b7c:	f043 7380 	orr.w	r3, r3, #16777216	@ 0x1000000
 8002b80:	602b      	str	r3, [r5, #0]
        tickstart = HAL_GetTick();
 8002b82:	f7fe f983 	bl	8000e8c <HAL_GetTick>
 8002b86:	4604      	mov	r4, r0
        while (__HAL_RCC_GET_FLAG(RCC_FLAG_PLLRDY) == 0U)
 8002b88:	6833      	ldr	r3, [r6, #0]
 8002b8a:	019a      	lsls	r2, r3, #6
 8002b8c:	f53f ae80 	bmi.w	8002890 <HAL_RCC_OscConfig+0x138>
          if ((HAL_GetTick() - tickstart) > PLL_TIMEOUT_VALUE)
 8002b90:	f7fe f97c 	bl	8000e8c <HAL_GetTick>
 8002b94:	1b00      	subs	r0, r0, r4
 8002b96:	2802      	cmp	r0, #2
 8002b98:	d9f6      	bls.n	8002b88 <HAL_RCC_OscConfig+0x430>
 8002b9a:	e73a      	b.n	8002a12 <HAL_RCC_OscConfig+0x2ba>
      if (((RCC_OscInitStruct->PLL.PLLState) == RCC_PLL_OFF) ||
 8002b9c:	2b01      	cmp	r3, #1
      temp1_pllckcfg = RCC->PLLCKSELR;
 8002b9e:	6aaa      	ldr	r2, [r5, #40]	@ 0x28
      temp2_pllckcfg = RCC->PLL1DIVR;
 8002ba0:	6b28      	ldr	r0, [r5, #48]	@ 0x30
      if (((RCC_OscInitStruct->PLL.PLLState) == RCC_PLL_OFF) ||
 8002ba2:	f43f aec8 	beq.w	8002936 <HAL_RCC_OscConfig+0x1de>
          (READ_BIT(temp1_pllckcfg, RCC_PLLCKSELR_PLLSRC) != RCC_OscInitStruct->PLL.PLLSource) ||
 8002ba6:	f002 0303 	and.w	r3, r2, #3
      if (((RCC_OscInitStruct->PLL.PLLState) == RCC_PLL_OFF) ||
 8002baa:	6aa1      	ldr	r1, [r4, #40]	@ 0x28
 8002bac:	428b      	cmp	r3, r1
 8002bae:	f47f aec2 	bne.w	8002936 <HAL_RCC_OscConfig+0x1de>
          ((READ_BIT(temp1_pllckcfg, RCC_PLLCKSELR_DIVM1) >> RCC_PLLCKSELR_DIVM1_Pos) != RCC_OscInitStruct->PLL.PLLM) ||
 8002bb2:	f3c2 1205 	ubfx	r2, r2, #4, #6
          (READ_BIT(temp1_pllckcfg, RCC_PLLCKSELR_PLLSRC) != RCC_OscInitStruct->PLL.PLLSource) ||
 8002bb6:	6ae3      	ldr	r3, [r4, #44]	@ 0x2c
 8002bb8:	429a      	cmp	r2, r3
 8002bba:	f47f aebc 	bne.w	8002936 <HAL_RCC_OscConfig+0x1de>
          (READ_BIT(temp2_pllckcfg, RCC_PLL1DIVR_N1) != (RCC_OscInitStruct->PLL.PLLN - 1U)) ||
 8002bbe:	6b23      	ldr	r3, [r4, #48]	@ 0x30
 8002bc0:	f3c0 0208 	ubfx	r2, r0, #0, #9
 8002bc4:	3b01      	subs	r3, #1
          ((READ_BIT(temp1_pllckcfg, RCC_PLLCKSELR_DIVM1) >> RCC_PLLCKSELR_DIVM1_Pos) != RCC_OscInitStruct->PLL.PLLM) ||
 8002bc6:	429a      	cmp	r2, r3
 8002bc8:	f47f aeb5 	bne.w	8002936 <HAL_RCC_OscConfig+0x1de>
          ((READ_BIT(temp2_pllckcfg, RCC_PLL1DIVR_P1) >> RCC_PLL1DIVR_P1_Pos) != (RCC_OscInitStruct->PLL.PLLP - 1U)) ||
 8002bcc:	6b63      	ldr	r3, [r4, #52]	@ 0x34
 8002bce:	f3c0 2246 	ubfx	r2, r0, #9, #7
 8002bd2:	3b01      	subs	r3, #1
          (READ_BIT(temp2_pllckcfg, RCC_PLL1DIVR_N1) != (RCC_OscInitStruct->PLL.PLLN - 1U)) ||
 8002bd4:	429a      	cmp	r2, r3
 8002bd6:	f47f aeae 	bne.w	8002936 <HAL_RCC_OscConfig+0x1de>
          ((READ_BIT(temp2_pllckcfg, RCC_PLL1DIVR_Q1) >> RCC_PLL1DIVR_Q1_Pos) != (RCC_OscInitStruct->PLL.PLLQ - 1U)) ||
 8002bda:	6ba3      	ldr	r3, [r4, #56]	@ 0x38
 8002bdc:	f3c0 4206 	ubfx	r2, r0, #16, #7
 8002be0:	3b01      	subs	r3, #1
          ((READ_BIT(temp2_pllckcfg, RCC_PLL1DIVR_P1) >> RCC_PLL1DIVR_P1_Pos) != (RCC_OscInitStruct->PLL.PLLP - 1U)) ||
 8002be2:	429a      	cmp	r2, r3
 8002be4:	f47f aea7 	bne.w	8002936 <HAL_RCC_OscConfig+0x1de>
          ((READ_BIT(temp2_pllckcfg, RCC_PLL1DIVR_R1) >> RCC_PLL1DIVR_R1_Pos) != (RCC_OscInitStruct->PLL.PLLR - 1U)))
 8002be8:	6be3      	ldr	r3, [r4, #60]	@ 0x3c
 8002bea:	f3c0 6006 	ubfx	r0, r0, #24, #7
 8002bee:	3b01      	subs	r3, #1
          ((READ_BIT(temp2_pllckcfg, RCC_PLL1DIVR_Q1) >> RCC_PLL1DIVR_Q1_Pos) != (RCC_OscInitStruct->PLL.PLLQ - 1U)) ||
 8002bf0:	4298      	cmp	r0, r3
 8002bf2:	f47f aea0 	bne.w	8002936 <HAL_RCC_OscConfig+0x1de>
        temp1_pllckcfg = ((RCC->PLL1FRACR & RCC_PLL1FRACR_FRACN1) >> RCC_PLL1FRACR_FRACN1_Pos);
 8002bf6:	6b6b      	ldr	r3, [r5, #52]	@ 0x34
        if (RCC_OscInitStruct->PLL.PLLFRACN != temp1_pllckcfg)
 8002bf8:	6ca2      	ldr	r2, [r4, #72]	@ 0x48
        temp1_pllckcfg = ((RCC->PLL1FRACR & RCC_PLL1FRACR_FRACN1) >> RCC_PLL1FRACR_FRACN1_Pos);
 8002bfa:	f3c3 03cc 	ubfx	r3, r3, #3, #13
        if (RCC_OscInitStruct->PLL.PLLFRACN != temp1_pllckcfg)
 8002bfe:	429a      	cmp	r2, r3
 8002c00:	f43f ae46 	beq.w	8002890 <HAL_RCC_OscConfig+0x138>
          __HAL_RCC_PLLFRACN_DISABLE();
 8002c04:	4a1f      	ldr	r2, [pc, #124]	@ (8002c84 <HAL_RCC_OscConfig+0x52c>)
 8002c06:	6ad3      	ldr	r3, [r2, #44]	@ 0x2c
 8002c08:	f023 0301 	bic.w	r3, r3, #1
 8002c0c:	62d3      	str	r3, [r2, #44]	@ 0x2c
          tickstart = HAL_GetTick();
 8002c0e:	f7fe f93d 	bl	8000e8c <HAL_GetTick>
 8002c12:	4605      	mov	r5, r0
          while ((HAL_GetTick() - tickstart) < PLL_FRAC_TIMEOUT_VALUE)
 8002c14:	f7fe f93a 	bl	8000e8c <HAL_GetTick>
 8002c18:	42a8      	cmp	r0, r5
 8002c1a:	d0fb      	beq.n	8002c14 <HAL_RCC_OscConfig+0x4bc>
          __HAL_RCC_PLLFRACN_CONFIG(RCC_OscInitStruct->PLL.PLLFRACN);
 8002c1c:	4a19      	ldr	r2, [pc, #100]	@ (8002c84 <HAL_RCC_OscConfig+0x52c>)
 8002c1e:	4b1b      	ldr	r3, [pc, #108]	@ (8002c8c <HAL_RCC_OscConfig+0x534>)
 8002c20:	6b50      	ldr	r0, [r2, #52]	@ 0x34
 8002c22:	6ca1      	ldr	r1, [r4, #72]	@ 0x48
 8002c24:	4003      	ands	r3, r0
 8002c26:	ea43 03c1 	orr.w	r3, r3, r1, lsl #3
 8002c2a:	6353      	str	r3, [r2, #52]	@ 0x34
          __HAL_RCC_PLLFRACN_ENABLE();
 8002c2c:	6ad3      	ldr	r3, [r2, #44]	@ 0x2c
 8002c2e:	f043 0301 	orr.w	r3, r3, #1
 8002c32:	62d3      	str	r3, [r2, #44]	@ 0x2c
 8002c34:	e62c      	b.n	8002890 <HAL_RCC_OscConfig+0x138>
      __HAL_RCC_HSE_CONFIG(RCC_OscInitStruct->HSEState);
 8002c36:	f442 2280 	orr.w	r2, r2, #262144	@ 0x40000
 8002c3a:	601a      	str	r2, [r3, #0]
 8002c3c:	681a      	ldr	r2, [r3, #0]
 8002c3e:	f442 3280 	orr.w	r2, r2, #65536	@ 0x10000
 8002c42:	601a      	str	r2, [r3, #0]
      if (RCC_OscInitStruct->HSEState != RCC_HSE_OFF)
 8002c44:	e5b0      	b.n	80027a8 <HAL_RCC_OscConfig+0x50>
    __HAL_RCC_LSE_CONFIG(RCC_OscInitStruct->LSEState);
 8002c46:	4d0f      	ldr	r5, [pc, #60]	@ (8002c84 <HAL_RCC_OscConfig+0x52c>)
        if ((HAL_GetTick() - tickstart) > RCC_LSE_TIMEOUT_VALUE)
 8002c48:	f241 3788 	movw	r7, #5000	@ 0x1388
    __HAL_RCC_LSE_CONFIG(RCC_OscInitStruct->LSEState);
 8002c4c:	6f2b      	ldr	r3, [r5, #112]	@ 0x70
 8002c4e:	f023 0301 	bic.w	r3, r3, #1
 8002c52:	672b      	str	r3, [r5, #112]	@ 0x70
 8002c54:	6f2b      	ldr	r3, [r5, #112]	@ 0x70
 8002c56:	f023 0304 	bic.w	r3, r3, #4
 8002c5a:	672b      	str	r3, [r5, #112]	@ 0x70
      tickstart = HAL_GetTick();
 8002c5c:	f7fe f916 	bl	8000e8c <HAL_GetTick>
 8002c60:	4606      	mov	r6, r0
      while (__HAL_RCC_GET_FLAG(RCC_FLAG_LSERDY) != 0U)
 8002c62:	e005      	b.n	8002c70 <HAL_RCC_OscConfig+0x518>
        if ((HAL_GetTick() - tickstart) > RCC_LSE_TIMEOUT_VALUE)
 8002c64:	f7fe f912 	bl	8000e8c <HAL_GetTick>
 8002c68:	1b80      	subs	r0, r0, r6
 8002c6a:	42b8      	cmp	r0, r7
 8002c6c:	f63f aed1 	bhi.w	8002a12 <HAL_RCC_OscConfig+0x2ba>
      while (__HAL_RCC_GET_FLAG(RCC_FLAG_LSERDY) != 0U)
 8002c70:	6f2b      	ldr	r3, [r5, #112]	@ 0x70
 8002c72:	0798      	lsls	r0, r3, #30
 8002c74:	d4f6      	bmi.n	8002c64 <HAL_RCC_OscConfig+0x50c>
 8002c76:	e607      	b.n	8002888 <HAL_RCC_OscConfig+0x130>
    __HAL_RCC_LSE_CONFIG(RCC_OscInitStruct->LSEState);
 8002c78:	4a02      	ldr	r2, [pc, #8]	@ (8002c84 <HAL_RCC_OscConfig+0x52c>)
 8002c7a:	6f13      	ldr	r3, [r2, #112]	@ 0x70
 8002c7c:	f043 0301 	orr.w	r3, r3, #1
 8002c80:	6713      	str	r3, [r2, #112]	@ 0x70
    if ((RCC_OscInitStruct->LSEState) != RCC_LSE_OFF)
 8002c82:	e699      	b.n	80029b8 <HAL_RCC_OscConfig+0x260>
 8002c84:	58024400 	.word	0x58024400
 8002c88:	fffffc0c 	.word	0xfffffc0c
 8002c8c:	ffff0007 	.word	0xffff0007
    __HAL_RCC_LSE_CONFIG(RCC_OscInitStruct->LSEState);
 8002c90:	f042 0204 	orr.w	r2, r2, #4
 8002c94:	671a      	str	r2, [r3, #112]	@ 0x70
 8002c96:	6f1a      	ldr	r2, [r3, #112]	@ 0x70
 8002c98:	f042 0201 	orr.w	r2, r2, #1
 8002c9c:	671a      	str	r2, [r3, #112]	@ 0x70
    if ((RCC_OscInitStruct->LSEState) != RCC_LSE_OFF)
 8002c9e:	e68b      	b.n	80029b8 <HAL_RCC_OscConfig+0x260>
    return HAL_ERROR;
 8002ca0:	2001      	movs	r0, #1
}
 8002ca2:	4770      	bx	lr

08002ca4 <HAL_RCC_GetSysClockFreq>:
  switch (RCC->CFGR & RCC_CFGR_SWS)
 8002ca4:	4a3f      	ldr	r2, [pc, #252]	@ (8002da4 <HAL_RCC_GetSysClockFreq+0x100>)
 8002ca6:	6913      	ldr	r3, [r2, #16]
 8002ca8:	f003 0338 	and.w	r3, r3, #56	@ 0x38
 8002cac:	2b10      	cmp	r3, #16
 8002cae:	d004      	beq.n	8002cba <HAL_RCC_GetSysClockFreq+0x16>
 8002cb0:	2b18      	cmp	r3, #24
 8002cb2:	d00d      	beq.n	8002cd0 <HAL_RCC_GetSysClockFreq+0x2c>
 8002cb4:	b11b      	cbz	r3, 8002cbe <HAL_RCC_GetSysClockFreq+0x1a>
      sysclockfreq = CSI_VALUE;
 8002cb6:	483c      	ldr	r0, [pc, #240]	@ (8002da8 <HAL_RCC_GetSysClockFreq+0x104>)
 8002cb8:	4770      	bx	lr
  switch (RCC->CFGR & RCC_CFGR_SWS)
 8002cba:	483c      	ldr	r0, [pc, #240]	@ (8002dac <HAL_RCC_GetSysClockFreq+0x108>)
 8002cbc:	4770      	bx	lr
      if (__HAL_RCC_GET_FLAG(RCC_FLAG_HSIDIV) != 0U)
 8002cbe:	6813      	ldr	r3, [r2, #0]
 8002cc0:	0699      	lsls	r1, r3, #26
 8002cc2:	d548      	bpl.n	8002d56 <HAL_RCC_GetSysClockFreq+0xb2>
        sysclockfreq = (uint32_t)(HSI_VALUE >> (__HAL_RCC_GET_HSI_DIVIDER() >> 3));
 8002cc4:	6813      	ldr	r3, [r2, #0]
 8002cc6:	483a      	ldr	r0, [pc, #232]	@ (8002db0 <HAL_RCC_GetSysClockFreq+0x10c>)
 8002cc8:	f3c3 03c1 	ubfx	r3, r3, #3, #2
 8002ccc:	40d8      	lsrs	r0, r3
 8002cce:	4770      	bx	lr
      pllsource = (RCC->PLLCKSELR & RCC_PLLCKSELR_PLLSRC);
 8002cd0:	6a93      	ldr	r3, [r2, #40]	@ 0x28
{
 8002cd2:	b430      	push	{r4, r5}
      pllm = ((RCC->PLLCKSELR & RCC_PLLCKSELR_DIVM1) >> 4)  ;
 8002cd4:	6a94      	ldr	r4, [r2, #40]	@ 0x28
      pllfracen = ((RCC-> PLLCFGR & RCC_PLLCFGR_PLL1FRACEN) >> RCC_PLLCFGR_PLL1FRACEN_Pos);
 8002cd6:	6ad5      	ldr	r5, [r2, #44]	@ 0x2c
      if (pllm != 0U)
 8002cd8:	f414 7f7c 	tst.w	r4, #1008	@ 0x3f0
      fracn1 = (float_t)(uint32_t)(pllfracen * ((RCC->PLL1FRACR & RCC_PLL1FRACR_FRACN1) >> 3));
 8002cdc:	6b51      	ldr	r1, [r2, #52]	@ 0x34
      pllm = ((RCC->PLLCKSELR & RCC_PLLCKSELR_DIVM1) >> 4)  ;
 8002cde:	f3c4 1005 	ubfx	r0, r4, #4, #6
      if (pllm != 0U)
 8002ce2:	d036      	beq.n	8002d52 <HAL_RCC_GetSysClockFreq+0xae>
      fracn1 = (float_t)(uint32_t)(pllfracen * ((RCC->PLL1FRACR & RCC_PLL1FRACR_FRACN1) >> 3));
 8002ce4:	f3c1 01cc 	ubfx	r1, r1, #3, #13
      pllfracen = ((RCC-> PLLCFGR & RCC_PLLCFGR_PLL1FRACEN) >> RCC_PLLCFGR_PLL1FRACEN_Pos);
 8002ce8:	f005 0501 	and.w	r5, r5, #1
      pllsource = (RCC->PLLCKSELR & RCC_PLLCKSELR_PLLSRC);
 8002cec:	f003 0303 	and.w	r3, r3, #3
              pllvco = ((float_t)hsivalue / (float_t)pllm) * ((float_t)(uint32_t)(RCC->PLL1DIVR & RCC_PLL1DIVR_N1) + (fracn1 / (float_t)0x2000) + (float_t)1);
 8002cf0:	ee07 0a90 	vmov	s15, r0
      fracn1 = (float_t)(uint32_t)(pllfracen * ((RCC->PLL1FRACR & RCC_PLL1FRACR_FRACN1) >> 3));
 8002cf4:	fb05 f101 	mul.w	r1, r5, r1
 8002cf8:	2b01      	cmp	r3, #1
              pllvco = ((float_t)hsivalue / (float_t)pllm) * ((float_t)(uint32_t)(RCC->PLL1DIVR & RCC_PLL1DIVR_N1) + (fracn1 / (float_t)0x2000) + (float_t)1);
 8002cfa:	eef8 7ae7 	vcvt.f32.s32	s15, s15
 8002cfe:	ee06 1a90 	vmov	s13, r1
 8002d02:	eefa 6ae9 	vcvt.f32.s32	s13, s13, #13
 8002d06:	d002      	beq.n	8002d0e <HAL_RCC_GetSysClockFreq+0x6a>
 8002d08:	2b02      	cmp	r3, #2
 8002d0a:	d026      	beq.n	8002d5a <HAL_RCC_GetSysClockFreq+0xb6>
 8002d0c:	b343      	cbz	r3, 8002d60 <HAL_RCC_GetSysClockFreq+0xbc>
            pllvco = ((float_t)CSI_VALUE / (float_t)pllm) * ((float_t)(uint32_t)(RCC->PLL1DIVR & RCC_PLL1DIVR_N1) + (fracn1 / (float_t)0x2000) + (float_t)1);
 8002d0e:	ed9f 7a29 	vldr	s14, [pc, #164]	@ 8002db4 <HAL_RCC_GetSysClockFreq+0x110>
 8002d12:	ee87 6a27 	vdiv.f32	s12, s14, s15
 8002d16:	6b13      	ldr	r3, [r2, #48]	@ 0x30
 8002d18:	f3c3 0308 	ubfx	r3, r3, #0, #9
 8002d1c:	ee07 3a10 	vmov	s14, r3
 8002d20:	eef7 5a00 	vmov.f32	s11, #112	@ 0x3f800000  1.0
 8002d24:	eeb8 7ac7 	vcvt.f32.s32	s14, s14
 8002d28:	ee37 7a25 	vadd.f32	s14, s14, s11
 8002d2c:	ee37 7a26 	vadd.f32	s14, s14, s13
 8002d30:	ee27 7a06 	vmul.f32	s14, s14, s12
        pllp = (((RCC->PLL1DIVR & RCC_PLL1DIVR_P1) >> 9) + 1U) ;
 8002d34:	4b1b      	ldr	r3, [pc, #108]	@ (8002da4 <HAL_RCC_GetSysClockFreq+0x100>)
 8002d36:	6b1b      	ldr	r3, [r3, #48]	@ 0x30
 8002d38:	f3c3 2346 	ubfx	r3, r3, #9, #7
 8002d3c:	3301      	adds	r3, #1
        sysclockfreq = (uint32_t)(float_t)(pllvco / (float_t)pllp);
 8002d3e:	ee07 3a90 	vmov	s15, r3
 8002d42:	eef8 6ae7 	vcvt.f32.s32	s13, s15
 8002d46:	eec7 7a26 	vdiv.f32	s15, s14, s13
 8002d4a:	eefc 7ae7 	vcvt.u32.f32	s15, s15
 8002d4e:	ee17 0a90 	vmov	r0, s15
}
 8002d52:	bc30      	pop	{r4, r5}
 8002d54:	4770      	bx	lr
        sysclockfreq = (uint32_t) HSI_VALUE;
 8002d56:	4816      	ldr	r0, [pc, #88]	@ (8002db0 <HAL_RCC_GetSysClockFreq+0x10c>)
}
 8002d58:	4770      	bx	lr
            pllvco = ((float_t)HSE_VALUE / (float_t)pllm) * ((float_t)(uint32_t)(RCC->PLL1DIVR & RCC_PLL1DIVR_N1) + (fracn1 / (float_t)0x2000) + (float_t)1);
 8002d5a:	ed9f 7a17 	vldr	s14, [pc, #92]	@ 8002db8 <HAL_RCC_GetSysClockFreq+0x114>
 8002d5e:	e7d8      	b.n	8002d12 <HAL_RCC_GetSysClockFreq+0x6e>
            if (__HAL_RCC_GET_FLAG(RCC_FLAG_HSIDIV) != 0U)
 8002d60:	6813      	ldr	r3, [r2, #0]
 8002d62:	069b      	lsls	r3, r3, #26
 8002d64:	d51a      	bpl.n	8002d9c <HAL_RCC_GetSysClockFreq+0xf8>
              hsivalue = (HSI_VALUE >> (__HAL_RCC_GET_HSI_DIVIDER() >> 3));
 8002d66:	6810      	ldr	r0, [r2, #0]
              pllvco = ((float_t)hsivalue / (float_t)pllm) * ((float_t)(uint32_t)(RCC->PLL1DIVR & RCC_PLL1DIVR_N1) + (fracn1 / (float_t)0x2000) + (float_t)1);
 8002d68:	eeb7 7a00 	vmov.f32	s14, #112	@ 0x3f800000  1.0
 8002d6c:	6b13      	ldr	r3, [r2, #48]	@ 0x30
              hsivalue = (HSI_VALUE >> (__HAL_RCC_GET_HSI_DIVIDER() >> 3));
 8002d6e:	4910      	ldr	r1, [pc, #64]	@ (8002db0 <HAL_RCC_GetSysClockFreq+0x10c>)
 8002d70:	f3c0 02c1 	ubfx	r2, r0, #3, #2
              pllvco = ((float_t)hsivalue / (float_t)pllm) * ((float_t)(uint32_t)(RCC->PLL1DIVR & RCC_PLL1DIVR_N1) + (fracn1 / (float_t)0x2000) + (float_t)1);
 8002d74:	f3c3 0308 	ubfx	r3, r3, #0, #9
              hsivalue = (HSI_VALUE >> (__HAL_RCC_GET_HSI_DIVIDER() >> 3));
 8002d78:	40d1      	lsrs	r1, r2
              pllvco = ((float_t)hsivalue / (float_t)pllm) * ((float_t)(uint32_t)(RCC->PLL1DIVR & RCC_PLL1DIVR_N1) + (fracn1 / (float_t)0x2000) + (float_t)1);
 8002d7a:	ee06 3a10 	vmov	s12, r3
 8002d7e:	ee05 1a90 	vmov	s11, r1
 8002d82:	eeb8 6ac6 	vcvt.f32.s32	s12, s12
 8002d86:	eef8 5ae5 	vcvt.f32.s32	s11, s11
 8002d8a:	ee36 6a07 	vadd.f32	s12, s12, s14
 8002d8e:	ee85 7aa7 	vdiv.f32	s14, s11, s15
 8002d92:	ee76 7a26 	vadd.f32	s15, s12, s13
 8002d96:	ee27 7a27 	vmul.f32	s14, s14, s15
 8002d9a:	e7cb      	b.n	8002d34 <HAL_RCC_GetSysClockFreq+0x90>
              pllvco = ((float_t)HSI_VALUE / (float_t)pllm) * ((float_t)(uint32_t)(RCC->PLL1DIVR & RCC_PLL1DIVR_N1) + (fracn1 / (float_t)0x2000) + (float_t)1);
 8002d9c:	ed9f 7a07 	vldr	s14, [pc, #28]	@ 8002dbc <HAL_RCC_GetSysClockFreq+0x118>
 8002da0:	e7b7      	b.n	8002d12 <HAL_RCC_GetSysClockFreq+0x6e>
 8002da2:	bf00      	nop
 8002da4:	58024400 	.word	0x58024400
 8002da8:	003d0900 	.word	0x003d0900
 8002dac:	017d7840 	.word	0x017d7840
 8002db0:	03d09000 	.word	0x03d09000
 8002db4:	4a742400 	.word	0x4a742400
 8002db8:	4bbebc20 	.word	0x4bbebc20
 8002dbc:	4c742400 	.word	0x4c742400

08002dc0 <HAL_RCC_ClockConfig>:
  if (RCC_ClkInitStruct == NULL)
 8002dc0:	2800      	cmp	r0, #0
 8002dc2:	f000 810e 	beq.w	8002fe2 <HAL_RCC_ClockConfig+0x222>
  if (FLatency > __HAL_FLASH_GET_LATENCY())
 8002dc6:	4a8d      	ldr	r2, [pc, #564]	@ (8002ffc <HAL_RCC_ClockConfig+0x23c>)
 8002dc8:	6813      	ldr	r3, [r2, #0]
 8002dca:	f003 030f 	and.w	r3, r3, #15
 8002dce:	428b      	cmp	r3, r1
{
 8002dd0:	e92d 41f0 	stmdb	sp!, {r4, r5, r6, r7, r8, lr}
 8002dd4:	4604      	mov	r4, r0
 8002dd6:	460d      	mov	r5, r1
  if (FLatency > __HAL_FLASH_GET_LATENCY())
 8002dd8:	d20c      	bcs.n	8002df4 <HAL_RCC_ClockConfig+0x34>
    __HAL_FLASH_SET_LATENCY(FLatency);
 8002dda:	6813      	ldr	r3, [r2, #0]
 8002ddc:	f023 030f 	bic.w	r3, r3, #15
 8002de0:	430b      	orrs	r3, r1
 8002de2:	6013      	str	r3, [r2, #0]
    if (__HAL_FLASH_GET_LATENCY() != FLatency)
 8002de4:	6813      	ldr	r3, [r2, #0]
 8002de6:	f003 030f 	and.w	r3, r3, #15
 8002dea:	428b      	cmp	r3, r1
 8002dec:	d002      	beq.n	8002df4 <HAL_RCC_ClockConfig+0x34>
    return HAL_ERROR;
 8002dee:	2001      	movs	r0, #1
}
 8002df0:	e8bd 81f0 	ldmia.w	sp!, {r4, r5, r6, r7, r8, pc}
  if (((RCC_ClkInitStruct->ClockType) & RCC_CLOCKTYPE_D1PCLK1) == RCC_CLOCKTYPE_D1PCLK1)
 8002df4:	6823      	ldr	r3, [r4, #0]
 8002df6:	0758      	lsls	r0, r3, #29
 8002df8:	d50b      	bpl.n	8002e12 <HAL_RCC_ClockConfig+0x52>
    if ((RCC_ClkInitStruct->APB3CLKDivider) > (RCC->D1CFGR & RCC_D1CFGR_D1PPRE))
 8002dfa:	4981      	ldr	r1, [pc, #516]	@ (8003000 <HAL_RCC_ClockConfig+0x240>)
 8002dfc:	6920      	ldr	r0, [r4, #16]
 8002dfe:	698a      	ldr	r2, [r1, #24]
 8002e00:	f002 0270 	and.w	r2, r2, #112	@ 0x70
 8002e04:	4290      	cmp	r0, r2
 8002e06:	d904      	bls.n	8002e12 <HAL_RCC_ClockConfig+0x52>
      MODIFY_REG(RCC->D1CFGR, RCC_D1CFGR_D1PPRE, RCC_ClkInitStruct->APB3CLKDivider);
 8002e08:	698a      	ldr	r2, [r1, #24]
 8002e0a:	f022 0270 	bic.w	r2, r2, #112	@ 0x70
 8002e0e:	4302      	orrs	r2, r0
 8002e10:	618a      	str	r2, [r1, #24]
  if (((RCC_ClkInitStruct->ClockType) & RCC_CLOCKTYPE_PCLK1) == RCC_CLOCKTYPE_PCLK1)
 8002e12:	0719      	lsls	r1, r3, #28
 8002e14:	d50b      	bpl.n	8002e2e <HAL_RCC_ClockConfig+0x6e>
    if ((RCC_ClkInitStruct->APB1CLKDivider) > (RCC->D2CFGR & RCC_D2CFGR_D2PPRE1))
 8002e16:	497a      	ldr	r1, [pc, #488]	@ (8003000 <HAL_RCC_ClockConfig+0x240>)
 8002e18:	6960      	ldr	r0, [r4, #20]
 8002e1a:	69ca      	ldr	r2, [r1, #28]
 8002e1c:	f002 0270 	and.w	r2, r2, #112	@ 0x70
 8002e20:	4290      	cmp	r0, r2
 8002e22:	d904      	bls.n	8002e2e <HAL_RCC_ClockConfig+0x6e>
      MODIFY_REG(RCC->D2CFGR, RCC_D2CFGR_D2PPRE1, (RCC_ClkInitStruct->APB1CLKDivider));
 8002e24:	69ca      	ldr	r2, [r1, #28]
 8002e26:	f022 0270 	bic.w	r2, r2, #112	@ 0x70
 8002e2a:	4302      	orrs	r2, r0
 8002e2c:	61ca      	str	r2, [r1, #28]
  if (((RCC_ClkInitStruct->ClockType) & RCC_CLOCKTYPE_PCLK2) == RCC_CLOCKTYPE_PCLK2)
 8002e2e:	06da      	lsls	r2, r3, #27
 8002e30:	d50b      	bpl.n	8002e4a <HAL_RCC_ClockConfig+0x8a>
    if ((RCC_ClkInitStruct->APB2CLKDivider) > (RCC->D2CFGR & RCC_D2CFGR_D2PPRE2))
 8002e32:	4973      	ldr	r1, [pc, #460]	@ (8003000 <HAL_RCC_ClockConfig+0x240>)
 8002e34:	69a0      	ldr	r0, [r4, #24]
 8002e36:	69ca      	ldr	r2, [r1, #28]
 8002e38:	f402 62e0 	and.w	r2, r2, #1792	@ 0x700
 8002e3c:	4290      	cmp	r0, r2
 8002e3e:	d904      	bls.n	8002e4a <HAL_RCC_ClockConfig+0x8a>
      MODIFY_REG(RCC->D2CFGR, RCC_D2CFGR_D2PPRE2, (RCC_ClkInitStruct->APB2CLKDivider));
 8002e40:	69ca      	ldr	r2, [r1, #28]
 8002e42:	f422 62e0 	bic.w	r2, r2, #1792	@ 0x700
 8002e46:	4302      	orrs	r2, r0
 8002e48:	61ca      	str	r2, [r1, #28]
  if (((RCC_ClkInitStruct->ClockType) & RCC_CLOCKTYPE_D3PCLK1) == RCC_CLOCKTYPE_D3PCLK1)
 8002e4a:	069f      	lsls	r7, r3, #26
 8002e4c:	d50b      	bpl.n	8002e66 <HAL_RCC_ClockConfig+0xa6>
    if ((RCC_ClkInitStruct->APB4CLKDivider) > (RCC->D3CFGR & RCC_D3CFGR_D3PPRE))
 8002e4e:	496c      	ldr	r1, [pc, #432]	@ (8003000 <HAL_RCC_ClockConfig+0x240>)
 8002e50:	69e0      	ldr	r0, [r4, #28]
 8002e52:	6a0a      	ldr	r2, [r1, #32]
 8002e54:	f002 0270 	and.w	r2, r2, #112	@ 0x70
 8002e58:	4290      	cmp	r0, r2
 8002e5a:	d904      	bls.n	8002e66 <HAL_RCC_ClockConfig+0xa6>
      MODIFY_REG(RCC->D3CFGR, RCC_D3CFGR_D3PPRE, (RCC_ClkInitStruct->APB4CLKDivider));
 8002e5c:	6a0a      	ldr	r2, [r1, #32]
 8002e5e:	f022 0270 	bic.w	r2, r2, #112	@ 0x70
 8002e62:	4302      	orrs	r2, r0
 8002e64:	620a      	str	r2, [r1, #32]
  if (((RCC_ClkInitStruct->ClockType) & RCC_CLOCKTYPE_HCLK) == RCC_CLOCKTYPE_HCLK)
 8002e66:	079e      	lsls	r6, r3, #30
  if (((RCC_ClkInitStruct->ClockType) & RCC_CLOCKTYPE_SYSCLK) == RCC_CLOCKTYPE_SYSCLK)
 8002e68:	f003 0201 	and.w	r2, r3, #1
  if (((RCC_ClkInitStruct->ClockType) & RCC_CLOCKTYPE_HCLK) == RCC_CLOCKTYPE_HCLK)
 8002e6c:	f140 80ab 	bpl.w	8002fc6 <HAL_RCC_ClockConfig+0x206>
    if ((RCC_ClkInitStruct->AHBCLKDivider) > (RCC->D1CFGR & RCC_D1CFGR_HPRE))
 8002e70:	4e63      	ldr	r6, [pc, #396]	@ (8003000 <HAL_RCC_ClockConfig+0x240>)
 8002e72:	68e0      	ldr	r0, [r4, #12]
 8002e74:	69b1      	ldr	r1, [r6, #24]
 8002e76:	f001 010f 	and.w	r1, r1, #15
 8002e7a:	4288      	cmp	r0, r1
 8002e7c:	d904      	bls.n	8002e88 <HAL_RCC_ClockConfig+0xc8>
      MODIFY_REG(RCC->D1CFGR, RCC_D1CFGR_HPRE, RCC_ClkInitStruct->AHBCLKDivider);
 8002e7e:	69b1      	ldr	r1, [r6, #24]
 8002e80:	f021 010f 	bic.w	r1, r1, #15
 8002e84:	4301      	orrs	r1, r0
 8002e86:	61b1      	str	r1, [r6, #24]
  if (((RCC_ClkInitStruct->ClockType) & RCC_CLOCKTYPE_SYSCLK) == RCC_CLOCKTYPE_SYSCLK)
 8002e88:	2a00      	cmp	r2, #0
 8002e8a:	d030      	beq.n	8002eee <HAL_RCC_ClockConfig+0x12e>
    MODIFY_REG(RCC->D1CFGR, RCC_D1CFGR_D1CPRE, RCC_ClkInitStruct->SYSCLKDivider);
 8002e8c:	4a5c      	ldr	r2, [pc, #368]	@ (8003000 <HAL_RCC_ClockConfig+0x240>)
 8002e8e:	68a1      	ldr	r1, [r4, #8]
 8002e90:	6993      	ldr	r3, [r2, #24]
 8002e92:	f423 6370 	bic.w	r3, r3, #3840	@ 0xf00
 8002e96:	430b      	orrs	r3, r1
 8002e98:	6193      	str	r3, [r2, #24]
    if (RCC_ClkInitStruct->SYSCLKSource == RCC_SYSCLKSOURCE_HSE)
 8002e9a:	6861      	ldr	r1, [r4, #4]
      if (__HAL_RCC_GET_FLAG(RCC_FLAG_HSERDY) == 0U)
 8002e9c:	6813      	ldr	r3, [r2, #0]
    if (RCC_ClkInitStruct->SYSCLKSource == RCC_SYSCLKSOURCE_HSE)
 8002e9e:	2902      	cmp	r1, #2
 8002ea0:	f000 80a1 	beq.w	8002fe6 <HAL_RCC_ClockConfig+0x226>
    else if (RCC_ClkInitStruct->SYSCLKSource == RCC_SYSCLKSOURCE_PLLCLK)
 8002ea4:	2903      	cmp	r1, #3
 8002ea6:	f000 8098 	beq.w	8002fda <HAL_RCC_ClockConfig+0x21a>
    else if (RCC_ClkInitStruct->SYSCLKSource == RCC_SYSCLKSOURCE_CSI)
 8002eaa:	2901      	cmp	r1, #1
 8002eac:	f000 80a1 	beq.w	8002ff2 <HAL_RCC_ClockConfig+0x232>
      if (__HAL_RCC_GET_FLAG(RCC_FLAG_HSIRDY) == 0U)
 8002eb0:	075f      	lsls	r7, r3, #29
 8002eb2:	d59c      	bpl.n	8002dee <HAL_RCC_ClockConfig+0x2e>
    MODIFY_REG(RCC->CFGR, RCC_CFGR_SW, RCC_ClkInitStruct->SYSCLKSource);
 8002eb4:	4e52      	ldr	r6, [pc, #328]	@ (8003000 <HAL_RCC_ClockConfig+0x240>)
      if ((HAL_GetTick() - tickstart) > CLOCKSWITCH_TIMEOUT_VALUE)
 8002eb6:	f241 3888 	movw	r8, #5000	@ 0x1388
    MODIFY_REG(RCC->CFGR, RCC_CFGR_SW, RCC_ClkInitStruct->SYSCLKSource);
 8002eba:	6933      	ldr	r3, [r6, #16]
 8002ebc:	f023 0307 	bic.w	r3, r3, #7
 8002ec0:	430b      	orrs	r3, r1
 8002ec2:	6133      	str	r3, [r6, #16]
    tickstart = HAL_GetTick();
 8002ec4:	f7fd ffe2 	bl	8000e8c <HAL_GetTick>
 8002ec8:	4607      	mov	r7, r0
    while (__HAL_RCC_GET_SYSCLK_SOURCE() != (RCC_ClkInitStruct->SYSCLKSource << RCC_CFGR_SWS_Pos))
 8002eca:	e005      	b.n	8002ed8 <HAL_RCC_ClockConfig+0x118>
      if ((HAL_GetTick() - tickstart) > CLOCKSWITCH_TIMEOUT_VALUE)
 8002ecc:	f7fd ffde 	bl	8000e8c <HAL_GetTick>
 8002ed0:	1bc0      	subs	r0, r0, r7
 8002ed2:	4540      	cmp	r0, r8
 8002ed4:	f200 808b 	bhi.w	8002fee <HAL_RCC_ClockConfig+0x22e>
    while (__HAL_RCC_GET_SYSCLK_SOURCE() != (RCC_ClkInitStruct->SYSCLKSource << RCC_CFGR_SWS_Pos))
 8002ed8:	6933      	ldr	r3, [r6, #16]
 8002eda:	6862      	ldr	r2, [r4, #4]
 8002edc:	f003 0338 	and.w	r3, r3, #56	@ 0x38
 8002ee0:	ebb3 0fc2 	cmp.w	r3, r2, lsl #3
 8002ee4:	d1f2      	bne.n	8002ecc <HAL_RCC_ClockConfig+0x10c>
  if (((RCC_ClkInitStruct->ClockType) & RCC_CLOCKTYPE_HCLK) == RCC_CLOCKTYPE_HCLK)
 8002ee6:	6823      	ldr	r3, [r4, #0]
 8002ee8:	079e      	lsls	r6, r3, #30
 8002eea:	d506      	bpl.n	8002efa <HAL_RCC_ClockConfig+0x13a>
    if ((RCC_ClkInitStruct->AHBCLKDivider) < (RCC->D1CFGR & RCC_D1CFGR_HPRE))
 8002eec:	68e0      	ldr	r0, [r4, #12]
 8002eee:	4944      	ldr	r1, [pc, #272]	@ (8003000 <HAL_RCC_ClockConfig+0x240>)
 8002ef0:	698a      	ldr	r2, [r1, #24]
 8002ef2:	f002 020f 	and.w	r2, r2, #15
 8002ef6:	4282      	cmp	r2, r0
 8002ef8:	d869      	bhi.n	8002fce <HAL_RCC_ClockConfig+0x20e>
  if (FLatency < __HAL_FLASH_GET_LATENCY())
 8002efa:	4940      	ldr	r1, [pc, #256]	@ (8002ffc <HAL_RCC_ClockConfig+0x23c>)
 8002efc:	680a      	ldr	r2, [r1, #0]
 8002efe:	f002 020f 	and.w	r2, r2, #15
 8002f02:	42aa      	cmp	r2, r5
 8002f04:	d90a      	bls.n	8002f1c <HAL_RCC_ClockConfig+0x15c>
    __HAL_FLASH_SET_LATENCY(FLatency);
 8002f06:	680a      	ldr	r2, [r1, #0]
 8002f08:	f022 020f 	bic.w	r2, r2, #15
 8002f0c:	432a      	orrs	r2, r5
 8002f0e:	600a      	str	r2, [r1, #0]
    if (__HAL_FLASH_GET_LATENCY() != FLatency)
 8002f10:	680a      	ldr	r2, [r1, #0]
 8002f12:	f002 020f 	and.w	r2, r2, #15
 8002f16:	42aa      	cmp	r2, r5
 8002f18:	f47f af69 	bne.w	8002dee <HAL_RCC_ClockConfig+0x2e>
  if (((RCC_ClkInitStruct->ClockType) & RCC_CLOCKTYPE_D1PCLK1) == RCC_CLOCKTYPE_D1PCLK1)
 8002f1c:	0758      	lsls	r0, r3, #29
 8002f1e:	d50b      	bpl.n	8002f38 <HAL_RCC_ClockConfig+0x178>
    if ((RCC_ClkInitStruct->APB3CLKDivider) < (RCC->D1CFGR & RCC_D1CFGR_D1PPRE))
 8002f20:	4937      	ldr	r1, [pc, #220]	@ (8003000 <HAL_RCC_ClockConfig+0x240>)
 8002f22:	6920      	ldr	r0, [r4, #16]
 8002f24:	698a      	ldr	r2, [r1, #24]
 8002f26:	f002 0270 	and.w	r2, r2, #112	@ 0x70
 8002f2a:	4290      	cmp	r0, r2
 8002f2c:	d204      	bcs.n	8002f38 <HAL_RCC_ClockConfig+0x178>
      MODIFY_REG(RCC->D1CFGR, RCC_D1CFGR_D1PPRE, RCC_ClkInitStruct->APB3CLKDivider);
 8002f2e:	698a      	ldr	r2, [r1, #24]
 8002f30:	f022 0270 	bic.w	r2, r2, #112	@ 0x70
 8002f34:	4302      	orrs	r2, r0
 8002f36:	618a      	str	r2, [r1, #24]
  if (((RCC_ClkInitStruct->ClockType) & RCC_CLOCKTYPE_PCLK1) == RCC_CLOCKTYPE_PCLK1)
 8002f38:	0719      	lsls	r1, r3, #28
 8002f3a:	d50b      	bpl.n	8002f54 <HAL_RCC_ClockConfig+0x194>
    if ((RCC_ClkInitStruct->APB1CLKDivider) < (RCC->D2CFGR & RCC_D2CFGR_D2PPRE1))
 8002f3c:	4930      	ldr	r1, [pc, #192]	@ (8003000 <HAL_RCC_ClockConfig+0x240>)
 8002f3e:	6960      	ldr	r0, [r4, #20]
 8002f40:	69ca      	ldr	r2, [r1, #28]
 8002f42:	f002 0270 	and.w	r2, r2, #112	@ 0x70
 8002f46:	4290      	cmp	r0, r2
 8002f48:	d204      	bcs.n	8002f54 <HAL_RCC_ClockConfig+0x194>
      MODIFY_REG(RCC->D2CFGR, RCC_D2CFGR_D2PPRE1, (RCC_ClkInitStruct->APB1CLKDivider));
 8002f4a:	69ca      	ldr	r2, [r1, #28]
 8002f4c:	f022 0270 	bic.w	r2, r2, #112	@ 0x70
 8002f50:	4302      	orrs	r2, r0
 8002f52:	61ca      	str	r2, [r1, #28]
  if (((RCC_ClkInitStruct->ClockType) & RCC_CLOCKTYPE_PCLK2) == RCC_CLOCKTYPE_PCLK2)
 8002f54:	06da      	lsls	r2, r3, #27
 8002f56:	d50b      	bpl.n	8002f70 <HAL_RCC_ClockConfig+0x1b0>
    if ((RCC_ClkInitStruct->APB2CLKDivider) < (RCC->D2CFGR & RCC_D2CFGR_D2PPRE2))
 8002f58:	4929      	ldr	r1, [pc, #164]	@ (8003000 <HAL_RCC_ClockConfig+0x240>)
 8002f5a:	69a0      	ldr	r0, [r4, #24]
 8002f5c:	69ca      	ldr	r2, [r1, #28]
 8002f5e:	f402 62e0 	and.w	r2, r2, #1792	@ 0x700
 8002f62:	4290      	cmp	r0, r2
 8002f64:	d204      	bcs.n	8002f70 <HAL_RCC_ClockConfig+0x1b0>
      MODIFY_REG(RCC->D2CFGR, RCC_D2CFGR_D2PPRE2, (RCC_ClkInitStruct->APB2CLKDivider));
 8002f66:	69ca      	ldr	r2, [r1, #28]
 8002f68:	f422 62e0 	bic.w	r2, r2, #1792	@ 0x700
 8002f6c:	4302      	orrs	r2, r0
 8002f6e:	61ca      	str	r2, [r1, #28]
  if (((RCC_ClkInitStruct->ClockType) & RCC_CLOCKTYPE_D3PCLK1) == RCC_CLOCKTYPE_D3PCLK1)
 8002f70:	069b      	lsls	r3, r3, #26
 8002f72:	d50b      	bpl.n	8002f8c <HAL_RCC_ClockConfig+0x1cc>
    if ((RCC_ClkInitStruct->APB4CLKDivider) < (RCC->D3CFGR & RCC_D3CFGR_D3PPRE))
 8002f74:	4a22      	ldr	r2, [pc, #136]	@ (8003000 <HAL_RCC_ClockConfig+0x240>)
 8002f76:	69e1      	ldr	r1, [r4, #28]
 8002f78:	6a13      	ldr	r3, [r2, #32]
 8002f7a:	f003 0370 	and.w	r3, r3, #112	@ 0x70
 8002f7e:	4299      	cmp	r1, r3
 8002f80:	d204      	bcs.n	8002f8c <HAL_RCC_ClockConfig+0x1cc>
      MODIFY_REG(RCC->D3CFGR, RCC_D3CFGR_D3PPRE, (RCC_ClkInitStruct->APB4CLKDivider));
 8002f82:	6a13      	ldr	r3, [r2, #32]
 8002f84:	f023 0370 	bic.w	r3, r3, #112	@ 0x70
 8002f88:	430b      	orrs	r3, r1
 8002f8a:	6213      	str	r3, [r2, #32]
  common_system_clock = HAL_RCC_GetSysClockFreq() >> ((D1CorePrescTable[(RCC->D1CFGR & RCC_D1CFGR_D1CPRE) >> RCC_D1CFGR_D1CPRE_Pos]) & 0x1FU);
 8002f8c:	f7ff fe8a 	bl	8002ca4 <HAL_RCC_GetSysClockFreq>
 8002f90:	4a1b      	ldr	r2, [pc, #108]	@ (8003000 <HAL_RCC_ClockConfig+0x240>)
 8002f92:	4603      	mov	r3, r0
 8002f94:	481b      	ldr	r0, [pc, #108]	@ (8003004 <HAL_RCC_ClockConfig+0x244>)
 8002f96:	6991      	ldr	r1, [r2, #24]
  SystemD2Clock = (common_system_clock >> ((D1CorePrescTable[(RCC->D1CFGR & RCC_D1CFGR_HPRE) >> RCC_D1CFGR_HPRE_Pos]) & 0x1FU));
 8002f98:	6992      	ldr	r2, [r2, #24]
  common_system_clock = HAL_RCC_GetSysClockFreq() >> ((D1CorePrescTable[(RCC->D1CFGR & RCC_D1CFGR_D1CPRE) >> RCC_D1CFGR_D1CPRE_Pos]) & 0x1FU);
 8002f9a:	f3c1 2103 	ubfx	r1, r1, #8, #4
  SystemCoreClock = common_system_clock;
 8002f9e:	4d1a      	ldr	r5, [pc, #104]	@ (8003008 <HAL_RCC_ClockConfig+0x248>)
  SystemD2Clock = (common_system_clock >> ((D1CorePrescTable[(RCC->D1CFGR & RCC_D1CFGR_HPRE) >> RCC_D1CFGR_HPRE_Pos]) & 0x1FU));
 8002fa0:	f002 020f 	and.w	r2, r2, #15
 8002fa4:	4c19      	ldr	r4, [pc, #100]	@ (800300c <HAL_RCC_ClockConfig+0x24c>)
  common_system_clock = HAL_RCC_GetSysClockFreq() >> ((D1CorePrescTable[(RCC->D1CFGR & RCC_D1CFGR_D1CPRE) >> RCC_D1CFGR_D1CPRE_Pos]) & 0x1FU);
 8002fa6:	5c41      	ldrb	r1, [r0, r1]
  SystemD2Clock = (common_system_clock >> ((D1CorePrescTable[(RCC->D1CFGR & RCC_D1CFGR_HPRE) >> RCC_D1CFGR_HPRE_Pos]) & 0x1FU));
 8002fa8:	5c82      	ldrb	r2, [r0, r2]
  common_system_clock = HAL_RCC_GetSysClockFreq() >> ((D1CorePrescTable[(RCC->D1CFGR & RCC_D1CFGR_D1CPRE) >> RCC_D1CFGR_D1CPRE_Pos]) & 0x1FU);
 8002faa:	f001 011f 	and.w	r1, r1, #31
  halstatus = HAL_InitTick(uwTickPrio);
 8002fae:	4818      	ldr	r0, [pc, #96]	@ (8003010 <HAL_RCC_ClockConfig+0x250>)
  SystemD2Clock = (common_system_clock >> ((D1CorePrescTable[(RCC->D1CFGR & RCC_D1CFGR_HPRE) >> RCC_D1CFGR_HPRE_Pos]) & 0x1FU));
 8002fb0:	f002 021f 	and.w	r2, r2, #31
  common_system_clock = HAL_RCC_GetSysClockFreq() >> ((D1CorePrescTable[(RCC->D1CFGR & RCC_D1CFGR_D1CPRE) >> RCC_D1CFGR_D1CPRE_Pos]) & 0x1FU);
 8002fb4:	40cb      	lsrs	r3, r1
  halstatus = HAL_InitTick(uwTickPrio);
 8002fb6:	6800      	ldr	r0, [r0, #0]
  SystemCoreClock = common_system_clock;
 8002fb8:	602b      	str	r3, [r5, #0]
  SystemD2Clock = (common_system_clock >> ((D1CorePrescTable[(RCC->D1CFGR & RCC_D1CFGR_HPRE) >> RCC_D1CFGR_HPRE_Pos]) & 0x1FU));
 8002fba:	40d3      	lsrs	r3, r2
 8002fbc:	6023      	str	r3, [r4, #0]
}
 8002fbe:	e8bd 41f0 	ldmia.w	sp!, {r4, r5, r6, r7, r8, lr}
  halstatus = HAL_InitTick(uwTickPrio);
 8002fc2:	f7fd bf01 	b.w	8000dc8 <HAL_InitTick>
  if (((RCC_ClkInitStruct->ClockType) & RCC_CLOCKTYPE_SYSCLK) == RCC_CLOCKTYPE_SYSCLK)
 8002fc6:	2a00      	cmp	r2, #0
 8002fc8:	f47f af60 	bne.w	8002e8c <HAL_RCC_ClockConfig+0xcc>
 8002fcc:	e795      	b.n	8002efa <HAL_RCC_ClockConfig+0x13a>
      MODIFY_REG(RCC->D1CFGR, RCC_D1CFGR_HPRE, RCC_ClkInitStruct->AHBCLKDivider);
 8002fce:	698a      	ldr	r2, [r1, #24]
 8002fd0:	f022 020f 	bic.w	r2, r2, #15
 8002fd4:	4302      	orrs	r2, r0
 8002fd6:	618a      	str	r2, [r1, #24]
 8002fd8:	e78f      	b.n	8002efa <HAL_RCC_ClockConfig+0x13a>
      if (__HAL_RCC_GET_FLAG(RCC_FLAG_PLLRDY) == 0U)
 8002fda:	019a      	lsls	r2, r3, #6
 8002fdc:	f53f af6a 	bmi.w	8002eb4 <HAL_RCC_ClockConfig+0xf4>
 8002fe0:	e705      	b.n	8002dee <HAL_RCC_ClockConfig+0x2e>
    return HAL_ERROR;
 8002fe2:	2001      	movs	r0, #1
}
 8002fe4:	4770      	bx	lr
      if (__HAL_RCC_GET_FLAG(RCC_FLAG_HSERDY) == 0U)
 8002fe6:	0398      	lsls	r0, r3, #14
 8002fe8:	f53f af64 	bmi.w	8002eb4 <HAL_RCC_ClockConfig+0xf4>
 8002fec:	e6ff      	b.n	8002dee <HAL_RCC_ClockConfig+0x2e>
        return HAL_TIMEOUT;
 8002fee:	2003      	movs	r0, #3
 8002ff0:	e6fe      	b.n	8002df0 <HAL_RCC_ClockConfig+0x30>
      if (__HAL_RCC_GET_FLAG(RCC_FLAG_CSIRDY) == 0U)
 8002ff2:	05db      	lsls	r3, r3, #23
 8002ff4:	f53f af5e 	bmi.w	8002eb4 <HAL_RCC_ClockConfig+0xf4>
 8002ff8:	e6f9      	b.n	8002dee <HAL_RCC_ClockConfig+0x2e>
 8002ffa:	bf00      	nop
 8002ffc:	52002000 	.word	0x52002000
 8003000:	58024400 	.word	0x58024400
 8003004:	0800753c 	.word	0x0800753c
 8003008:	24000004 	.word	0x24000004
 800300c:	24000000 	.word	0x24000000
 8003010:	2400000c 	.word	0x2400000c

08003014 <HAL_RCC_GetHCLKFreq>:
  switch (RCC->CFGR & RCC_CFGR_SWS)
 8003014:	4a18      	ldr	r2, [pc, #96]	@ (8003078 <HAL_RCC_GetHCLKFreq+0x64>)
  * @note   The SystemD2Clock CMSIS variable is used to store System domain2 Clock Frequency
  *         and updated within this function
  * @retval HCLK frequency
  */
uint32_t HAL_RCC_GetHCLKFreq(void)
{
 8003016:	b538      	push	{r3, r4, r5, lr}
  switch (RCC->CFGR & RCC_CFGR_SWS)
 8003018:	6913      	ldr	r3, [r2, #16]
 800301a:	f003 0338 	and.w	r3, r3, #56	@ 0x38
 800301e:	2b10      	cmp	r3, #16
 8003020:	d019      	beq.n	8003056 <HAL_RCC_GetHCLKFreq+0x42>
 8003022:	2b18      	cmp	r3, #24
 8003024:	d022      	beq.n	800306c <HAL_RCC_GetHCLKFreq+0x58>
 8003026:	b1c3      	cbz	r3, 800305a <HAL_RCC_GetHCLKFreq+0x46>
      sysclockfreq = CSI_VALUE;
 8003028:	4b14      	ldr	r3, [pc, #80]	@ (800307c <HAL_RCC_GetHCLKFreq+0x68>)
  uint32_t common_system_clock;

#if defined(RCC_D1CFGR_D1CPRE)
  common_system_clock = HAL_RCC_GetSysClockFreq() >> (D1CorePrescTable[(RCC->D1CFGR & RCC_D1CFGR_D1CPRE) >> RCC_D1CFGR_D1CPRE_Pos] & 0x1FU);
 800302a:	4913      	ldr	r1, [pc, #76]	@ (8003078 <HAL_RCC_GetHCLKFreq+0x64>)
 800302c:	4814      	ldr	r0, [pc, #80]	@ (8003080 <HAL_RCC_GetHCLKFreq+0x6c>)
 800302e:	698a      	ldr	r2, [r1, #24]
#else
  common_system_clock = HAL_RCC_GetSysClockFreq() >> (D1CorePrescTable[(RCC->CDCFGR1 & RCC_CDCFGR1_CDCPRE) >> RCC_CDCFGR1_CDCPRE_Pos] & 0x1FU);
#endif

#if defined(RCC_D1CFGR_HPRE)
  SystemD2Clock = (common_system_clock >> ((D1CorePrescTable[(RCC->D1CFGR & RCC_D1CFGR_HPRE) >> RCC_D1CFGR_HPRE_Pos]) & 0x1FU));
 8003030:	6989      	ldr	r1, [r1, #24]
  common_system_clock = HAL_RCC_GetSysClockFreq() >> (D1CorePrescTable[(RCC->D1CFGR & RCC_D1CFGR_D1CPRE) >> RCC_D1CFGR_D1CPRE_Pos] & 0x1FU);
 8003032:	f3c2 2203 	ubfx	r2, r2, #8, #4
  SystemD2Clock = (common_system_clock >> ((D1CorePrescTable[(RCC->D1CFGR & RCC_D1CFGR_HPRE) >> RCC_D1CFGR_HPRE_Pos]) & 0x1FU));
 8003036:	4c13      	ldr	r4, [pc, #76]	@ (8003084 <HAL_RCC_GetHCLKFreq+0x70>)
 8003038:	f001 010f 	and.w	r1, r1, #15
#endif

#if defined(DUAL_CORE) && defined(CORE_CM4)
  SystemCoreClock = SystemD2Clock;
#else
  SystemCoreClock = common_system_clock;
 800303c:	4d12      	ldr	r5, [pc, #72]	@ (8003088 <HAL_RCC_GetHCLKFreq+0x74>)
  common_system_clock = HAL_RCC_GetSysClockFreq() >> (D1CorePrescTable[(RCC->D1CFGR & RCC_D1CFGR_D1CPRE) >> RCC_D1CFGR_D1CPRE_Pos] & 0x1FU);
 800303e:	5c82      	ldrb	r2, [r0, r2]
  SystemD2Clock = (common_system_clock >> ((D1CorePrescTable[(RCC->D1CFGR & RCC_D1CFGR_HPRE) >> RCC_D1CFGR_HPRE_Pos]) & 0x1FU));
 8003040:	5c40      	ldrb	r0, [r0, r1]
  common_system_clock = HAL_RCC_GetSysClockFreq() >> (D1CorePrescTable[(RCC->D1CFGR & RCC_D1CFGR_D1CPRE) >> RCC_D1CFGR_D1CPRE_Pos] & 0x1FU);
 8003042:	f002 021f 	and.w	r2, r2, #31
  SystemD2Clock = (common_system_clock >> ((D1CorePrescTable[(RCC->D1CFGR & RCC_D1CFGR_HPRE) >> RCC_D1CFGR_HPRE_Pos]) & 0x1FU));
 8003046:	f000 001f 	and.w	r0, r0, #31
  common_system_clock = HAL_RCC_GetSysClockFreq() >> (D1CorePrescTable[(RCC->D1CFGR & RCC_D1CFGR_D1CPRE) >> RCC_D1CFGR_D1CPRE_Pos] & 0x1FU);
 800304a:	40d3      	lsrs	r3, r2
  SystemD2Clock = (common_system_clock >> ((D1CorePrescTable[(RCC->D1CFGR & RCC_D1CFGR_HPRE) >> RCC_D1CFGR_HPRE_Pos]) & 0x1FU));
 800304c:	fa23 f000 	lsr.w	r0, r3, r0
  SystemCoreClock = common_system_clock;
 8003050:	602b      	str	r3, [r5, #0]
  SystemD2Clock = (common_system_clock >> ((D1CorePrescTable[(RCC->D1CFGR & RCC_D1CFGR_HPRE) >> RCC_D1CFGR_HPRE_Pos]) & 0x1FU));
 8003052:	6020      	str	r0, [r4, #0]
#endif /* DUAL_CORE && CORE_CM4 */

  return SystemD2Clock;
}
 8003054:	bd38      	pop	{r3, r4, r5, pc}
  switch (RCC->CFGR & RCC_CFGR_SWS)
 8003056:	4b0d      	ldr	r3, [pc, #52]	@ (800308c <HAL_RCC_GetHCLKFreq+0x78>)
 8003058:	e7e7      	b.n	800302a <HAL_RCC_GetHCLKFreq+0x16>
      if (__HAL_RCC_GET_FLAG(RCC_FLAG_HSIDIV) != 0U)
 800305a:	6813      	ldr	r3, [r2, #0]
 800305c:	069b      	lsls	r3, r3, #26
 800305e:	d509      	bpl.n	8003074 <HAL_RCC_GetHCLKFreq+0x60>
        sysclockfreq = (uint32_t)(HSI_VALUE >> (__HAL_RCC_GET_HSI_DIVIDER() >> 3));
 8003060:	6812      	ldr	r2, [r2, #0]
 8003062:	4b0b      	ldr	r3, [pc, #44]	@ (8003090 <HAL_RCC_GetHCLKFreq+0x7c>)
 8003064:	f3c2 02c1 	ubfx	r2, r2, #3, #2
 8003068:	40d3      	lsrs	r3, r2
 800306a:	e7de      	b.n	800302a <HAL_RCC_GetHCLKFreq+0x16>
 800306c:	f7ff fb02 	bl	8002674 <HAL_RCC_GetSysClockFreq.part.0>
 8003070:	4603      	mov	r3, r0
 8003072:	e7da      	b.n	800302a <HAL_RCC_GetHCLKFreq+0x16>
        sysclockfreq = (uint32_t) HSI_VALUE;
 8003074:	4b06      	ldr	r3, [pc, #24]	@ (8003090 <HAL_RCC_GetHCLKFreq+0x7c>)
 8003076:	e7d8      	b.n	800302a <HAL_RCC_GetHCLKFreq+0x16>
 8003078:	58024400 	.word	0x58024400
 800307c:	003d0900 	.word	0x003d0900
 8003080:	0800753c 	.word	0x0800753c
 8003084:	24000000 	.word	0x24000000
 8003088:	24000004 	.word	0x24000004
 800308c:	017d7840 	.word	0x017d7840
 8003090:	03d09000 	.word	0x03d09000

08003094 <HAL_RCC_GetPCLK1Freq>:
  switch (RCC->CFGR & RCC_CFGR_SWS)
 8003094:	4a1c      	ldr	r2, [pc, #112]	@ (8003108 <HAL_RCC_GetPCLK1Freq+0x74>)
  * @note   Each time PCLK1 changes, this function must be called to update the
  *         right PCLK1 value. Otherwise, any configuration based on this function will be incorrect.
  * @retval PCLK1 frequency
  */
uint32_t HAL_RCC_GetPCLK1Freq(void)
{
 8003096:	b538      	push	{r3, r4, r5, lr}
  switch (RCC->CFGR & RCC_CFGR_SWS)
 8003098:	6913      	ldr	r3, [r2, #16]
 800309a:	f003 0338 	and.w	r3, r3, #56	@ 0x38
 800309e:	2b10      	cmp	r3, #16
 80030a0:	d020      	beq.n	80030e4 <HAL_RCC_GetPCLK1Freq+0x50>
 80030a2:	2b18      	cmp	r3, #24
 80030a4:	d029      	beq.n	80030fa <HAL_RCC_GetPCLK1Freq+0x66>
 80030a6:	b1fb      	cbz	r3, 80030e8 <HAL_RCC_GetPCLK1Freq+0x54>
      sysclockfreq = CSI_VALUE;
 80030a8:	4b18      	ldr	r3, [pc, #96]	@ (800310c <HAL_RCC_GetPCLK1Freq+0x78>)
  common_system_clock = HAL_RCC_GetSysClockFreq() >> (D1CorePrescTable[(RCC->D1CFGR & RCC_D1CFGR_D1CPRE) >> RCC_D1CFGR_D1CPRE_Pos] & 0x1FU);
 80030aa:	4a17      	ldr	r2, [pc, #92]	@ (8003108 <HAL_RCC_GetPCLK1Freq+0x74>)
 80030ac:	4918      	ldr	r1, [pc, #96]	@ (8003110 <HAL_RCC_GetPCLK1Freq+0x7c>)
 80030ae:	6990      	ldr	r0, [r2, #24]
  SystemCoreClock = common_system_clock;
 80030b0:	4d18      	ldr	r5, [pc, #96]	@ (8003114 <HAL_RCC_GetPCLK1Freq+0x80>)
  common_system_clock = HAL_RCC_GetSysClockFreq() >> (D1CorePrescTable[(RCC->D1CFGR & RCC_D1CFGR_D1CPRE) >> RCC_D1CFGR_D1CPRE_Pos] & 0x1FU);
 80030b2:	f3c0 2003 	ubfx	r0, r0, #8, #4
  SystemD2Clock = (common_system_clock >> ((D1CorePrescTable[(RCC->D1CFGR & RCC_D1CFGR_HPRE) >> RCC_D1CFGR_HPRE_Pos]) & 0x1FU));
 80030b6:	4c18      	ldr	r4, [pc, #96]	@ (8003118 <HAL_RCC_GetPCLK1Freq+0x84>)
  common_system_clock = HAL_RCC_GetSysClockFreq() >> (D1CorePrescTable[(RCC->D1CFGR & RCC_D1CFGR_D1CPRE) >> RCC_D1CFGR_D1CPRE_Pos] & 0x1FU);
 80030b8:	5c08      	ldrb	r0, [r1, r0]
 80030ba:	f000 001f 	and.w	r0, r0, #31
 80030be:	40c3      	lsrs	r3, r0
  SystemD2Clock = (common_system_clock >> ((D1CorePrescTable[(RCC->D1CFGR & RCC_D1CFGR_HPRE) >> RCC_D1CFGR_HPRE_Pos]) & 0x1FU));
 80030c0:	6990      	ldr	r0, [r2, #24]
 80030c2:	f000 000f 	and.w	r0, r0, #15
  SystemCoreClock = common_system_clock;
 80030c6:	602b      	str	r3, [r5, #0]
  SystemD2Clock = (common_system_clock >> ((D1CorePrescTable[(RCC->D1CFGR & RCC_D1CFGR_HPRE) >> RCC_D1CFGR_HPRE_Pos]) & 0x1FU));
 80030c8:	5c08      	ldrb	r0, [r1, r0]
 80030ca:	f000 001f 	and.w	r0, r0, #31
 80030ce:	40c3      	lsrs	r3, r0
 80030d0:	6023      	str	r3, [r4, #0]
#if defined (RCC_D2CFGR_D2PPRE1)
  /* Get HCLK source and Compute PCLK1 frequency ---------------------------*/
  return (HAL_RCC_GetHCLKFreq() >> ((D1CorePrescTable[(RCC->D2CFGR & RCC_D2CFGR_D2PPRE1) >> RCC_D2CFGR_D2PPRE1_Pos]) & 0x1FU));
 80030d2:	69d2      	ldr	r2, [r2, #28]
 80030d4:	f3c2 1202 	ubfx	r2, r2, #4, #3
 80030d8:	5c88      	ldrb	r0, [r1, r2]
 80030da:	f000 001f 	and.w	r0, r0, #31
#else
  /* Get HCLK source and Compute PCLK1 frequency ---------------------------*/
  return (HAL_RCC_GetHCLKFreq() >> ((D1CorePrescTable[(RCC->CDCFGR2 & RCC_CDCFGR2_CDPPRE1) >> RCC_CDCFGR2_CDPPRE1_Pos]) & 0x1FU));
#endif
}
 80030de:	fa23 f000 	lsr.w	r0, r3, r0
 80030e2:	bd38      	pop	{r3, r4, r5, pc}
  switch (RCC->CFGR & RCC_CFGR_SWS)
 80030e4:	4b0d      	ldr	r3, [pc, #52]	@ (800311c <HAL_RCC_GetPCLK1Freq+0x88>)
 80030e6:	e7e0      	b.n	80030aa <HAL_RCC_GetPCLK1Freq+0x16>
      if (__HAL_RCC_GET_FLAG(RCC_FLAG_HSIDIV) != 0U)
 80030e8:	6813      	ldr	r3, [r2, #0]
 80030ea:	069b      	lsls	r3, r3, #26
 80030ec:	d509      	bpl.n	8003102 <HAL_RCC_GetPCLK1Freq+0x6e>
        sysclockfreq = (uint32_t)(HSI_VALUE >> (__HAL_RCC_GET_HSI_DIVIDER() >> 3));
 80030ee:	6812      	ldr	r2, [r2, #0]
 80030f0:	4b0b      	ldr	r3, [pc, #44]	@ (8003120 <HAL_RCC_GetPCLK1Freq+0x8c>)
 80030f2:	f3c2 02c1 	ubfx	r2, r2, #3, #2
 80030f6:	40d3      	lsrs	r3, r2
 80030f8:	e7d7      	b.n	80030aa <HAL_RCC_GetPCLK1Freq+0x16>
 80030fa:	f7ff fabb 	bl	8002674 <HAL_RCC_GetSysClockFreq.part.0>
 80030fe:	4603      	mov	r3, r0
 8003100:	e7d3      	b.n	80030aa <HAL_RCC_GetPCLK1Freq+0x16>
        sysclockfreq = (uint32_t) HSI_VALUE;
 8003102:	4b07      	ldr	r3, [pc, #28]	@ (8003120 <HAL_RCC_GetPCLK1Freq+0x8c>)
 8003104:	e7d1      	b.n	80030aa <HAL_RCC_GetPCLK1Freq+0x16>
 8003106:	bf00      	nop
 8003108:	58024400 	.word	0x58024400
 800310c:	003d0900 	.word	0x003d0900
 8003110:	0800753c 	.word	0x0800753c
 8003114:	24000004 	.word	0x24000004
 8003118:	24000000 	.word	0x24000000
 800311c:	017d7840 	.word	0x017d7840
 8003120:	03d09000 	.word	0x03d09000

08003124 <HAL_RCC_GetPCLK2Freq>:
  switch (RCC->CFGR & RCC_CFGR_SWS)
 8003124:	4a1c      	ldr	r2, [pc, #112]	@ (8003198 <HAL_RCC_GetPCLK2Freq+0x74>)
  * @note   Each time PCLK2 changes, this function must be called to update the
  *         right PCLK2 value. Otherwise, any configuration based on this function will be incorrect.
  * @retval PCLK1 frequency
  */
uint32_t HAL_RCC_GetPCLK2Freq(void)
{
 8003126:	b538      	push	{r3, r4, r5, lr}
  switch (RCC->CFGR & RCC_CFGR_SWS)
 8003128:	6913      	ldr	r3, [r2, #16]
 800312a:	f003 0338 	and.w	r3, r3, #56	@ 0x38
 800312e:	2b10      	cmp	r3, #16
 8003130:	d020      	beq.n	8003174 <HAL_RCC_GetPCLK2Freq+0x50>
 8003132:	2b18      	cmp	r3, #24
 8003134:	d029      	beq.n	800318a <HAL_RCC_GetPCLK2Freq+0x66>
 8003136:	b1fb      	cbz	r3, 8003178 <HAL_RCC_GetPCLK2Freq+0x54>
      sysclockfreq = CSI_VALUE;
 8003138:	4b18      	ldr	r3, [pc, #96]	@ (800319c <HAL_RCC_GetPCLK2Freq+0x78>)
  common_system_clock = HAL_RCC_GetSysClockFreq() >> (D1CorePrescTable[(RCC->D1CFGR & RCC_D1CFGR_D1CPRE) >> RCC_D1CFGR_D1CPRE_Pos] & 0x1FU);
 800313a:	4a17      	ldr	r2, [pc, #92]	@ (8003198 <HAL_RCC_GetPCLK2Freq+0x74>)
 800313c:	4918      	ldr	r1, [pc, #96]	@ (80031a0 <HAL_RCC_GetPCLK2Freq+0x7c>)
 800313e:	6990      	ldr	r0, [r2, #24]
  SystemCoreClock = common_system_clock;
 8003140:	4d18      	ldr	r5, [pc, #96]	@ (80031a4 <HAL_RCC_GetPCLK2Freq+0x80>)
  common_system_clock = HAL_RCC_GetSysClockFreq() >> (D1CorePrescTable[(RCC->D1CFGR & RCC_D1CFGR_D1CPRE) >> RCC_D1CFGR_D1CPRE_Pos] & 0x1FU);
 8003142:	f3c0 2003 	ubfx	r0, r0, #8, #4
  SystemD2Clock = (common_system_clock >> ((D1CorePrescTable[(RCC->D1CFGR & RCC_D1CFGR_HPRE) >> RCC_D1CFGR_HPRE_Pos]) & 0x1FU));
 8003146:	4c18      	ldr	r4, [pc, #96]	@ (80031a8 <HAL_RCC_GetPCLK2Freq+0x84>)
  common_system_clock = HAL_RCC_GetSysClockFreq() >> (D1CorePrescTable[(RCC->D1CFGR & RCC_D1CFGR_D1CPRE) >> RCC_D1CFGR_D1CPRE_Pos] & 0x1FU);
 8003148:	5c08      	ldrb	r0, [r1, r0]
 800314a:	f000 001f 	and.w	r0, r0, #31
 800314e:	40c3      	lsrs	r3, r0
  SystemD2Clock = (common_system_clock >> ((D1CorePrescTable[(RCC->D1CFGR & RCC_D1CFGR_HPRE) >> RCC_D1CFGR_HPRE_Pos]) & 0x1FU));
 8003150:	6990      	ldr	r0, [r2, #24]
 8003152:	f000 000f 	and.w	r0, r0, #15
  SystemCoreClock = common_system_clock;
 8003156:	602b      	str	r3, [r5, #0]
  SystemD2Clock = (common_system_clock >> ((D1CorePrescTable[(RCC->D1CFGR & RCC_D1CFGR_HPRE) >> RCC_D1CFGR_HPRE_Pos]) & 0x1FU));
 8003158:	5c08      	ldrb	r0, [r1, r0]
 800315a:	f000 001f 	and.w	r0, r0, #31
 800315e:	40c3      	lsrs	r3, r0
 8003160:	6023      	str	r3, [r4, #0]
  /* Get HCLK source and Compute PCLK1 frequency ---------------------------*/
#if defined(RCC_D2CFGR_D2PPRE2)
  return (HAL_RCC_GetHCLKFreq() >> ((D1CorePrescTable[(RCC->D2CFGR & RCC_D2CFGR_D2PPRE2) >> RCC_D2CFGR_D2PPRE2_Pos]) & 0x1FU));
 8003162:	69d2      	ldr	r2, [r2, #28]
 8003164:	f3c2 2202 	ubfx	r2, r2, #8, #3
 8003168:	5c88      	ldrb	r0, [r1, r2]
 800316a:	f000 001f 	and.w	r0, r0, #31
#else
  return (HAL_RCC_GetHCLKFreq() >> ((D1CorePrescTable[(RCC->CDCFGR2 & RCC_CDCFGR2_CDPPRE2) >> RCC_CDCFGR2_CDPPRE2_Pos]) & 0x1FU));
#endif
}
 800316e:	fa23 f000 	lsr.w	r0, r3, r0
 8003172:	bd38      	pop	{r3, r4, r5, pc}
  switch (RCC->CFGR & RCC_CFGR_SWS)
 8003174:	4b0d      	ldr	r3, [pc, #52]	@ (80031ac <HAL_RCC_GetPCLK2Freq+0x88>)
 8003176:	e7e0      	b.n	800313a <HAL_RCC_GetPCLK2Freq+0x16>
      if (__HAL_RCC_GET_FLAG(RCC_FLAG_HSIDIV) != 0U)
 8003178:	6813      	ldr	r3, [r2, #0]
 800317a:	069b      	lsls	r3, r3, #26
 800317c:	d509      	bpl.n	8003192 <HAL_RCC_GetPCLK2Freq+0x6e>
        sysclockfreq = (uint32_t)(HSI_VALUE >> (__HAL_RCC_GET_HSI_DIVIDER() >> 3));
 800317e:	6812      	ldr	r2, [r2, #0]
 8003180:	4b0b      	ldr	r3, [pc, #44]	@ (80031b0 <HAL_RCC_GetPCLK2Freq+0x8c>)
 8003182:	f3c2 02c1 	ubfx	r2, r2, #3, #2
 8003186:	40d3      	lsrs	r3, r2
 8003188:	e7d7      	b.n	800313a <HAL_RCC_GetPCLK2Freq+0x16>
 800318a:	f7ff fa73 	bl	8002674 <HAL_RCC_GetSysClockFreq.part.0>
 800318e:	4603      	mov	r3, r0
 8003190:	e7d3      	b.n	800313a <HAL_RCC_GetPCLK2Freq+0x16>
        sysclockfreq = (uint32_t) HSI_VALUE;
 8003192:	4b07      	ldr	r3, [pc, #28]	@ (80031b0 <HAL_RCC_GetPCLK2Freq+0x8c>)
 8003194:	e7d1      	b.n	800313a <HAL_RCC_GetPCLK2Freq+0x16>
 8003196:	bf00      	nop
 8003198:	58024400 	.word	0x58024400
 800319c:	003d0900 	.word	0x003d0900
 80031a0:	0800753c 	.word	0x0800753c
 80031a4:	24000004 	.word	0x24000004
 80031a8:	24000000 	.word	0x24000000
 80031ac:	017d7840 	.word	0x017d7840
 80031b0:	03d09000 	.word	0x03d09000

080031b4 <RCCEx_PLL2_Config.part.0>:
  * @param  Divider  divider parameter to be updated
  * @note   PLL2 is temporary disabled to apply new parameters
  *
  * @retval HAL status
  */
static HAL_StatusTypeDef RCCEx_PLL2_Config(const RCC_PLL2InitTypeDef *pll2, uint32_t Divider)
 80031b4:	b5f8      	push	{r3, r4, r5, r6, r7, lr}


  else
  {
    /* Disable  PLL2. */
    __HAL_RCC_PLL2_DISABLE();
 80031b6:	4c36      	ldr	r4, [pc, #216]	@ (8003290 <RCCEx_PLL2_Config.part.0+0xdc>)
static HAL_StatusTypeDef RCCEx_PLL2_Config(const RCC_PLL2InitTypeDef *pll2, uint32_t Divider)
 80031b8:	4606      	mov	r6, r0
 80031ba:	460f      	mov	r7, r1
    __HAL_RCC_PLL2_DISABLE();
 80031bc:	6823      	ldr	r3, [r4, #0]
 80031be:	f023 6380 	bic.w	r3, r3, #67108864	@ 0x4000000
 80031c2:	6023      	str	r3, [r4, #0]

    /* Get Start Tick*/
    tickstart = HAL_GetTick();
 80031c4:	f7fd fe62 	bl	8000e8c <HAL_GetTick>
 80031c8:	4605      	mov	r5, r0

    /* Wait till PLL is disabled */
    while (__HAL_RCC_GET_FLAG(RCC_FLAG_PLL2RDY) != 0U)
 80031ca:	e004      	b.n	80031d6 <RCCEx_PLL2_Config.part.0+0x22>
    {
      if ((HAL_GetTick() - tickstart) > PLL2_TIMEOUT_VALUE)
 80031cc:	f7fd fe5e 	bl	8000e8c <HAL_GetTick>
 80031d0:	1b40      	subs	r0, r0, r5
 80031d2:	2802      	cmp	r0, #2
 80031d4:	d856      	bhi.n	8003284 <RCCEx_PLL2_Config.part.0+0xd0>
    while (__HAL_RCC_GET_FLAG(RCC_FLAG_PLL2RDY) != 0U)
 80031d6:	6823      	ldr	r3, [r4, #0]
 80031d8:	011a      	lsls	r2, r3, #4
 80031da:	d4f7      	bmi.n	80031cc <RCCEx_PLL2_Config.part.0+0x18>
        return HAL_TIMEOUT;
      }
    }

    /* Configure PLL2 multiplication and division factors. */
    __HAL_RCC_PLL2_CONFIG(pll2->PLL2M,
 80031dc:	6aa3      	ldr	r3, [r4, #40]	@ 0x28
 80031de:	6832      	ldr	r2, [r6, #0]
 80031e0:	f423 337c 	bic.w	r3, r3, #258048	@ 0x3f000
 80031e4:	ea43 3302 	orr.w	r3, r3, r2, lsl #12
 80031e8:	62a3      	str	r3, [r4, #40]	@ 0x28
 80031ea:	e9d6 3202 	ldrd	r3, r2, [r6, #8]
 80031ee:	3b01      	subs	r3, #1
 80031f0:	3a01      	subs	r2, #1
 80031f2:	025b      	lsls	r3, r3, #9
 80031f4:	0412      	lsls	r2, r2, #16
 80031f6:	b29b      	uxth	r3, r3
 80031f8:	f402 02fe 	and.w	r2, r2, #8323072	@ 0x7f0000
 80031fc:	4313      	orrs	r3, r2
 80031fe:	6872      	ldr	r2, [r6, #4]
 8003200:	3a01      	subs	r2, #1
 8003202:	f3c2 0208 	ubfx	r2, r2, #0, #9
 8003206:	4313      	orrs	r3, r2
 8003208:	6932      	ldr	r2, [r6, #16]
 800320a:	3a01      	subs	r2, #1
 800320c:	0612      	lsls	r2, r2, #24
 800320e:	f002 42fe 	and.w	r2, r2, #2130706432	@ 0x7f000000
 8003212:	4313      	orrs	r3, r2
 8003214:	63a3      	str	r3, [r4, #56]	@ 0x38
                          pll2->PLL2P,
                          pll2->PLL2Q,
                          pll2->PLL2R);

    /* Select PLL2 input reference frequency range: VCI */
    __HAL_RCC_PLL2_VCIRANGE(pll2->PLL2RGE) ;
 8003216:	6ae3      	ldr	r3, [r4, #44]	@ 0x2c
 8003218:	6972      	ldr	r2, [r6, #20]
 800321a:	f023 03c0 	bic.w	r3, r3, #192	@ 0xc0
 800321e:	4313      	orrs	r3, r2
 8003220:	62e3      	str	r3, [r4, #44]	@ 0x2c

    /* Select PLL2 output frequency range : VCO */
    __HAL_RCC_PLL2_VCORANGE(pll2->PLL2VCOSEL) ;
 8003222:	6ae2      	ldr	r2, [r4, #44]	@ 0x2c
 8003224:	69b3      	ldr	r3, [r6, #24]
 8003226:	f022 0220 	bic.w	r2, r2, #32
 800322a:	431a      	orrs	r2, r3

    /* Disable PLL2FRACN . */
    __HAL_RCC_PLL2FRACN_DISABLE();

    /* Configures PLL2 clock Fractional Part Of The Multiplication Factor */
    __HAL_RCC_PLL2FRACN_CONFIG(pll2->PLL2FRACN);
 800322c:	4b19      	ldr	r3, [pc, #100]	@ (8003294 <RCCEx_PLL2_Config.part.0+0xe0>)
    __HAL_RCC_PLL2_VCORANGE(pll2->PLL2VCOSEL) ;
 800322e:	62e2      	str	r2, [r4, #44]	@ 0x2c
    __HAL_RCC_PLL2FRACN_DISABLE();
 8003230:	6ae2      	ldr	r2, [r4, #44]	@ 0x2c
 8003232:	f022 0210 	bic.w	r2, r2, #16
 8003236:	62e2      	str	r2, [r4, #44]	@ 0x2c
    __HAL_RCC_PLL2FRACN_CONFIG(pll2->PLL2FRACN);
 8003238:	6be1      	ldr	r1, [r4, #60]	@ 0x3c
 800323a:	69f2      	ldr	r2, [r6, #28]
 800323c:	400b      	ands	r3, r1
 800323e:	ea43 03c2 	orr.w	r3, r3, r2, lsl #3
 8003242:	63e3      	str	r3, [r4, #60]	@ 0x3c

    /* Enable PLL2FRACN . */
    __HAL_RCC_PLL2FRACN_ENABLE();
 8003244:	6ae3      	ldr	r3, [r4, #44]	@ 0x2c
 8003246:	f043 0310 	orr.w	r3, r3, #16
 800324a:	62e3      	str	r3, [r4, #44]	@ 0x2c

    /* Enable the PLL2 clock output */
    if (Divider == DIVIDER_P_UPDATE)
    {
      __HAL_RCC_PLL2CLKOUT_ENABLE(RCC_PLL2_DIVP);
 800324c:	6ae3      	ldr	r3, [r4, #44]	@ 0x2c
    if (Divider == DIVIDER_P_UPDATE)
 800324e:	b1df      	cbz	r7, 8003288 <RCCEx_PLL2_Config.part.0+0xd4>
    }
    else if (Divider == DIVIDER_Q_UPDATE)
 8003250:	2f01      	cmp	r7, #1
    {
      __HAL_RCC_PLL2CLKOUT_ENABLE(RCC_PLL2_DIVQ);
 8003252:	bf0c      	ite	eq
 8003254:	f443 1380 	orreq.w	r3, r3, #1048576	@ 0x100000
    }
    else
    {
      __HAL_RCC_PLL2CLKOUT_ENABLE(RCC_PLL2_DIVR);
 8003258:	f443 1300 	orrne.w	r3, r3, #2097152	@ 0x200000
 800325c:	62e3      	str	r3, [r4, #44]	@ 0x2c
    }

    /* Enable  PLL2. */
    __HAL_RCC_PLL2_ENABLE();
 800325e:	4c0c      	ldr	r4, [pc, #48]	@ (8003290 <RCCEx_PLL2_Config.part.0+0xdc>)
 8003260:	6823      	ldr	r3, [r4, #0]
 8003262:	f043 6380 	orr.w	r3, r3, #67108864	@ 0x4000000
 8003266:	6023      	str	r3, [r4, #0]

    /* Get Start Tick*/
    tickstart = HAL_GetTick();
 8003268:	f7fd fe10 	bl	8000e8c <HAL_GetTick>
 800326c:	4605      	mov	r5, r0

    /* Wait till PLL2 is ready */
    while (__HAL_RCC_GET_FLAG(RCC_FLAG_PLL2RDY) == 0U)
 800326e:	e004      	b.n	800327a <RCCEx_PLL2_Config.part.0+0xc6>
    {
      if ((HAL_GetTick() - tickstart) > PLL2_TIMEOUT_VALUE)
 8003270:	f7fd fe0c 	bl	8000e8c <HAL_GetTick>
 8003274:	1b40      	subs	r0, r0, r5
 8003276:	2802      	cmp	r0, #2
 8003278:	d804      	bhi.n	8003284 <RCCEx_PLL2_Config.part.0+0xd0>
    while (__HAL_RCC_GET_FLAG(RCC_FLAG_PLL2RDY) == 0U)
 800327a:	6823      	ldr	r3, [r4, #0]
 800327c:	011b      	lsls	r3, r3, #4
 800327e:	d5f7      	bpl.n	8003270 <RCCEx_PLL2_Config.part.0+0xbc>
    }

  }


  return status;
 8003280:	2000      	movs	r0, #0
}
 8003282:	bdf8      	pop	{r3, r4, r5, r6, r7, pc}
        return HAL_TIMEOUT;
 8003284:	2003      	movs	r0, #3
}
 8003286:	bdf8      	pop	{r3, r4, r5, r6, r7, pc}
      __HAL_RCC_PLL2CLKOUT_ENABLE(RCC_PLL2_DIVP);
 8003288:	f443 2300 	orr.w	r3, r3, #524288	@ 0x80000
 800328c:	62e3      	str	r3, [r4, #44]	@ 0x2c
 800328e:	e7e6      	b.n	800325e <RCCEx_PLL2_Config.part.0+0xaa>
 8003290:	58024400 	.word	0x58024400
 8003294:	ffff0007 	.word	0xffff0007

08003298 <RCCEx_PLL3_Config.part.0>:
  * @param  Divider  divider parameter to be updated
  * @note   PLL3 is temporary disabled to apply new parameters
  *
  * @retval HAL status
  */
static HAL_StatusTypeDef RCCEx_PLL3_Config(const RCC_PLL3InitTypeDef *pll3, uint32_t Divider)
 8003298:	b5f8      	push	{r3, r4, r5, r6, r7, lr}


  else
  {
    /* Disable  PLL3. */
    __HAL_RCC_PLL3_DISABLE();
 800329a:	4c36      	ldr	r4, [pc, #216]	@ (8003374 <RCCEx_PLL3_Config.part.0+0xdc>)
static HAL_StatusTypeDef RCCEx_PLL3_Config(const RCC_PLL3InitTypeDef *pll3, uint32_t Divider)
 800329c:	4606      	mov	r6, r0
 800329e:	460f      	mov	r7, r1
    __HAL_RCC_PLL3_DISABLE();
 80032a0:	6823      	ldr	r3, [r4, #0]
 80032a2:	f023 5380 	bic.w	r3, r3, #268435456	@ 0x10000000
 80032a6:	6023      	str	r3, [r4, #0]

    /* Get Start Tick*/
    tickstart = HAL_GetTick();
 80032a8:	f7fd fdf0 	bl	8000e8c <HAL_GetTick>
 80032ac:	4605      	mov	r5, r0
    /* Wait till PLL3 is ready */
    while (__HAL_RCC_GET_FLAG(RCC_FLAG_PLL3RDY) != 0U)
 80032ae:	e004      	b.n	80032ba <RCCEx_PLL3_Config.part.0+0x22>
    {
      if ((HAL_GetTick() - tickstart) > PLL3_TIMEOUT_VALUE)
 80032b0:	f7fd fdec 	bl	8000e8c <HAL_GetTick>
 80032b4:	1b40      	subs	r0, r0, r5
 80032b6:	2802      	cmp	r0, #2
 80032b8:	d856      	bhi.n	8003368 <RCCEx_PLL3_Config.part.0+0xd0>
    while (__HAL_RCC_GET_FLAG(RCC_FLAG_PLL3RDY) != 0U)
 80032ba:	6823      	ldr	r3, [r4, #0]
 80032bc:	009a      	lsls	r2, r3, #2
 80032be:	d4f7      	bmi.n	80032b0 <RCCEx_PLL3_Config.part.0+0x18>
        return HAL_TIMEOUT;
      }
    }

    /* Configure the PLL3  multiplication and division factors. */
    __HAL_RCC_PLL3_CONFIG(pll3->PLL3M,
 80032c0:	6aa3      	ldr	r3, [r4, #40]	@ 0x28
 80032c2:	6832      	ldr	r2, [r6, #0]
 80032c4:	f023 737c 	bic.w	r3, r3, #66060288	@ 0x3f00000
 80032c8:	ea43 5302 	orr.w	r3, r3, r2, lsl #20
 80032cc:	62a3      	str	r3, [r4, #40]	@ 0x28
 80032ce:	e9d6 3202 	ldrd	r3, r2, [r6, #8]
 80032d2:	3b01      	subs	r3, #1
 80032d4:	3a01      	subs	r2, #1
 80032d6:	025b      	lsls	r3, r3, #9
 80032d8:	0412      	lsls	r2, r2, #16
 80032da:	b29b      	uxth	r3, r3
 80032dc:	f402 02fe 	and.w	r2, r2, #8323072	@ 0x7f0000
 80032e0:	4313      	orrs	r3, r2
 80032e2:	6872      	ldr	r2, [r6, #4]
 80032e4:	3a01      	subs	r2, #1
 80032e6:	f3c2 0208 	ubfx	r2, r2, #0, #9
 80032ea:	4313      	orrs	r3, r2
 80032ec:	6932      	ldr	r2, [r6, #16]
 80032ee:	3a01      	subs	r2, #1
 80032f0:	0612      	lsls	r2, r2, #24
 80032f2:	f002 42fe 	and.w	r2, r2, #2130706432	@ 0x7f000000
 80032f6:	4313      	orrs	r3, r2
 80032f8:	6423      	str	r3, [r4, #64]	@ 0x40
                          pll3->PLL3P,
                          pll3->PLL3Q,
                          pll3->PLL3R);

    /* Select PLL3 input reference frequency range: VCI */
    __HAL_RCC_PLL3_VCIRANGE(pll3->PLL3RGE) ;
 80032fa:	6ae3      	ldr	r3, [r4, #44]	@ 0x2c
 80032fc:	6972      	ldr	r2, [r6, #20]
 80032fe:	f423 6340 	bic.w	r3, r3, #3072	@ 0xc00
 8003302:	4313      	orrs	r3, r2
 8003304:	62e3      	str	r3, [r4, #44]	@ 0x2c

    /* Select PLL3 output frequency range : VCO */
    __HAL_RCC_PLL3_VCORANGE(pll3->PLL3VCOSEL) ;
 8003306:	6ae2      	ldr	r2, [r4, #44]	@ 0x2c
 8003308:	69b3      	ldr	r3, [r6, #24]
 800330a:	f422 7200 	bic.w	r2, r2, #512	@ 0x200
 800330e:	431a      	orrs	r2, r3

    /* Disable PLL3FRACN . */
    __HAL_RCC_PLL3FRACN_DISABLE();

    /* Configures PLL3 clock Fractional Part Of The Multiplication Factor */
    __HAL_RCC_PLL3FRACN_CONFIG(pll3->PLL3FRACN);
 8003310:	4b19      	ldr	r3, [pc, #100]	@ (8003378 <RCCEx_PLL3_Config.part.0+0xe0>)
    __HAL_RCC_PLL3_VCORANGE(pll3->PLL3VCOSEL) ;
 8003312:	62e2      	str	r2, [r4, #44]	@ 0x2c
    __HAL_RCC_PLL3FRACN_DISABLE();
 8003314:	6ae2      	ldr	r2, [r4, #44]	@ 0x2c
 8003316:	f422 7280 	bic.w	r2, r2, #256	@ 0x100
 800331a:	62e2      	str	r2, [r4, #44]	@ 0x2c
    __HAL_RCC_PLL3FRACN_CONFIG(pll3->PLL3FRACN);
 800331c:	6c61      	ldr	r1, [r4, #68]	@ 0x44
 800331e:	69f2      	ldr	r2, [r6, #28]
 8003320:	400b      	ands	r3, r1
 8003322:	ea43 03c2 	orr.w	r3, r3, r2, lsl #3
 8003326:	6463      	str	r3, [r4, #68]	@ 0x44

    /* Enable PLL3FRACN . */
    __HAL_RCC_PLL3FRACN_ENABLE();
 8003328:	6ae3      	ldr	r3, [r4, #44]	@ 0x2c
 800332a:	f443 7380 	orr.w	r3, r3, #256	@ 0x100
 800332e:	62e3      	str	r3, [r4, #44]	@ 0x2c

    /* Enable the PLL3 clock output */
    if (Divider == DIVIDER_P_UPDATE)
    {
      __HAL_RCC_PLL3CLKOUT_ENABLE(RCC_PLL3_DIVP);
 8003330:	6ae3      	ldr	r3, [r4, #44]	@ 0x2c
    if (Divider == DIVIDER_P_UPDATE)
 8003332:	b1df      	cbz	r7, 800336c <RCCEx_PLL3_Config.part.0+0xd4>
    }
    else if (Divider == DIVIDER_Q_UPDATE)
 8003334:	2f01      	cmp	r7, #1
    {
      __HAL_RCC_PLL3CLKOUT_ENABLE(RCC_PLL3_DIVQ);
 8003336:	bf0c      	ite	eq
 8003338:	f443 0300 	orreq.w	r3, r3, #8388608	@ 0x800000
    }
    else
    {
      __HAL_RCC_PLL3CLKOUT_ENABLE(RCC_PLL3_DIVR);
 800333c:	f043 7380 	orrne.w	r3, r3, #16777216	@ 0x1000000
 8003340:	62e3      	str	r3, [r4, #44]	@ 0x2c
    }

    /* Enable  PLL3. */
    __HAL_RCC_PLL3_ENABLE();
 8003342:	4c0c      	ldr	r4, [pc, #48]	@ (8003374 <RCCEx_PLL3_Config.part.0+0xdc>)
 8003344:	6823      	ldr	r3, [r4, #0]
 8003346:	f043 5380 	orr.w	r3, r3, #268435456	@ 0x10000000
 800334a:	6023      	str	r3, [r4, #0]

    /* Get Start Tick*/
    tickstart = HAL_GetTick();
 800334c:	f7fd fd9e 	bl	8000e8c <HAL_GetTick>
 8003350:	4605      	mov	r5, r0

    /* Wait till PLL3 is ready */
    while (__HAL_RCC_GET_FLAG(RCC_FLAG_PLL3RDY) == 0U)
 8003352:	e004      	b.n	800335e <RCCEx_PLL3_Config.part.0+0xc6>
    {
      if ((HAL_GetTick() - tickstart) > PLL3_TIMEOUT_VALUE)
 8003354:	f7fd fd9a 	bl	8000e8c <HAL_GetTick>
 8003358:	1b40      	subs	r0, r0, r5
 800335a:	2802      	cmp	r0, #2
 800335c:	d804      	bhi.n	8003368 <RCCEx_PLL3_Config.part.0+0xd0>
    while (__HAL_RCC_GET_FLAG(RCC_FLAG_PLL3RDY) == 0U)
 800335e:	6823      	ldr	r3, [r4, #0]
 8003360:	009b      	lsls	r3, r3, #2
 8003362:	d5f7      	bpl.n	8003354 <RCCEx_PLL3_Config.part.0+0xbc>
    }

  }


  return status;
 8003364:	2000      	movs	r0, #0
}
 8003366:	bdf8      	pop	{r3, r4, r5, r6, r7, pc}
        return HAL_TIMEOUT;
 8003368:	2003      	movs	r0, #3
}
 800336a:	bdf8      	pop	{r3, r4, r5, r6, r7, pc}
      __HAL_RCC_PLL3CLKOUT_ENABLE(RCC_PLL3_DIVP);
 800336c:	f443 0380 	orr.w	r3, r3, #4194304	@ 0x400000
 8003370:	62e3      	str	r3, [r4, #44]	@ 0x2c
 8003372:	e7e6      	b.n	8003342 <RCCEx_PLL3_Config.part.0+0xaa>
 8003374:	58024400 	.word	0x58024400
 8003378:	ffff0007 	.word	0xffff0007

0800337c <HAL_RCCEx_PeriphCLKConfig>:
{
 800337c:	e92d 43f8 	stmdb	sp!, {r3, r4, r5, r6, r7, r8, r9, lr}
  if (((PeriphClkInit->PeriphClockSelection) & RCC_PERIPHCLK_SPDIFRX) == RCC_PERIPHCLK_SPDIFRX)
 8003380:	e9d0 3200 	ldrd	r3, r2, [r0]
{
 8003384:	4604      	mov	r4, r0
  if (((PeriphClkInit->PeriphClockSelection) & RCC_PERIPHCLK_SPDIFRX) == RCC_PERIPHCLK_SPDIFRX)
 8003386:	0118      	lsls	r0, r3, #4
 8003388:	f003 6600 	and.w	r6, r3, #134217728	@ 0x8000000
 800338c:	d526      	bpl.n	80033dc <HAL_RCCEx_PeriphCLKConfig+0x60>
    switch (PeriphClkInit->SpdifrxClockSelection)
 800338e:	6e61      	ldr	r1, [r4, #100]	@ 0x64
 8003390:	f5b1 1f00 	cmp.w	r1, #2097152	@ 0x200000
 8003394:	f000 865c 	beq.w	8004050 <HAL_RCCEx_PeriphCLKConfig+0xcd4>
 8003398:	d815      	bhi.n	80033c6 <HAL_RCCEx_PeriphCLKConfig+0x4a>
 800339a:	2900      	cmp	r1, #0
 800339c:	f000 84a4 	beq.w	8003ce8 <HAL_RCCEx_PeriphCLKConfig+0x96c>
 80033a0:	f5b1 1f80 	cmp.w	r1, #1048576	@ 0x100000
 80033a4:	f040 8410 	bne.w	8003bc8 <HAL_RCCEx_PeriphCLKConfig+0x84c>
  if (__HAL_RCC_GET_PLL_OSCSOURCE() == RCC_PLLSOURCE_NONE)
 80033a8:	49b0      	ldr	r1, [pc, #704]	@ (800366c <HAL_RCCEx_PeriphCLKConfig+0x2f0>)
 80033aa:	6a89      	ldr	r1, [r1, #40]	@ 0x28
 80033ac:	f001 0103 	and.w	r1, r1, #3
 80033b0:	2903      	cmp	r1, #3
 80033b2:	f000 8409 	beq.w	8003bc8 <HAL_RCCEx_PeriphCLKConfig+0x84c>
 80033b6:	2102      	movs	r1, #2
 80033b8:	f104 0008 	add.w	r0, r4, #8
 80033bc:	f7ff fefa 	bl	80031b4 <RCCEx_PLL2_Config.part.0>
 80033c0:	4606      	mov	r6, r0
        break;
 80033c2:	f000 be52 	b.w	800406a <HAL_RCCEx_PeriphCLKConfig+0xcee>
    switch (PeriphClkInit->SpdifrxClockSelection)
 80033c6:	f5b1 1f40 	cmp.w	r1, #3145728	@ 0x300000
 80033ca:	f040 83fd 	bne.w	8003bc8 <HAL_RCCEx_PeriphCLKConfig+0x84c>
      __HAL_RCC_SPDIFRX_CONFIG(PeriphClkInit->SpdifrxClockSelection);
 80033ce:	4da7      	ldr	r5, [pc, #668]	@ (800366c <HAL_RCCEx_PeriphCLKConfig+0x2f0>)
  HAL_StatusTypeDef ret = HAL_OK;      /* Intermediate status */
 80033d0:	2600      	movs	r6, #0
      __HAL_RCC_SPDIFRX_CONFIG(PeriphClkInit->SpdifrxClockSelection);
 80033d2:	6d28      	ldr	r0, [r5, #80]	@ 0x50
 80033d4:	f420 1040 	bic.w	r0, r0, #3145728	@ 0x300000
 80033d8:	4301      	orrs	r1, r0
 80033da:	6529      	str	r1, [r5, #80]	@ 0x50
  if (((PeriphClkInit->PeriphClockSelection) & RCC_PERIPHCLK_SAI1) == RCC_PERIPHCLK_SAI1)
 80033dc:	05d9      	lsls	r1, r3, #23
 80033de:	d50a      	bpl.n	80033f6 <HAL_RCCEx_PeriphCLKConfig+0x7a>
    switch (PeriphClkInit->Sai1ClockSelection)
 80033e0:	6da1      	ldr	r1, [r4, #88]	@ 0x58
 80033e2:	2904      	cmp	r1, #4
 80033e4:	d806      	bhi.n	80033f4 <HAL_RCCEx_PeriphCLKConfig+0x78>
 80033e6:	e8df f011 	tbh	[pc, r1, lsl #1]
 80033ea:	0459      	.short	0x0459
 80033ec:	0623060b 	.word	0x0623060b
 80033f0:	045e045e 	.word	0x045e045e
 80033f4:	2601      	movs	r6, #1
 80033f6:	4635      	mov	r5, r6
  if (((PeriphClkInit->PeriphClockSelection) & RCC_PERIPHCLK_SAI4A) == RCC_PERIPHCLK_SAI4A)
 80033f8:	055f      	lsls	r7, r3, #21
 80033fa:	d528      	bpl.n	800344e <HAL_RCCEx_PeriphCLKConfig+0xd2>
    switch (PeriphClkInit->Sai4AClockSelection)
 80033fc:	f8d4 10a4 	ldr.w	r1, [r4, #164]	@ 0xa4
 8003400:	f5b1 0f80 	cmp.w	r1, #4194304	@ 0x400000
 8003404:	f000 85e8 	beq.w	8003fd8 <HAL_RCCEx_PeriphCLKConfig+0xc5c>
 8003408:	f200 80f9 	bhi.w	80035fe <HAL_RCCEx_PeriphCLKConfig+0x282>
 800340c:	2900      	cmp	r1, #0
 800340e:	f000 8457 	beq.w	8003cc0 <HAL_RCCEx_PeriphCLKConfig+0x944>
 8003412:	f5b1 1f00 	cmp.w	r1, #2097152	@ 0x200000
 8003416:	f040 80fc 	bne.w	8003612 <HAL_RCCEx_PeriphCLKConfig+0x296>
  if (__HAL_RCC_GET_PLL_OSCSOURCE() == RCC_PLLSOURCE_NONE)
 800341a:	4994      	ldr	r1, [pc, #592]	@ (800366c <HAL_RCCEx_PeriphCLKConfig+0x2f0>)
 800341c:	6a89      	ldr	r1, [r1, #40]	@ 0x28
 800341e:	f001 0103 	and.w	r1, r1, #3
 8003422:	2903      	cmp	r1, #3
 8003424:	f000 80f5 	beq.w	8003612 <HAL_RCCEx_PeriphCLKConfig+0x296>
 8003428:	2100      	movs	r1, #0
 800342a:	f104 0008 	add.w	r0, r4, #8
 800342e:	f7ff fec1 	bl	80031b4 <RCCEx_PLL2_Config.part.0>
 8003432:	4605      	mov	r5, r0
  if (((PeriphClkInit->PeriphClockSelection) & RCC_PERIPHCLK_SAI4B) == RCC_PERIPHCLK_SAI4B)
 8003434:	e9d4 3200 	ldrd	r3, r2, [r4]
    if (ret == HAL_OK)
 8003438:	2d00      	cmp	r5, #0
 800343a:	f040 84e2 	bne.w	8003e02 <HAL_RCCEx_PeriphCLKConfig+0xa86>
      __HAL_RCC_SAI4A_CONFIG(PeriphClkInit->Sai4AClockSelection);
 800343e:	4f8b      	ldr	r7, [pc, #556]	@ (800366c <HAL_RCCEx_PeriphCLKConfig+0x2f0>)
 8003440:	f8d4 00a4 	ldr.w	r0, [r4, #164]	@ 0xa4
 8003444:	6db9      	ldr	r1, [r7, #88]	@ 0x58
 8003446:	f421 0160 	bic.w	r1, r1, #14680064	@ 0xe00000
 800344a:	4301      	orrs	r1, r0
 800344c:	65b9      	str	r1, [r7, #88]	@ 0x58
  if (((PeriphClkInit->PeriphClockSelection) & RCC_PERIPHCLK_SAI4B) == RCC_PERIPHCLK_SAI4B)
 800344e:	0518      	lsls	r0, r3, #20
 8003450:	d528      	bpl.n	80034a4 <HAL_RCCEx_PeriphCLKConfig+0x128>
    switch (PeriphClkInit->Sai4BClockSelection)
 8003452:	f8d4 10a8 	ldr.w	r1, [r4, #168]	@ 0xa8
 8003456:	f1b1 7f00 	cmp.w	r1, #33554432	@ 0x2000000
 800345a:	f000 85a9 	beq.w	8003fb0 <HAL_RCCEx_PeriphCLKConfig+0xc34>
 800345e:	f200 80db 	bhi.w	8003618 <HAL_RCCEx_PeriphCLKConfig+0x29c>
 8003462:	2900      	cmp	r1, #0
 8003464:	f000 8436 	beq.w	8003cd4 <HAL_RCCEx_PeriphCLKConfig+0x958>
 8003468:	f1b1 7f80 	cmp.w	r1, #16777216	@ 0x1000000
 800346c:	f040 80de 	bne.w	800362c <HAL_RCCEx_PeriphCLKConfig+0x2b0>
  if (__HAL_RCC_GET_PLL_OSCSOURCE() == RCC_PLLSOURCE_NONE)
 8003470:	497e      	ldr	r1, [pc, #504]	@ (800366c <HAL_RCCEx_PeriphCLKConfig+0x2f0>)
 8003472:	6a89      	ldr	r1, [r1, #40]	@ 0x28
 8003474:	f001 0103 	and.w	r1, r1, #3
 8003478:	2903      	cmp	r1, #3
 800347a:	f000 80d7 	beq.w	800362c <HAL_RCCEx_PeriphCLKConfig+0x2b0>
 800347e:	2100      	movs	r1, #0
 8003480:	f104 0008 	add.w	r0, r4, #8
 8003484:	f7ff fe96 	bl	80031b4 <RCCEx_PLL2_Config.part.0>
 8003488:	4605      	mov	r5, r0
  if (((PeriphClkInit->PeriphClockSelection) & RCC_PERIPHCLK_OSPI) == RCC_PERIPHCLK_OSPI)
 800348a:	e9d4 3200 	ldrd	r3, r2, [r4]
    if (ret == HAL_OK)
 800348e:	2d00      	cmp	r5, #0
 8003490:	f040 84b4 	bne.w	8003dfc <HAL_RCCEx_PeriphCLKConfig+0xa80>
      __HAL_RCC_SAI4B_CONFIG(PeriphClkInit->Sai4BClockSelection);
 8003494:	4f75      	ldr	r7, [pc, #468]	@ (800366c <HAL_RCCEx_PeriphCLKConfig+0x2f0>)
 8003496:	f8d4 00a8 	ldr.w	r0, [r4, #168]	@ 0xa8
 800349a:	6db9      	ldr	r1, [r7, #88]	@ 0x58
 800349c:	f021 61e0 	bic.w	r1, r1, #117440512	@ 0x7000000
 80034a0:	4301      	orrs	r1, r0
 80034a2:	65b9      	str	r1, [r7, #88]	@ 0x58
  if (((PeriphClkInit->PeriphClockSelection) & RCC_PERIPHCLK_OSPI) == RCC_PERIPHCLK_OSPI)
 80034a4:	0199      	lsls	r1, r3, #6
 80034a6:	d518      	bpl.n	80034da <HAL_RCCEx_PeriphCLKConfig+0x15e>
    switch (PeriphClkInit->OspiClockSelection)
 80034a8:	6ce1      	ldr	r1, [r4, #76]	@ 0x4c
 80034aa:	2920      	cmp	r1, #32
 80034ac:	f000 8530 	beq.w	8003f10 <HAL_RCCEx_PeriphCLKConfig+0xb94>
 80034b0:	f200 80bf 	bhi.w	8003632 <HAL_RCCEx_PeriphCLKConfig+0x2b6>
 80034b4:	b139      	cbz	r1, 80034c6 <HAL_RCCEx_PeriphCLKConfig+0x14a>
 80034b6:	2910      	cmp	r1, #16
 80034b8:	f040 80be 	bne.w	8003638 <HAL_RCCEx_PeriphCLKConfig+0x2bc>
        __HAL_RCC_PLLCLKOUT_ENABLE(RCC_PLL1_DIVQ);
 80034bc:	486b      	ldr	r0, [pc, #428]	@ (800366c <HAL_RCCEx_PeriphCLKConfig+0x2f0>)
 80034be:	6ac1      	ldr	r1, [r0, #44]	@ 0x2c
 80034c0:	f441 3100 	orr.w	r1, r1, #131072	@ 0x20000
 80034c4:	62c1      	str	r1, [r0, #44]	@ 0x2c
    if (ret == HAL_OK)
 80034c6:	2d00      	cmp	r5, #0
 80034c8:	f040 8485 	bne.w	8003dd6 <HAL_RCCEx_PeriphCLKConfig+0xa5a>
      __HAL_RCC_OSPI_CONFIG(PeriphClkInit->OspiClockSelection);
 80034cc:	4f67      	ldr	r7, [pc, #412]	@ (800366c <HAL_RCCEx_PeriphCLKConfig+0x2f0>)
 80034ce:	6ce0      	ldr	r0, [r4, #76]	@ 0x4c
 80034d0:	6cf9      	ldr	r1, [r7, #76]	@ 0x4c
 80034d2:	f021 0130 	bic.w	r1, r1, #48	@ 0x30
 80034d6:	4301      	orrs	r1, r0
 80034d8:	64f9      	str	r1, [r7, #76]	@ 0x4c
  if (((PeriphClkInit->PeriphClockSelection) & RCC_PERIPHCLK_SPI123) == RCC_PERIPHCLK_SPI123)
 80034da:	04df      	lsls	r7, r3, #19
 80034dc:	d526      	bpl.n	800352c <HAL_RCCEx_PeriphCLKConfig+0x1b0>
    switch (PeriphClkInit->Spi123ClockSelection)
 80034de:	6de1      	ldr	r1, [r4, #92]	@ 0x5c
 80034e0:	f5b1 5f00 	cmp.w	r1, #8192	@ 0x2000
 80034e4:	f000 8550 	beq.w	8003f88 <HAL_RCCEx_PeriphCLKConfig+0xc0c>
 80034e8:	f200 80a9 	bhi.w	800363e <HAL_RCCEx_PeriphCLKConfig+0x2c2>
 80034ec:	2900      	cmp	r1, #0
 80034ee:	f000 83cc 	beq.w	8003c8a <HAL_RCCEx_PeriphCLKConfig+0x90e>
 80034f2:	f5b1 5f80 	cmp.w	r1, #4096	@ 0x1000
 80034f6:	f040 80aa 	bne.w	800364e <HAL_RCCEx_PeriphCLKConfig+0x2d2>
  if (__HAL_RCC_GET_PLL_OSCSOURCE() == RCC_PLLSOURCE_NONE)
 80034fa:	495c      	ldr	r1, [pc, #368]	@ (800366c <HAL_RCCEx_PeriphCLKConfig+0x2f0>)
 80034fc:	6a89      	ldr	r1, [r1, #40]	@ 0x28
 80034fe:	f001 0103 	and.w	r1, r1, #3
 8003502:	2903      	cmp	r1, #3
 8003504:	f000 80a3 	beq.w	800364e <HAL_RCCEx_PeriphCLKConfig+0x2d2>
 8003508:	2100      	movs	r1, #0
 800350a:	f104 0008 	add.w	r0, r4, #8
 800350e:	f7ff fe51 	bl	80031b4 <RCCEx_PLL2_Config.part.0>
 8003512:	4605      	mov	r5, r0
  if (((PeriphClkInit->PeriphClockSelection) & RCC_PERIPHCLK_SPI45) == RCC_PERIPHCLK_SPI45)
 8003514:	e9d4 3200 	ldrd	r3, r2, [r4]
    if (ret == HAL_OK)
 8003518:	2d00      	cmp	r5, #0
 800351a:	f040 846c 	bne.w	8003df6 <HAL_RCCEx_PeriphCLKConfig+0xa7a>
      __HAL_RCC_SPI123_CONFIG(PeriphClkInit->Spi123ClockSelection);
 800351e:	4f53      	ldr	r7, [pc, #332]	@ (800366c <HAL_RCCEx_PeriphCLKConfig+0x2f0>)
 8003520:	6de0      	ldr	r0, [r4, #92]	@ 0x5c
 8003522:	6d39      	ldr	r1, [r7, #80]	@ 0x50
 8003524:	f421 41e0 	bic.w	r1, r1, #28672	@ 0x7000
 8003528:	4301      	orrs	r1, r0
 800352a:	6539      	str	r1, [r7, #80]	@ 0x50
  if (((PeriphClkInit->PeriphClockSelection) & RCC_PERIPHCLK_SPI45) == RCC_PERIPHCLK_SPI45)
 800352c:	0498      	lsls	r0, r3, #18
 800352e:	d524      	bpl.n	800357a <HAL_RCCEx_PeriphCLKConfig+0x1fe>
    switch (PeriphClkInit->Spi45ClockSelection)
 8003530:	6e21      	ldr	r1, [r4, #96]	@ 0x60
 8003532:	f5b1 3f00 	cmp.w	r1, #131072	@ 0x20000
 8003536:	f000 8513 	beq.w	8003f60 <HAL_RCCEx_PeriphCLKConfig+0xbe4>
 800353a:	f200 808b 	bhi.w	8003654 <HAL_RCCEx_PeriphCLKConfig+0x2d8>
 800353e:	b191      	cbz	r1, 8003566 <HAL_RCCEx_PeriphCLKConfig+0x1ea>
 8003540:	f5b1 3f80 	cmp.w	r1, #65536	@ 0x10000
 8003544:	f040 808e 	bne.w	8003664 <HAL_RCCEx_PeriphCLKConfig+0x2e8>
  if (__HAL_RCC_GET_PLL_OSCSOURCE() == RCC_PLLSOURCE_NONE)
 8003548:	4948      	ldr	r1, [pc, #288]	@ (800366c <HAL_RCCEx_PeriphCLKConfig+0x2f0>)
 800354a:	6a89      	ldr	r1, [r1, #40]	@ 0x28
 800354c:	f001 0103 	and.w	r1, r1, #3
 8003550:	2903      	cmp	r1, #3
 8003552:	f000 8087 	beq.w	8003664 <HAL_RCCEx_PeriphCLKConfig+0x2e8>
 8003556:	2101      	movs	r1, #1
 8003558:	f104 0008 	add.w	r0, r4, #8
 800355c:	f7ff fe2a 	bl	80031b4 <RCCEx_PLL2_Config.part.0>
 8003560:	4605      	mov	r5, r0
  if (((PeriphClkInit->PeriphClockSelection) & RCC_PERIPHCLK_SPI6) == RCC_PERIPHCLK_SPI6)
 8003562:	e9d4 3200 	ldrd	r3, r2, [r4]
    if (ret == HAL_OK)
 8003566:	2d00      	cmp	r5, #0
 8003568:	f040 845c 	bne.w	8003e24 <HAL_RCCEx_PeriphCLKConfig+0xaa8>
      __HAL_RCC_SPI45_CONFIG(PeriphClkInit->Spi45ClockSelection);
 800356c:	4f3f      	ldr	r7, [pc, #252]	@ (800366c <HAL_RCCEx_PeriphCLKConfig+0x2f0>)
 800356e:	6e20      	ldr	r0, [r4, #96]	@ 0x60
 8003570:	6d39      	ldr	r1, [r7, #80]	@ 0x50
 8003572:	f421 21e0 	bic.w	r1, r1, #458752	@ 0x70000
 8003576:	4301      	orrs	r1, r0
 8003578:	6539      	str	r1, [r7, #80]	@ 0x50
  if (((PeriphClkInit->PeriphClockSelection) & RCC_PERIPHCLK_SPI6) == RCC_PERIPHCLK_SPI6)
 800357a:	0459      	lsls	r1, r3, #17
 800357c:	d523      	bpl.n	80035c6 <HAL_RCCEx_PeriphCLKConfig+0x24a>
    switch (PeriphClkInit->Spi6ClockSelection)
 800357e:	f8d4 10ac 	ldr.w	r1, [r4, #172]	@ 0xac
 8003582:	f1b1 5f00 	cmp.w	r1, #536870912	@ 0x20000000
 8003586:	f000 84d7 	beq.w	8003f38 <HAL_RCCEx_PeriphCLKConfig+0xbbc>
 800358a:	d871      	bhi.n	8003670 <HAL_RCCEx_PeriphCLKConfig+0x2f4>
 800358c:	b181      	cbz	r1, 80035b0 <HAL_RCCEx_PeriphCLKConfig+0x234>
 800358e:	f1b1 5f80 	cmp.w	r1, #268435456	@ 0x10000000
 8003592:	d175      	bne.n	8003680 <HAL_RCCEx_PeriphCLKConfig+0x304>
  if (__HAL_RCC_GET_PLL_OSCSOURCE() == RCC_PLLSOURCE_NONE)
 8003594:	4935      	ldr	r1, [pc, #212]	@ (800366c <HAL_RCCEx_PeriphCLKConfig+0x2f0>)
 8003596:	6a89      	ldr	r1, [r1, #40]	@ 0x28
 8003598:	f001 0103 	and.w	r1, r1, #3
 800359c:	2903      	cmp	r1, #3
 800359e:	d06f      	beq.n	8003680 <HAL_RCCEx_PeriphCLKConfig+0x304>
 80035a0:	2101      	movs	r1, #1
 80035a2:	f104 0008 	add.w	r0, r4, #8
 80035a6:	f7ff fe05 	bl	80031b4 <RCCEx_PLL2_Config.part.0>
 80035aa:	4605      	mov	r5, r0
  if (((PeriphClkInit->PeriphClockSelection) & RCC_PERIPHCLK_FDCAN) == RCC_PERIPHCLK_FDCAN)
 80035ac:	e9d4 3200 	ldrd	r3, r2, [r4]
    if (ret == HAL_OK)
 80035b0:	2d00      	cmp	r5, #0
 80035b2:	f040 844d 	bne.w	8003e50 <HAL_RCCEx_PeriphCLKConfig+0xad4>
      __HAL_RCC_SPI6_CONFIG(PeriphClkInit->Spi6ClockSelection);
 80035b6:	4f2d      	ldr	r7, [pc, #180]	@ (800366c <HAL_RCCEx_PeriphCLKConfig+0x2f0>)
 80035b8:	f8d4 00ac 	ldr.w	r0, [r4, #172]	@ 0xac
 80035bc:	6db9      	ldr	r1, [r7, #88]	@ 0x58
 80035be:	f021 41e0 	bic.w	r1, r1, #1879048192	@ 0x70000000
 80035c2:	4301      	orrs	r1, r0
 80035c4:	65b9      	str	r1, [r7, #88]	@ 0x58
  if (((PeriphClkInit->PeriphClockSelection) & RCC_PERIPHCLK_FDCAN) == RCC_PERIPHCLK_FDCAN)
 80035c6:	041f      	lsls	r7, r3, #16
 80035c8:	d50d      	bpl.n	80035e6 <HAL_RCCEx_PeriphCLKConfig+0x26a>
    switch (PeriphClkInit->FdcanClockSelection)
 80035ca:	6ee1      	ldr	r1, [r4, #108]	@ 0x6c
 80035cc:	f1b1 5f80 	cmp.w	r1, #268435456	@ 0x10000000
 80035d0:	f000 82cf 	beq.w	8003b72 <HAL_RCCEx_PeriphCLKConfig+0x7f6>
 80035d4:	f1b1 5f00 	cmp.w	r1, #536870912	@ 0x20000000
 80035d8:	f000 83db 	beq.w	8003d92 <HAL_RCCEx_PeriphCLKConfig+0xa16>
 80035dc:	2900      	cmp	r1, #0
 80035de:	f000 82cd 	beq.w	8003b7c <HAL_RCCEx_PeriphCLKConfig+0x800>
 80035e2:	2601      	movs	r6, #1
 80035e4:	4635      	mov	r5, r6
  if (((PeriphClkInit->PeriphClockSelection) & RCC_PERIPHCLK_FMC) == RCC_PERIPHCLK_FMC)
 80035e6:	01d8      	lsls	r0, r3, #7
 80035e8:	d556      	bpl.n	8003698 <HAL_RCCEx_PeriphCLKConfig+0x31c>
    switch (PeriphClkInit->FmcClockSelection)
 80035ea:	6ca1      	ldr	r1, [r4, #72]	@ 0x48
 80035ec:	2903      	cmp	r1, #3
 80035ee:	f200 859b 	bhi.w	8004128 <HAL_RCCEx_PeriphCLKConfig+0xdac>
 80035f2:	e8df f011 	tbh	[pc, r1, lsl #1]
 80035f6:	004d      	.short	0x004d
 80035f8:	04320048 	.word	0x04320048
 80035fc:	004d      	.short	0x004d
    switch (PeriphClkInit->Sai4AClockSelection)
 80035fe:	f421 1000 	bic.w	r0, r1, #2097152	@ 0x200000
 8003602:	f5b0 0f00 	cmp.w	r0, #8388608	@ 0x800000
 8003606:	f43f af17 	beq.w	8003438 <HAL_RCCEx_PeriphCLKConfig+0xbc>
 800360a:	f5b1 0fc0 	cmp.w	r1, #6291456	@ 0x600000
 800360e:	f43f af13 	beq.w	8003438 <HAL_RCCEx_PeriphCLKConfig+0xbc>
 8003612:	2601      	movs	r6, #1
 8003614:	4635      	mov	r5, r6
 8003616:	e71a      	b.n	800344e <HAL_RCCEx_PeriphCLKConfig+0xd2>
    switch (PeriphClkInit->Sai4BClockSelection)
 8003618:	f021 7080 	bic.w	r0, r1, #16777216	@ 0x1000000
 800361c:	f1b0 6f80 	cmp.w	r0, #67108864	@ 0x4000000
 8003620:	f43f af35 	beq.w	800348e <HAL_RCCEx_PeriphCLKConfig+0x112>
 8003624:	f1b1 7f40 	cmp.w	r1, #50331648	@ 0x3000000
 8003628:	f43f af31 	beq.w	800348e <HAL_RCCEx_PeriphCLKConfig+0x112>
 800362c:	2601      	movs	r6, #1
 800362e:	4635      	mov	r5, r6
 8003630:	e738      	b.n	80034a4 <HAL_RCCEx_PeriphCLKConfig+0x128>
    switch (PeriphClkInit->OspiClockSelection)
 8003632:	2930      	cmp	r1, #48	@ 0x30
 8003634:	f43f af47 	beq.w	80034c6 <HAL_RCCEx_PeriphCLKConfig+0x14a>
 8003638:	2601      	movs	r6, #1
 800363a:	4635      	mov	r5, r6
 800363c:	e74d      	b.n	80034da <HAL_RCCEx_PeriphCLKConfig+0x15e>
    switch (PeriphClkInit->Spi123ClockSelection)
 800363e:	f5b1 5f40 	cmp.w	r1, #12288	@ 0x3000
 8003642:	f43f af69 	beq.w	8003518 <HAL_RCCEx_PeriphCLKConfig+0x19c>
 8003646:	f5b1 4f80 	cmp.w	r1, #16384	@ 0x4000
 800364a:	f43f af65 	beq.w	8003518 <HAL_RCCEx_PeriphCLKConfig+0x19c>
 800364e:	2601      	movs	r6, #1
 8003650:	4635      	mov	r5, r6
 8003652:	e76b      	b.n	800352c <HAL_RCCEx_PeriphCLKConfig+0x1b0>
    switch (PeriphClkInit->Spi45ClockSelection)
 8003654:	f421 3080 	bic.w	r0, r1, #65536	@ 0x10000
 8003658:	f5b0 2f80 	cmp.w	r0, #262144	@ 0x40000
 800365c:	d083      	beq.n	8003566 <HAL_RCCEx_PeriphCLKConfig+0x1ea>
 800365e:	f5b1 3f40 	cmp.w	r1, #196608	@ 0x30000
 8003662:	d080      	beq.n	8003566 <HAL_RCCEx_PeriphCLKConfig+0x1ea>
 8003664:	2601      	movs	r6, #1
 8003666:	4635      	mov	r5, r6
 8003668:	e787      	b.n	800357a <HAL_RCCEx_PeriphCLKConfig+0x1fe>
 800366a:	bf00      	nop
 800366c:	58024400 	.word	0x58024400
    switch (PeriphClkInit->Spi6ClockSelection)
 8003670:	f021 5080 	bic.w	r0, r1, #268435456	@ 0x10000000
 8003674:	f1b0 4f80 	cmp.w	r0, #1073741824	@ 0x40000000
 8003678:	d09a      	beq.n	80035b0 <HAL_RCCEx_PeriphCLKConfig+0x234>
 800367a:	f1b1 5f40 	cmp.w	r1, #805306368	@ 0x30000000
 800367e:	d097      	beq.n	80035b0 <HAL_RCCEx_PeriphCLKConfig+0x234>
 8003680:	2601      	movs	r6, #1
 8003682:	4635      	mov	r5, r6
 8003684:	e79f      	b.n	80035c6 <HAL_RCCEx_PeriphCLKConfig+0x24a>
        __HAL_RCC_PLLCLKOUT_ENABLE(RCC_PLL1_DIVQ);
 8003686:	4837      	ldr	r0, [pc, #220]	@ (8003764 <HAL_RCCEx_PeriphCLKConfig+0x3e8>)
 8003688:	6ac1      	ldr	r1, [r0, #44]	@ 0x2c
 800368a:	f441 3100 	orr.w	r1, r1, #131072	@ 0x20000
 800368e:	62c1      	str	r1, [r0, #44]	@ 0x2c
    if (ret == HAL_OK)
 8003690:	2d00      	cmp	r5, #0
 8003692:	f000 83a3 	beq.w	8003ddc <HAL_RCCEx_PeriphCLKConfig+0xa60>
 8003696:	462e      	mov	r6, r5
  if (((PeriphClkInit->PeriphClockSelection) & RCC_PERIPHCLK_RTC) == RCC_PERIPHCLK_RTC)
 8003698:	0259      	lsls	r1, r3, #9
 800369a:	f100 82b4 	bmi.w	8003c06 <HAL_RCCEx_PeriphCLKConfig+0x88a>
  if (((PeriphClkInit->PeriphClockSelection) & RCC_PERIPHCLK_USART16) == RCC_PERIPHCLK_USART16)
 800369e:	07d8      	lsls	r0, r3, #31
 80036a0:	d52f      	bpl.n	8003702 <HAL_RCCEx_PeriphCLKConfig+0x386>
    switch (PeriphClkInit->Usart16ClockSelection)
 80036a2:	6fa1      	ldr	r1, [r4, #120]	@ 0x78
 80036a4:	2928      	cmp	r1, #40	@ 0x28
 80036a6:	d82a      	bhi.n	80036fe <HAL_RCCEx_PeriphCLKConfig+0x382>
 80036a8:	e8df f011 	tbh	[pc, r1, lsl #1]
 80036ac:	002902a2 	.word	0x002902a2
 80036b0:	00290029 	.word	0x00290029
 80036b4:	00290029 	.word	0x00290029
 80036b8:	00290029 	.word	0x00290029
 80036bc:	00290293 	.word	0x00290293
 80036c0:	00290029 	.word	0x00290029
 80036c4:	00290029 	.word	0x00290029
 80036c8:	00290029 	.word	0x00290029
 80036cc:	0029050b 	.word	0x0029050b
 80036d0:	00290029 	.word	0x00290029
 80036d4:	00290029 	.word	0x00290029
 80036d8:	00290029 	.word	0x00290029
 80036dc:	002902a2 	.word	0x002902a2
 80036e0:	00290029 	.word	0x00290029
 80036e4:	00290029 	.word	0x00290029
 80036e8:	00290029 	.word	0x00290029
 80036ec:	002902a2 	.word	0x002902a2
 80036f0:	00290029 	.word	0x00290029
 80036f4:	00290029 	.word	0x00290029
 80036f8:	00290029 	.word	0x00290029
 80036fc:	02a2      	.short	0x02a2
 80036fe:	2601      	movs	r6, #1
 8003700:	4635      	mov	r5, r6
  if (((PeriphClkInit->PeriphClockSelection) & RCC_PERIPHCLK_USART234578) == RCC_PERIPHCLK_USART234578)
 8003702:	0799      	lsls	r1, r3, #30
 8003704:	d51e      	bpl.n	8003744 <HAL_RCCEx_PeriphCLKConfig+0x3c8>
    switch (PeriphClkInit->Usart234578ClockSelection)
 8003706:	6f61      	ldr	r1, [r4, #116]	@ 0x74
 8003708:	2905      	cmp	r1, #5
 800370a:	f200 84f3 	bhi.w	80040f4 <HAL_RCCEx_PeriphCLKConfig+0xd78>
 800370e:	e8df f011 	tbh	[pc, r1, lsl #1]
 8003712:	0015      	.short	0x0015
 8003714:	04c60006 	.word	0x04c60006
 8003718:	00150015 	.word	0x00150015
 800371c:	0015      	.short	0x0015
  if (__HAL_RCC_GET_PLL_OSCSOURCE() == RCC_PLLSOURCE_NONE)
 800371e:	4911      	ldr	r1, [pc, #68]	@ (8003764 <HAL_RCCEx_PeriphCLKConfig+0x3e8>)
 8003720:	6a89      	ldr	r1, [r1, #40]	@ 0x28
 8003722:	f001 0103 	and.w	r1, r1, #3
 8003726:	2903      	cmp	r1, #3
 8003728:	f000 84e4 	beq.w	80040f4 <HAL_RCCEx_PeriphCLKConfig+0xd78>
 800372c:	2101      	movs	r1, #1
 800372e:	f104 0008 	add.w	r0, r4, #8
 8003732:	f7ff fd3f 	bl	80031b4 <RCCEx_PLL2_Config.part.0>
 8003736:	4605      	mov	r5, r0
  if (((PeriphClkInit->PeriphClockSelection) & RCC_PERIPHCLK_LPUART1) == RCC_PERIPHCLK_LPUART1)
 8003738:	e9d4 3200 	ldrd	r3, r2, [r4]
    if (ret == HAL_OK)
 800373c:	2d00      	cmp	r5, #0
 800373e:	f000 8374 	beq.w	8003e2a <HAL_RCCEx_PeriphCLKConfig+0xaae>
 8003742:	462e      	mov	r6, r5
  if (((PeriphClkInit->PeriphClockSelection) & RCC_PERIPHCLK_LPUART1) == RCC_PERIPHCLK_LPUART1)
 8003744:	075f      	lsls	r7, r3, #29
 8003746:	d522      	bpl.n	800378e <HAL_RCCEx_PeriphCLKConfig+0x412>
    switch (PeriphClkInit->Lpuart1ClockSelection)
 8003748:	f8d4 1090 	ldr.w	r1, [r4, #144]	@ 0x90
 800374c:	2905      	cmp	r1, #5
 800374e:	f200 84d5 	bhi.w	80040fc <HAL_RCCEx_PeriphCLKConfig+0xd80>
 8003752:	e8df f011 	tbh	[pc, r1, lsl #1]
 8003756:	0018      	.short	0x0018
 8003758:	04920009 	.word	0x04920009
 800375c:	00180018 	.word	0x00180018
 8003760:	0018      	.short	0x0018
 8003762:	bf00      	nop
 8003764:	58024400 	.word	0x58024400
  if (__HAL_RCC_GET_PLL_OSCSOURCE() == RCC_PLLSOURCE_NONE)
 8003768:	49af      	ldr	r1, [pc, #700]	@ (8003a28 <HAL_RCCEx_PeriphCLKConfig+0x6ac>)
 800376a:	6a89      	ldr	r1, [r1, #40]	@ 0x28
 800376c:	f001 0103 	and.w	r1, r1, #3
 8003770:	2903      	cmp	r1, #3
 8003772:	f000 84c3 	beq.w	80040fc <HAL_RCCEx_PeriphCLKConfig+0xd80>
 8003776:	2101      	movs	r1, #1
 8003778:	f104 0008 	add.w	r0, r4, #8
 800377c:	f7ff fd1a 	bl	80031b4 <RCCEx_PLL2_Config.part.0>
 8003780:	4605      	mov	r5, r0
  if (((PeriphClkInit->PeriphClockSelection) & RCC_PERIPHCLK_LPTIM1) == RCC_PERIPHCLK_LPTIM1)
 8003782:	e9d4 3200 	ldrd	r3, r2, [r4]
    if (ret == HAL_OK)
 8003786:	2d00      	cmp	r5, #0
 8003788:	f000 8357 	beq.w	8003e3a <HAL_RCCEx_PeriphCLKConfig+0xabe>
 800378c:	462e      	mov	r6, r5
  if (((PeriphClkInit->PeriphClockSelection) & RCC_PERIPHCLK_LPTIM1) == RCC_PERIPHCLK_LPTIM1)
 800378e:	0698      	lsls	r0, r3, #26
 8003790:	d526      	bpl.n	80037e0 <HAL_RCCEx_PeriphCLKConfig+0x464>
    switch (PeriphClkInit->Lptim1ClockSelection)
 8003792:	f8d4 108c 	ldr.w	r1, [r4, #140]	@ 0x8c
 8003796:	f1b1 5f00 	cmp.w	r1, #536870912	@ 0x20000000
 800379a:	f000 8383 	beq.w	8003ea4 <HAL_RCCEx_PeriphCLKConfig+0xb28>
 800379e:	f200 8189 	bhi.w	8003ab4 <HAL_RCCEx_PeriphCLKConfig+0x738>
 80037a2:	b191      	cbz	r1, 80037ca <HAL_RCCEx_PeriphCLKConfig+0x44e>
 80037a4:	f1b1 5f80 	cmp.w	r1, #268435456	@ 0x10000000
 80037a8:	f040 818e 	bne.w	8003ac8 <HAL_RCCEx_PeriphCLKConfig+0x74c>
  if (__HAL_RCC_GET_PLL_OSCSOURCE() == RCC_PLLSOURCE_NONE)
 80037ac:	499e      	ldr	r1, [pc, #632]	@ (8003a28 <HAL_RCCEx_PeriphCLKConfig+0x6ac>)
 80037ae:	6a89      	ldr	r1, [r1, #40]	@ 0x28
 80037b0:	f001 0103 	and.w	r1, r1, #3
 80037b4:	2903      	cmp	r1, #3
 80037b6:	f000 8187 	beq.w	8003ac8 <HAL_RCCEx_PeriphCLKConfig+0x74c>
 80037ba:	2100      	movs	r1, #0
 80037bc:	f104 0008 	add.w	r0, r4, #8
 80037c0:	f7ff fcf8 	bl	80031b4 <RCCEx_PLL2_Config.part.0>
 80037c4:	4605      	mov	r5, r0
  if (((PeriphClkInit->PeriphClockSelection) & RCC_PERIPHCLK_LPTIM2) == RCC_PERIPHCLK_LPTIM2)
 80037c6:	e9d4 3200 	ldrd	r3, r2, [r4]
    if (ret == HAL_OK)
 80037ca:	2d00      	cmp	r5, #0
 80037cc:	f040 8326 	bne.w	8003e1c <HAL_RCCEx_PeriphCLKConfig+0xaa0>
      __HAL_RCC_LPTIM1_CONFIG(PeriphClkInit->Lptim1ClockSelection);
 80037d0:	4f95      	ldr	r7, [pc, #596]	@ (8003a28 <HAL_RCCEx_PeriphCLKConfig+0x6ac>)
 80037d2:	f8d4 008c 	ldr.w	r0, [r4, #140]	@ 0x8c
 80037d6:	6d79      	ldr	r1, [r7, #84]	@ 0x54
 80037d8:	f021 41e0 	bic.w	r1, r1, #1879048192	@ 0x70000000
 80037dc:	4301      	orrs	r1, r0
 80037de:	6579      	str	r1, [r7, #84]	@ 0x54
  if (((PeriphClkInit->PeriphClockSelection) & RCC_PERIPHCLK_LPTIM2) == RCC_PERIPHCLK_LPTIM2)
 80037e0:	0659      	lsls	r1, r3, #25
 80037e2:	d526      	bpl.n	8003832 <HAL_RCCEx_PeriphCLKConfig+0x4b6>
    switch (PeriphClkInit->Lptim2ClockSelection)
 80037e4:	f8d4 1098 	ldr.w	r1, [r4, #152]	@ 0x98
 80037e8:	f5b1 6f00 	cmp.w	r1, #2048	@ 0x800
 80037ec:	f000 836c 	beq.w	8003ec8 <HAL_RCCEx_PeriphCLKConfig+0xb4c>
 80037f0:	f200 816d 	bhi.w	8003ace <HAL_RCCEx_PeriphCLKConfig+0x752>
 80037f4:	b191      	cbz	r1, 800381c <HAL_RCCEx_PeriphCLKConfig+0x4a0>
 80037f6:	f5b1 6f80 	cmp.w	r1, #1024	@ 0x400
 80037fa:	f040 8172 	bne.w	8003ae2 <HAL_RCCEx_PeriphCLKConfig+0x766>
  if (__HAL_RCC_GET_PLL_OSCSOURCE() == RCC_PLLSOURCE_NONE)
 80037fe:	498a      	ldr	r1, [pc, #552]	@ (8003a28 <HAL_RCCEx_PeriphCLKConfig+0x6ac>)
 8003800:	6a89      	ldr	r1, [r1, #40]	@ 0x28
 8003802:	f001 0103 	and.w	r1, r1, #3
 8003806:	2903      	cmp	r1, #3
 8003808:	f000 816b 	beq.w	8003ae2 <HAL_RCCEx_PeriphCLKConfig+0x766>
 800380c:	2100      	movs	r1, #0
 800380e:	f104 0008 	add.w	r0, r4, #8
 8003812:	f7ff fccf 	bl	80031b4 <RCCEx_PLL2_Config.part.0>
 8003816:	4605      	mov	r5, r0
  if (((PeriphClkInit->PeriphClockSelection) & RCC_PERIPHCLK_LPTIM345) == RCC_PERIPHCLK_LPTIM345)
 8003818:	e9d4 3200 	ldrd	r3, r2, [r4]
    if (ret == HAL_OK)
 800381c:	2d00      	cmp	r5, #0
 800381e:	f040 82fb 	bne.w	8003e18 <HAL_RCCEx_PeriphCLKConfig+0xa9c>
      __HAL_RCC_LPTIM2_CONFIG(PeriphClkInit->Lptim2ClockSelection);
 8003822:	4f81      	ldr	r7, [pc, #516]	@ (8003a28 <HAL_RCCEx_PeriphCLKConfig+0x6ac>)
 8003824:	f8d4 0098 	ldr.w	r0, [r4, #152]	@ 0x98
 8003828:	6db9      	ldr	r1, [r7, #88]	@ 0x58
 800382a:	f421 51e0 	bic.w	r1, r1, #7168	@ 0x1c00
 800382e:	4301      	orrs	r1, r0
 8003830:	65b9      	str	r1, [r7, #88]	@ 0x58
  if (((PeriphClkInit->PeriphClockSelection) & RCC_PERIPHCLK_LPTIM345) == RCC_PERIPHCLK_LPTIM345)
 8003832:	061f      	lsls	r7, r3, #24
 8003834:	d526      	bpl.n	8003884 <HAL_RCCEx_PeriphCLKConfig+0x508>
    switch (PeriphClkInit->Lptim345ClockSelection)
 8003836:	f8d4 109c 	ldr.w	r1, [r4, #156]	@ 0x9c
 800383a:	f5b1 4f80 	cmp.w	r1, #16384	@ 0x4000
 800383e:	f000 8355 	beq.w	8003eec <HAL_RCCEx_PeriphCLKConfig+0xb70>
 8003842:	f200 8151 	bhi.w	8003ae8 <HAL_RCCEx_PeriphCLKConfig+0x76c>
 8003846:	b191      	cbz	r1, 800386e <HAL_RCCEx_PeriphCLKConfig+0x4f2>
 8003848:	f5b1 5f00 	cmp.w	r1, #8192	@ 0x2000
 800384c:	f040 8156 	bne.w	8003afc <HAL_RCCEx_PeriphCLKConfig+0x780>
  if (__HAL_RCC_GET_PLL_OSCSOURCE() == RCC_PLLSOURCE_NONE)
 8003850:	4975      	ldr	r1, [pc, #468]	@ (8003a28 <HAL_RCCEx_PeriphCLKConfig+0x6ac>)
 8003852:	6a89      	ldr	r1, [r1, #40]	@ 0x28
 8003854:	f001 0103 	and.w	r1, r1, #3
 8003858:	2903      	cmp	r1, #3
 800385a:	f000 814f 	beq.w	8003afc <HAL_RCCEx_PeriphCLKConfig+0x780>
 800385e:	2100      	movs	r1, #0
 8003860:	f104 0008 	add.w	r0, r4, #8
 8003864:	f7ff fca6 	bl	80031b4 <RCCEx_PLL2_Config.part.0>
 8003868:	4605      	mov	r5, r0
  if (((PeriphClkInit->PeriphClockSelection) & RCC_PERIPHCLK_I2C1235) == RCC_PERIPHCLK_I2C1235)
 800386a:	e9d4 3200 	ldrd	r3, r2, [r4]
    if (ret == HAL_OK)
 800386e:	2d00      	cmp	r5, #0
 8003870:	f040 82d6 	bne.w	8003e20 <HAL_RCCEx_PeriphCLKConfig+0xaa4>
      __HAL_RCC_LPTIM345_CONFIG(PeriphClkInit->Lptim345ClockSelection);
 8003874:	4f6c      	ldr	r7, [pc, #432]	@ (8003a28 <HAL_RCCEx_PeriphCLKConfig+0x6ac>)
 8003876:	f8d4 009c 	ldr.w	r0, [r4, #156]	@ 0x9c
 800387a:	6db9      	ldr	r1, [r7, #88]	@ 0x58
 800387c:	f421 4160 	bic.w	r1, r1, #57344	@ 0xe000
 8003880:	4301      	orrs	r1, r0
 8003882:	65b9      	str	r1, [r7, #88]	@ 0x58
  if (((PeriphClkInit->PeriphClockSelection) & RCC_PERIPHCLK_I2C1235) == RCC_PERIPHCLK_I2C1235)
 8003884:	0718      	lsls	r0, r3, #28
 8003886:	d50b      	bpl.n	80038a0 <HAL_RCCEx_PeriphCLKConfig+0x524>
    if ((PeriphClkInit->I2c1235ClockSelection) == RCC_I2C1235CLKSOURCE_PLL3)
 8003888:	f8d4 0080 	ldr.w	r0, [r4, #128]	@ 0x80
 800388c:	f5b0 5f80 	cmp.w	r0, #4096	@ 0x1000
 8003890:	f000 8242 	beq.w	8003d18 <HAL_RCCEx_PeriphCLKConfig+0x99c>
    __HAL_RCC_I2C1235_CONFIG(PeriphClkInit->I2c1235ClockSelection);
 8003894:	4f64      	ldr	r7, [pc, #400]	@ (8003a28 <HAL_RCCEx_PeriphCLKConfig+0x6ac>)
 8003896:	6d79      	ldr	r1, [r7, #84]	@ 0x54
 8003898:	f421 5140 	bic.w	r1, r1, #12288	@ 0x3000
 800389c:	4301      	orrs	r1, r0
 800389e:	6579      	str	r1, [r7, #84]	@ 0x54
  if (((PeriphClkInit->PeriphClockSelection) & RCC_PERIPHCLK_I2C4) == RCC_PERIPHCLK_I2C4)
 80038a0:	06d9      	lsls	r1, r3, #27
 80038a2:	d50b      	bpl.n	80038bc <HAL_RCCEx_PeriphCLKConfig+0x540>
    if ((PeriphClkInit->I2c4ClockSelection) == RCC_I2C4CLKSOURCE_PLL3)
 80038a4:	f8d4 0094 	ldr.w	r0, [r4, #148]	@ 0x94
 80038a8:	f5b0 7f80 	cmp.w	r0, #256	@ 0x100
 80038ac:	f000 8249 	beq.w	8003d42 <HAL_RCCEx_PeriphCLKConfig+0x9c6>
    __HAL_RCC_I2C4_CONFIG(PeriphClkInit->I2c4ClockSelection);
 80038b0:	4f5d      	ldr	r7, [pc, #372]	@ (8003a28 <HAL_RCCEx_PeriphCLKConfig+0x6ac>)
 80038b2:	6db9      	ldr	r1, [r7, #88]	@ 0x58
 80038b4:	f421 7140 	bic.w	r1, r1, #768	@ 0x300
 80038b8:	4301      	orrs	r1, r0
 80038ba:	65b9      	str	r1, [r7, #88]	@ 0x58
  if (((PeriphClkInit->PeriphClockSelection) & RCC_PERIPHCLK_ADC) == RCC_PERIPHCLK_ADC)
 80038bc:	031f      	lsls	r7, r3, #12
 80038be:	d50e      	bpl.n	80038de <HAL_RCCEx_PeriphCLKConfig+0x562>
    switch (PeriphClkInit->AdcClockSelection)
 80038c0:	f8d4 10a0 	ldr.w	r1, [r4, #160]	@ 0xa0
 80038c4:	f5b1 3f80 	cmp.w	r1, #65536	@ 0x10000
 80038c8:	f000 8163 	beq.w	8003b92 <HAL_RCCEx_PeriphCLKConfig+0x816>
 80038cc:	f5b1 3f00 	cmp.w	r1, #131072	@ 0x20000
 80038d0:	f000 816e 	beq.w	8003bb0 <HAL_RCCEx_PeriphCLKConfig+0x834>
 80038d4:	2900      	cmp	r1, #0
 80038d6:	f000 826d 	beq.w	8003db4 <HAL_RCCEx_PeriphCLKConfig+0xa38>
 80038da:	2601      	movs	r6, #1
 80038dc:	4635      	mov	r5, r6
  if (((PeriphClkInit->PeriphClockSelection) & RCC_PERIPHCLK_USB) == RCC_PERIPHCLK_USB)
 80038de:	0358      	lsls	r0, r3, #13
 80038e0:	d50f      	bpl.n	8003902 <HAL_RCCEx_PeriphCLKConfig+0x586>
    switch (PeriphClkInit->UsbClockSelection)
 80038e2:	f8d4 1084 	ldr.w	r1, [r4, #132]	@ 0x84
 80038e6:	f5b1 1f00 	cmp.w	r1, #2097152	@ 0x200000
 80038ea:	f000 82c9 	beq.w	8003e80 <HAL_RCCEx_PeriphCLKConfig+0xb04>
 80038ee:	f5b1 1f40 	cmp.w	r1, #3145728	@ 0x300000
 80038f2:	f000 8132 	beq.w	8003b5a <HAL_RCCEx_PeriphCLKConfig+0x7de>
 80038f6:	f5b1 1f80 	cmp.w	r1, #1048576	@ 0x100000
 80038fa:	f000 8129 	beq.w	8003b50 <HAL_RCCEx_PeriphCLKConfig+0x7d4>
 80038fe:	2601      	movs	r6, #1
 8003900:	4635      	mov	r5, r6
  if (((PeriphClkInit->PeriphClockSelection) & RCC_PERIPHCLK_SDMMC) == RCC_PERIPHCLK_SDMMC)
 8003902:	03d9      	lsls	r1, r3, #15
 8003904:	d520      	bpl.n	8003948 <HAL_RCCEx_PeriphCLKConfig+0x5cc>
    switch (PeriphClkInit->SdmmcClockSelection)
 8003906:	6d21      	ldr	r1, [r4, #80]	@ 0x50
 8003908:	2900      	cmp	r1, #0
 800390a:	f000 822f 	beq.w	8003d6c <HAL_RCCEx_PeriphCLKConfig+0x9f0>
 800390e:	f5b1 3f80 	cmp.w	r1, #65536	@ 0x10000
 8003912:	f040 811a 	bne.w	8003b4a <HAL_RCCEx_PeriphCLKConfig+0x7ce>
  if (__HAL_RCC_GET_PLL_OSCSOURCE() == RCC_PLLSOURCE_NONE)
 8003916:	4944      	ldr	r1, [pc, #272]	@ (8003a28 <HAL_RCCEx_PeriphCLKConfig+0x6ac>)
 8003918:	6a89      	ldr	r1, [r1, #40]	@ 0x28
 800391a:	f001 0103 	and.w	r1, r1, #3
 800391e:	2903      	cmp	r1, #3
 8003920:	f000 8113 	beq.w	8003b4a <HAL_RCCEx_PeriphCLKConfig+0x7ce>
 8003924:	2102      	movs	r1, #2
 8003926:	f104 0008 	add.w	r0, r4, #8
 800392a:	f7ff fc43 	bl	80031b4 <RCCEx_PLL2_Config.part.0>
 800392e:	4605      	mov	r5, r0
  if (((PeriphClkInit->PeriphClockSelection) & RCC_PERIPHCLK_LTDC) == RCC_PERIPHCLK_LTDC)
 8003930:	e9d4 3200 	ldrd	r3, r2, [r4]
    if (ret == HAL_OK)
 8003934:	2d00      	cmp	r5, #0
 8003936:	f040 8221 	bne.w	8003d7c <HAL_RCCEx_PeriphCLKConfig+0xa00>
      __HAL_RCC_SDMMC_CONFIG(PeriphClkInit->SdmmcClockSelection);
 800393a:	4f3b      	ldr	r7, [pc, #236]	@ (8003a28 <HAL_RCCEx_PeriphCLKConfig+0x6ac>)
 800393c:	6d20      	ldr	r0, [r4, #80]	@ 0x50
 800393e:	6cf9      	ldr	r1, [r7, #76]	@ 0x4c
 8003940:	f421 3180 	bic.w	r1, r1, #65536	@ 0x10000
 8003944:	4301      	orrs	r1, r0
 8003946:	64f9      	str	r1, [r7, #76]	@ 0x4c
  if (((PeriphClkInit->PeriphClockSelection) & RCC_PERIPHCLK_LTDC) == RCC_PERIPHCLK_LTDC)
 8003948:	009f      	lsls	r7, r3, #2
 800394a:	d50e      	bpl.n	800396a <HAL_RCCEx_PeriphCLKConfig+0x5ee>
  if (__HAL_RCC_GET_PLL_OSCSOURCE() == RCC_PLLSOURCE_NONE)
 800394c:	4936      	ldr	r1, [pc, #216]	@ (8003a28 <HAL_RCCEx_PeriphCLKConfig+0x6ac>)
 800394e:	6a89      	ldr	r1, [r1, #40]	@ 0x28
 8003950:	f001 0103 	and.w	r1, r1, #3
 8003954:	2903      	cmp	r1, #3
 8003956:	d007      	beq.n	8003968 <HAL_RCCEx_PeriphCLKConfig+0x5ec>
 8003958:	2102      	movs	r1, #2
 800395a:	f104 0028 	add.w	r0, r4, #40	@ 0x28
 800395e:	f7ff fc9b 	bl	8003298 <RCCEx_PLL3_Config.part.0>
  if (((PeriphClkInit->PeriphClockSelection) & RCC_PERIPHCLK_RNG) == RCC_PERIPHCLK_RNG)
 8003962:	e9d4 3200 	ldrd	r3, r2, [r4]
    if (RCCEx_PLL3_Config(&(PeriphClkInit->PLL3), DIVIDER_R_UPDATE) != HAL_OK)
 8003966:	b100      	cbz	r0, 800396a <HAL_RCCEx_PeriphCLKConfig+0x5ee>
      status = HAL_ERROR;
 8003968:	2601      	movs	r6, #1
  if (((PeriphClkInit->PeriphClockSelection) & RCC_PERIPHCLK_RNG) == RCC_PERIPHCLK_RNG)
 800396a:	0398      	lsls	r0, r3, #14
 800396c:	f140 80d5 	bpl.w	8003b1a <HAL_RCCEx_PeriphCLKConfig+0x79e>
    switch (PeriphClkInit->RngClockSelection)
 8003970:	6fe1      	ldr	r1, [r4, #124]	@ 0x7c
 8003972:	f5b1 7f80 	cmp.w	r1, #256	@ 0x100
 8003976:	f000 8203 	beq.w	8003d80 <HAL_RCCEx_PeriphCLKConfig+0xa04>
 800397a:	f240 80c2 	bls.w	8003b02 <HAL_RCCEx_PeriphCLKConfig+0x786>
 800397e:	f421 7080 	bic.w	r0, r1, #256	@ 0x100
 8003982:	f5b0 7f00 	cmp.w	r0, #512	@ 0x200
 8003986:	f000 80bf 	beq.w	8003b08 <HAL_RCCEx_PeriphCLKConfig+0x78c>
 800398a:	2501      	movs	r5, #1
  if (((PeriphClkInit->PeriphClockSelection) & RCC_PERIPHCLK_SWPMI1) == RCC_PERIPHCLK_SWPMI1)
 800398c:	02d9      	lsls	r1, r3, #11
 800398e:	d506      	bpl.n	800399e <HAL_RCCEx_PeriphCLKConfig+0x622>
    __HAL_RCC_SWPMI1_CONFIG(PeriphClkInit->Swpmi1ClockSelection);
 8003990:	4825      	ldr	r0, [pc, #148]	@ (8003a28 <HAL_RCCEx_PeriphCLKConfig+0x6ac>)
 8003992:	6f26      	ldr	r6, [r4, #112]	@ 0x70
 8003994:	6d01      	ldr	r1, [r0, #80]	@ 0x50
 8003996:	f021 4100 	bic.w	r1, r1, #2147483648	@ 0x80000000
 800399a:	4331      	orrs	r1, r6
 800399c:	6501      	str	r1, [r0, #80]	@ 0x50
  if (((PeriphClkInit->PeriphClockSelection) & RCC_PERIPHCLK_DFSDM1) == RCC_PERIPHCLK_DFSDM1)
 800399e:	029f      	lsls	r7, r3, #10
 80039a0:	d506      	bpl.n	80039b0 <HAL_RCCEx_PeriphCLKConfig+0x634>
    __HAL_RCC_DFSDM1_CONFIG(PeriphClkInit->Dfsdm1ClockSelection);
 80039a2:	4821      	ldr	r0, [pc, #132]	@ (8003a28 <HAL_RCCEx_PeriphCLKConfig+0x6ac>)
 80039a4:	6ea6      	ldr	r6, [r4, #104]	@ 0x68
 80039a6:	6d01      	ldr	r1, [r0, #80]	@ 0x50
 80039a8:	f021 7180 	bic.w	r1, r1, #16777216	@ 0x1000000
 80039ac:	4331      	orrs	r1, r6
 80039ae:	6501      	str	r1, [r0, #80]	@ 0x50
  if (((PeriphClkInit->PeriphClockSelection) & RCC_PERIPHCLK_TIM) == RCC_PERIPHCLK_TIM)
 80039b0:	005e      	lsls	r6, r3, #1
 80039b2:	d509      	bpl.n	80039c8 <HAL_RCCEx_PeriphCLKConfig+0x64c>
    __HAL_RCC_TIMCLKPRESCALER(PeriphClkInit->TIMPresSelection);
 80039b4:	491c      	ldr	r1, [pc, #112]	@ (8003a28 <HAL_RCCEx_PeriphCLKConfig+0x6ac>)
 80039b6:	6908      	ldr	r0, [r1, #16]
 80039b8:	f420 4000 	bic.w	r0, r0, #32768	@ 0x8000
 80039bc:	6108      	str	r0, [r1, #16]
 80039be:	6908      	ldr	r0, [r1, #16]
 80039c0:	f8d4 60b4 	ldr.w	r6, [r4, #180]	@ 0xb4
 80039c4:	4330      	orrs	r0, r6
 80039c6:	6108      	str	r0, [r1, #16]
  if (((PeriphClkInit->PeriphClockSelection) & RCC_PERIPHCLK_CKPER) == RCC_PERIPHCLK_CKPER)
 80039c8:	2b00      	cmp	r3, #0
 80039ca:	da06      	bge.n	80039da <HAL_RCCEx_PeriphCLKConfig+0x65e>
    __HAL_RCC_CLKP_CONFIG(PeriphClkInit->CkperClockSelection);
 80039cc:	4816      	ldr	r0, [pc, #88]	@ (8003a28 <HAL_RCCEx_PeriphCLKConfig+0x6ac>)
 80039ce:	6d66      	ldr	r6, [r4, #84]	@ 0x54
 80039d0:	6cc1      	ldr	r1, [r0, #76]	@ 0x4c
 80039d2:	f021 5140 	bic.w	r1, r1, #805306368	@ 0x30000000
 80039d6:	4331      	orrs	r1, r6
 80039d8:	64c1      	str	r1, [r0, #76]	@ 0x4c
  if (((PeriphClkInit->PeriphClockSelection) & RCC_PERIPHCLK_CEC) == RCC_PERIPHCLK_CEC)
 80039da:	0218      	lsls	r0, r3, #8
 80039dc:	d507      	bpl.n	80039ee <HAL_RCCEx_PeriphCLKConfig+0x672>
    __HAL_RCC_CEC_CONFIG(PeriphClkInit->CecClockSelection);
 80039de:	4912      	ldr	r1, [pc, #72]	@ (8003a28 <HAL_RCCEx_PeriphCLKConfig+0x6ac>)
 80039e0:	f8d4 0088 	ldr.w	r0, [r4, #136]	@ 0x88
 80039e4:	6d4b      	ldr	r3, [r1, #84]	@ 0x54
 80039e6:	f423 0340 	bic.w	r3, r3, #12582912	@ 0xc00000
 80039ea:	4303      	orrs	r3, r0
 80039ec:	654b      	str	r3, [r1, #84]	@ 0x54
  if (((PeriphClkInit->PeriphClockSelection) & RCC_PERIPHCLK_PLL2_DIVP) == RCC_PERIPHCLK_PLL2_DIVP)
 80039ee:	07d1      	lsls	r1, r2, #31
 80039f0:	d50f      	bpl.n	8003a12 <HAL_RCCEx_PeriphCLKConfig+0x696>
  if (__HAL_RCC_GET_PLL_OSCSOURCE() == RCC_PLLSOURCE_NONE)
 80039f2:	4b0d      	ldr	r3, [pc, #52]	@ (8003a28 <HAL_RCCEx_PeriphCLKConfig+0x6ac>)
 80039f4:	6a9b      	ldr	r3, [r3, #40]	@ 0x28
 80039f6:	f003 0303 	and.w	r3, r3, #3
 80039fa:	2b03      	cmp	r3, #3
 80039fc:	f000 8186 	beq.w	8003d0c <HAL_RCCEx_PeriphCLKConfig+0x990>
 8003a00:	2100      	movs	r1, #0
 8003a02:	f104 0008 	add.w	r0, r4, #8
 8003a06:	f7ff fbd5 	bl	80031b4 <RCCEx_PLL2_Config.part.0>
  if (((PeriphClkInit->PeriphClockSelection) & RCC_PERIPHCLK_PLL2_DIVQ) == RCC_PERIPHCLK_PLL2_DIVQ)
 8003a0a:	6862      	ldr	r2, [r4, #4]
    if (ret == HAL_OK)
 8003a0c:	2800      	cmp	r0, #0
 8003a0e:	f040 81ff 	bne.w	8003e10 <HAL_RCCEx_PeriphCLKConfig+0xa94>
  if (((PeriphClkInit->PeriphClockSelection) & RCC_PERIPHCLK_PLL2_DIVQ) == RCC_PERIPHCLK_PLL2_DIVQ)
 8003a12:	0793      	lsls	r3, r2, #30
 8003a14:	d513      	bpl.n	8003a3e <HAL_RCCEx_PeriphCLKConfig+0x6c2>
  if (__HAL_RCC_GET_PLL_OSCSOURCE() == RCC_PLLSOURCE_NONE)
 8003a16:	4b04      	ldr	r3, [pc, #16]	@ (8003a28 <HAL_RCCEx_PeriphCLKConfig+0x6ac>)
 8003a18:	6a9b      	ldr	r3, [r3, #40]	@ 0x28
 8003a1a:	f003 0303 	and.w	r3, r3, #3
 8003a1e:	2b03      	cmp	r3, #3
 8003a20:	f000 8169 	beq.w	8003cf6 <HAL_RCCEx_PeriphCLKConfig+0x97a>
 8003a24:	e002      	b.n	8003a2c <HAL_RCCEx_PeriphCLKConfig+0x6b0>
 8003a26:	bf00      	nop
 8003a28:	58024400 	.word	0x58024400
 8003a2c:	2101      	movs	r1, #1
 8003a2e:	f104 0008 	add.w	r0, r4, #8
 8003a32:	f7ff fbbf 	bl	80031b4 <RCCEx_PLL2_Config.part.0>
  if (((PeriphClkInit->PeriphClockSelection) & RCC_PERIPHCLK_PLL2_DIVR) == RCC_PERIPHCLK_PLL2_DIVR)
 8003a36:	6862      	ldr	r2, [r4, #4]
    if (ret == HAL_OK)
 8003a38:	2800      	cmp	r0, #0
 8003a3a:	f040 81e5 	bne.w	8003e08 <HAL_RCCEx_PeriphCLKConfig+0xa8c>
  if (((PeriphClkInit->PeriphClockSelection) & RCC_PERIPHCLK_PLL2_DIVR) == RCC_PERIPHCLK_PLL2_DIVR)
 8003a3e:	0757      	lsls	r7, r2, #29
 8003a40:	d50f      	bpl.n	8003a62 <HAL_RCCEx_PeriphCLKConfig+0x6e6>
  if (__HAL_RCC_GET_PLL_OSCSOURCE() == RCC_PLLSOURCE_NONE)
 8003a42:	4bb3      	ldr	r3, [pc, #716]	@ (8003d10 <HAL_RCCEx_PeriphCLKConfig+0x994>)
 8003a44:	6a9b      	ldr	r3, [r3, #40]	@ 0x28
 8003a46:	f003 0303 	and.w	r3, r3, #3
 8003a4a:	2b03      	cmp	r3, #3
 8003a4c:	f000 8155 	beq.w	8003cfa <HAL_RCCEx_PeriphCLKConfig+0x97e>
 8003a50:	2102      	movs	r1, #2
 8003a52:	f104 0008 	add.w	r0, r4, #8
 8003a56:	f7ff fbad 	bl	80031b4 <RCCEx_PLL2_Config.part.0>
  if (((PeriphClkInit->PeriphClockSelection) & RCC_PERIPHCLK_PLL3_DIVP) == RCC_PERIPHCLK_PLL3_DIVP)
 8003a5a:	6862      	ldr	r2, [r4, #4]
    if (ret == HAL_OK)
 8003a5c:	2800      	cmp	r0, #0
 8003a5e:	f040 81d9 	bne.w	8003e14 <HAL_RCCEx_PeriphCLKConfig+0xa98>
  if (((PeriphClkInit->PeriphClockSelection) & RCC_PERIPHCLK_PLL3_DIVP) == RCC_PERIPHCLK_PLL3_DIVP)
 8003a62:	0716      	lsls	r6, r2, #28
 8003a64:	d50f      	bpl.n	8003a86 <HAL_RCCEx_PeriphCLKConfig+0x70a>
  if (__HAL_RCC_GET_PLL_OSCSOURCE() == RCC_PLLSOURCE_NONE)
 8003a66:	4baa      	ldr	r3, [pc, #680]	@ (8003d10 <HAL_RCCEx_PeriphCLKConfig+0x994>)
 8003a68:	6a9b      	ldr	r3, [r3, #40]	@ 0x28
 8003a6a:	f003 0303 	and.w	r3, r3, #3
 8003a6e:	2b03      	cmp	r3, #3
 8003a70:	f000 8145 	beq.w	8003cfe <HAL_RCCEx_PeriphCLKConfig+0x982>
 8003a74:	2100      	movs	r1, #0
 8003a76:	f104 0028 	add.w	r0, r4, #40	@ 0x28
 8003a7a:	f7ff fc0d 	bl	8003298 <RCCEx_PLL3_Config.part.0>
  if (((PeriphClkInit->PeriphClockSelection) & RCC_PERIPHCLK_PLL3_DIVQ) == RCC_PERIPHCLK_PLL3_DIVQ)
 8003a7e:	6862      	ldr	r2, [r4, #4]
    if (ret == HAL_OK)
 8003a80:	2800      	cmp	r0, #0
 8003a82:	f040 81c3 	bne.w	8003e0c <HAL_RCCEx_PeriphCLKConfig+0xa90>
  if (((PeriphClkInit->PeriphClockSelection) & RCC_PERIPHCLK_PLL3_DIVQ) == RCC_PERIPHCLK_PLL3_DIVQ)
 8003a86:	06d0      	lsls	r0, r2, #27
 8003a88:	d54a      	bpl.n	8003b20 <HAL_RCCEx_PeriphCLKConfig+0x7a4>
  if (__HAL_RCC_GET_PLL_OSCSOURCE() == RCC_PLLSOURCE_NONE)
 8003a8a:	4ba1      	ldr	r3, [pc, #644]	@ (8003d10 <HAL_RCCEx_PeriphCLKConfig+0x994>)
    ret = RCCEx_PLL3_Config(&(PeriphClkInit->PLL3), DIVIDER_Q_UPDATE);
 8003a8c:	f104 0628 	add.w	r6, r4, #40	@ 0x28
  if (__HAL_RCC_GET_PLL_OSCSOURCE() == RCC_PLLSOURCE_NONE)
 8003a90:	6a9b      	ldr	r3, [r3, #40]	@ 0x28
 8003a92:	f003 0303 	and.w	r3, r3, #3
 8003a96:	2b03      	cmp	r3, #3
 8003a98:	f000 8133 	beq.w	8003d02 <HAL_RCCEx_PeriphCLKConfig+0x986>
 8003a9c:	2101      	movs	r1, #1
 8003a9e:	4630      	mov	r0, r6
 8003aa0:	f7ff fbfa 	bl	8003298 <RCCEx_PLL3_Config.part.0>
    if (ret == HAL_OK)
 8003aa4:	2800      	cmp	r0, #0
 8003aa6:	d03a      	beq.n	8003b1e <HAL_RCCEx_PeriphCLKConfig+0x7a2>
  if (((PeriphClkInit->PeriphClockSelection) & RCC_PERIPHCLK_PLL3_DIVR) == RCC_PERIPHCLK_PLL3_DIVR)
 8003aa8:	6863      	ldr	r3, [r4, #4]
 8003aaa:	069a      	lsls	r2, r3, #26
 8003aac:	f140 808e 	bpl.w	8003bcc <HAL_RCCEx_PeriphCLKConfig+0x850>
 8003ab0:	4605      	mov	r5, r0
 8003ab2:	e039      	b.n	8003b28 <HAL_RCCEx_PeriphCLKConfig+0x7ac>
    switch (PeriphClkInit->Lptim1ClockSelection)
 8003ab4:	f021 5080 	bic.w	r0, r1, #268435456	@ 0x10000000
 8003ab8:	f1b0 4f80 	cmp.w	r0, #1073741824	@ 0x40000000
 8003abc:	f43f ae85 	beq.w	80037ca <HAL_RCCEx_PeriphCLKConfig+0x44e>
 8003ac0:	f1b1 5f40 	cmp.w	r1, #805306368	@ 0x30000000
 8003ac4:	f43f ae81 	beq.w	80037ca <HAL_RCCEx_PeriphCLKConfig+0x44e>
 8003ac8:	2601      	movs	r6, #1
 8003aca:	4635      	mov	r5, r6
 8003acc:	e688      	b.n	80037e0 <HAL_RCCEx_PeriphCLKConfig+0x464>
    switch (PeriphClkInit->Lptim2ClockSelection)
 8003ace:	f421 6080 	bic.w	r0, r1, #1024	@ 0x400
 8003ad2:	f5b0 5f80 	cmp.w	r0, #4096	@ 0x1000
 8003ad6:	f43f aea1 	beq.w	800381c <HAL_RCCEx_PeriphCLKConfig+0x4a0>
 8003ada:	f5b1 6f40 	cmp.w	r1, #3072	@ 0xc00
 8003ade:	f43f ae9d 	beq.w	800381c <HAL_RCCEx_PeriphCLKConfig+0x4a0>
 8003ae2:	2601      	movs	r6, #1
 8003ae4:	4635      	mov	r5, r6
 8003ae6:	e6a4      	b.n	8003832 <HAL_RCCEx_PeriphCLKConfig+0x4b6>
    switch (PeriphClkInit->Lptim345ClockSelection)
 8003ae8:	f421 5000 	bic.w	r0, r1, #8192	@ 0x2000
 8003aec:	f5b0 4f00 	cmp.w	r0, #32768	@ 0x8000
 8003af0:	f43f aebd 	beq.w	800386e <HAL_RCCEx_PeriphCLKConfig+0x4f2>
 8003af4:	f5b1 4fc0 	cmp.w	r1, #24576	@ 0x6000
 8003af8:	f43f aeb9 	beq.w	800386e <HAL_RCCEx_PeriphCLKConfig+0x4f2>
 8003afc:	2601      	movs	r6, #1
 8003afe:	4635      	mov	r5, r6
 8003b00:	e6c0      	b.n	8003884 <HAL_RCCEx_PeriphCLKConfig+0x508>
    switch (PeriphClkInit->RngClockSelection)
 8003b02:	2900      	cmp	r1, #0
 8003b04:	f47f af41 	bne.w	800398a <HAL_RCCEx_PeriphCLKConfig+0x60e>
    if (ret == HAL_OK)
 8003b08:	2d00      	cmp	r5, #0
 8003b0a:	f47f af3f 	bne.w	800398c <HAL_RCCEx_PeriphCLKConfig+0x610>
      __HAL_RCC_RNG_CONFIG(PeriphClkInit->RngClockSelection);
 8003b0e:	4d80      	ldr	r5, [pc, #512]	@ (8003d10 <HAL_RCCEx_PeriphCLKConfig+0x994>)
 8003b10:	6d68      	ldr	r0, [r5, #84]	@ 0x54
 8003b12:	f420 7040 	bic.w	r0, r0, #768	@ 0x300
 8003b16:	4301      	orrs	r1, r0
 8003b18:	6569      	str	r1, [r5, #84]	@ 0x54
      status = HAL_ERROR;
 8003b1a:	4635      	mov	r5, r6
 8003b1c:	e736      	b.n	800398c <HAL_RCCEx_PeriphCLKConfig+0x610>
  if (((PeriphClkInit->PeriphClockSelection) & RCC_PERIPHCLK_PLL3_DIVR) == RCC_PERIPHCLK_PLL3_DIVR)
 8003b1e:	6862      	ldr	r2, [r4, #4]
 8003b20:	0693      	lsls	r3, r2, #26
 8003b22:	d50d      	bpl.n	8003b40 <HAL_RCCEx_PeriphCLKConfig+0x7c4>
        ret = RCCEx_PLL3_Config(&(PeriphClkInit->PLL3), DIVIDER_R_UPDATE);
 8003b24:	f104 0628 	add.w	r6, r4, #40	@ 0x28
  if (__HAL_RCC_GET_PLL_OSCSOURCE() == RCC_PLLSOURCE_NONE)
 8003b28:	4b79      	ldr	r3, [pc, #484]	@ (8003d10 <HAL_RCCEx_PeriphCLKConfig+0x994>)
 8003b2a:	6a9b      	ldr	r3, [r3, #40]	@ 0x28
 8003b2c:	f003 0303 	and.w	r3, r3, #3
 8003b30:	2b03      	cmp	r3, #3
 8003b32:	d04b      	beq.n	8003bcc <HAL_RCCEx_PeriphCLKConfig+0x850>
 8003b34:	2102      	movs	r1, #2
 8003b36:	4630      	mov	r0, r6
 8003b38:	f7ff fbae 	bl	8003298 <RCCEx_PLL3_Config.part.0>
    if (ret == HAL_OK)
 8003b3c:	2800      	cmp	r0, #0
 8003b3e:	d145      	bne.n	8003bcc <HAL_RCCEx_PeriphCLKConfig+0x850>
  if (status == HAL_OK)
 8003b40:	1e28      	subs	r0, r5, #0
 8003b42:	bf18      	it	ne
 8003b44:	2001      	movne	r0, #1
}
 8003b46:	e8bd 83f8 	ldmia.w	sp!, {r3, r4, r5, r6, r7, r8, r9, pc}
 8003b4a:	2601      	movs	r6, #1
 8003b4c:	4635      	mov	r5, r6
 8003b4e:	e6fb      	b.n	8003948 <HAL_RCCEx_PeriphCLKConfig+0x5cc>
        __HAL_RCC_PLLCLKOUT_ENABLE(RCC_PLL1_DIVQ);
 8003b50:	486f      	ldr	r0, [pc, #444]	@ (8003d10 <HAL_RCCEx_PeriphCLKConfig+0x994>)
 8003b52:	6ac1      	ldr	r1, [r0, #44]	@ 0x2c
 8003b54:	f441 3100 	orr.w	r1, r1, #131072	@ 0x20000
 8003b58:	62c1      	str	r1, [r0, #44]	@ 0x2c
    if (ret == HAL_OK)
 8003b5a:	2d00      	cmp	r5, #0
 8003b5c:	f040 8149 	bne.w	8003df2 <HAL_RCCEx_PeriphCLKConfig+0xa76>
      __HAL_RCC_USB_CONFIG(PeriphClkInit->UsbClockSelection);
 8003b60:	4f6b      	ldr	r7, [pc, #428]	@ (8003d10 <HAL_RCCEx_PeriphCLKConfig+0x994>)
 8003b62:	f8d4 0084 	ldr.w	r0, [r4, #132]	@ 0x84
 8003b66:	6d79      	ldr	r1, [r7, #84]	@ 0x54
 8003b68:	f421 1140 	bic.w	r1, r1, #3145728	@ 0x300000
 8003b6c:	4301      	orrs	r1, r0
 8003b6e:	6579      	str	r1, [r7, #84]	@ 0x54
 8003b70:	e6c7      	b.n	8003902 <HAL_RCCEx_PeriphCLKConfig+0x586>
        __HAL_RCC_PLLCLKOUT_ENABLE(RCC_PLL1_DIVQ);
 8003b72:	4867      	ldr	r0, [pc, #412]	@ (8003d10 <HAL_RCCEx_PeriphCLKConfig+0x994>)
 8003b74:	6ac1      	ldr	r1, [r0, #44]	@ 0x2c
 8003b76:	f441 3100 	orr.w	r1, r1, #131072	@ 0x20000
 8003b7a:	62c1      	str	r1, [r0, #44]	@ 0x2c
    if (ret == HAL_OK)
 8003b7c:	2d00      	cmp	r5, #0
 8003b7e:	f040 8135 	bne.w	8003dec <HAL_RCCEx_PeriphCLKConfig+0xa70>
      __HAL_RCC_FDCAN_CONFIG(PeriphClkInit->FdcanClockSelection);
 8003b82:	4f63      	ldr	r7, [pc, #396]	@ (8003d10 <HAL_RCCEx_PeriphCLKConfig+0x994>)
 8003b84:	6ee0      	ldr	r0, [r4, #108]	@ 0x6c
 8003b86:	6d39      	ldr	r1, [r7, #80]	@ 0x50
 8003b88:	f021 5140 	bic.w	r1, r1, #805306368	@ 0x30000000
 8003b8c:	4301      	orrs	r1, r0
 8003b8e:	6539      	str	r1, [r7, #80]	@ 0x50
 8003b90:	e529      	b.n	80035e6 <HAL_RCCEx_PeriphCLKConfig+0x26a>
  if (__HAL_RCC_GET_PLL_OSCSOURCE() == RCC_PLLSOURCE_NONE)
 8003b92:	495f      	ldr	r1, [pc, #380]	@ (8003d10 <HAL_RCCEx_PeriphCLKConfig+0x994>)
 8003b94:	6a89      	ldr	r1, [r1, #40]	@ 0x28
 8003b96:	f001 0103 	and.w	r1, r1, #3
 8003b9a:	2903      	cmp	r1, #3
 8003b9c:	f43f ae9d 	beq.w	80038da <HAL_RCCEx_PeriphCLKConfig+0x55e>
 8003ba0:	2102      	movs	r1, #2
 8003ba2:	f104 0028 	add.w	r0, r4, #40	@ 0x28
 8003ba6:	f7ff fb77 	bl	8003298 <RCCEx_PLL3_Config.part.0>
 8003baa:	4605      	mov	r5, r0
  if (((PeriphClkInit->PeriphClockSelection) & RCC_PERIPHCLK_USB) == RCC_PERIPHCLK_USB)
 8003bac:	e9d4 3200 	ldrd	r3, r2, [r4]
    if (ret == HAL_OK)
 8003bb0:	2d00      	cmp	r5, #0
 8003bb2:	f040 814b 	bne.w	8003e4c <HAL_RCCEx_PeriphCLKConfig+0xad0>
      __HAL_RCC_ADC_CONFIG(PeriphClkInit->AdcClockSelection);
 8003bb6:	4f56      	ldr	r7, [pc, #344]	@ (8003d10 <HAL_RCCEx_PeriphCLKConfig+0x994>)
 8003bb8:	f8d4 00a0 	ldr.w	r0, [r4, #160]	@ 0xa0
 8003bbc:	6db9      	ldr	r1, [r7, #88]	@ 0x58
 8003bbe:	f421 3140 	bic.w	r1, r1, #196608	@ 0x30000
 8003bc2:	4301      	orrs	r1, r0
 8003bc4:	65b9      	str	r1, [r7, #88]	@ 0x58
 8003bc6:	e68a      	b.n	80038de <HAL_RCCEx_PeriphCLKConfig+0x562>
 8003bc8:	2601      	movs	r6, #1
 8003bca:	e407      	b.n	80033dc <HAL_RCCEx_PeriphCLKConfig+0x60>
  return HAL_ERROR;
 8003bcc:	2001      	movs	r0, #1
}
 8003bce:	e8bd 83f8 	ldmia.w	sp!, {r3, r4, r5, r6, r7, r8, r9, pc}
  if (__HAL_RCC_GET_PLL_OSCSOURCE() == RCC_PLLSOURCE_NONE)
 8003bd2:	494f      	ldr	r1, [pc, #316]	@ (8003d10 <HAL_RCCEx_PeriphCLKConfig+0x994>)
 8003bd4:	6a89      	ldr	r1, [r1, #40]	@ 0x28
 8003bd6:	f001 0103 	and.w	r1, r1, #3
 8003bda:	2903      	cmp	r1, #3
 8003bdc:	f43f ad8f 	beq.w	80036fe <HAL_RCCEx_PeriphCLKConfig+0x382>
 8003be0:	2101      	movs	r1, #1
 8003be2:	f104 0008 	add.w	r0, r4, #8
 8003be6:	f7ff fae5 	bl	80031b4 <RCCEx_PLL2_Config.part.0>
 8003bea:	4605      	mov	r5, r0
  if (((PeriphClkInit->PeriphClockSelection) & RCC_PERIPHCLK_USART234578) == RCC_PERIPHCLK_USART234578)
 8003bec:	e9d4 3200 	ldrd	r3, r2, [r4]
    if (ret == HAL_OK)
 8003bf0:	2d00      	cmp	r5, #0
 8003bf2:	f040 8130 	bne.w	8003e56 <HAL_RCCEx_PeriphCLKConfig+0xada>
      __HAL_RCC_USART16_CONFIG(PeriphClkInit->Usart16ClockSelection);
 8003bf6:	4f46      	ldr	r7, [pc, #280]	@ (8003d10 <HAL_RCCEx_PeriphCLKConfig+0x994>)
 8003bf8:	6fa0      	ldr	r0, [r4, #120]	@ 0x78
 8003bfa:	6d79      	ldr	r1, [r7, #84]	@ 0x54
 8003bfc:	f021 0138 	bic.w	r1, r1, #56	@ 0x38
 8003c00:	4301      	orrs	r1, r0
 8003c02:	6579      	str	r1, [r7, #84]	@ 0x54
 8003c04:	e57d      	b.n	8003702 <HAL_RCCEx_PeriphCLKConfig+0x386>
    SET_BIT(PWR->CR1, PWR_CR1_DBP);
 8003c06:	4f43      	ldr	r7, [pc, #268]	@ (8003d14 <HAL_RCCEx_PeriphCLKConfig+0x998>)
 8003c08:	683b      	ldr	r3, [r7, #0]
 8003c0a:	f443 7380 	orr.w	r3, r3, #256	@ 0x100
 8003c0e:	603b      	str	r3, [r7, #0]
    tickstart = HAL_GetTick();
 8003c10:	f7fd f93c 	bl	8000e8c <HAL_GetTick>
 8003c14:	4680      	mov	r8, r0
    while ((PWR->CR1 & PWR_CR1_DBP) == 0U)
 8003c16:	e006      	b.n	8003c26 <HAL_RCCEx_PeriphCLKConfig+0x8aa>
      if ((HAL_GetTick() - tickstart) > RCC_DBP_TIMEOUT_VALUE)
 8003c18:	f7fd f938 	bl	8000e8c <HAL_GetTick>
 8003c1c:	eba0 0008 	sub.w	r0, r0, r8
 8003c20:	2864      	cmp	r0, #100	@ 0x64
 8003c22:	f200 8261 	bhi.w	80040e8 <HAL_RCCEx_PeriphCLKConfig+0xd6c>
    while ((PWR->CR1 & PWR_CR1_DBP) == 0U)
 8003c26:	683b      	ldr	r3, [r7, #0]
 8003c28:	05da      	lsls	r2, r3, #23
 8003c2a:	d5f5      	bpl.n	8003c18 <HAL_RCCEx_PeriphCLKConfig+0x89c>
    if (ret == HAL_OK)
 8003c2c:	2d00      	cmp	r5, #0
 8003c2e:	f040 825c 	bne.w	80040ea <HAL_RCCEx_PeriphCLKConfig+0xd6e>
      if ((RCC->BDCR & RCC_BDCR_RTCSEL) != (PeriphClkInit->RTCClockSelection & RCC_BDCR_RTCSEL))
 8003c32:	4a37      	ldr	r2, [pc, #220]	@ (8003d10 <HAL_RCCEx_PeriphCLKConfig+0x994>)
 8003c34:	f8d4 30b0 	ldr.w	r3, [r4, #176]	@ 0xb0
 8003c38:	6f11      	ldr	r1, [r2, #112]	@ 0x70
 8003c3a:	4059      	eors	r1, r3
 8003c3c:	f411 7f40 	tst.w	r1, #768	@ 0x300
 8003c40:	d00b      	beq.n	8003c5a <HAL_RCCEx_PeriphCLKConfig+0x8de>
        tmpreg = (RCC->BDCR & ~(RCC_BDCR_RTCSEL));
 8003c42:	6f11      	ldr	r1, [r2, #112]	@ 0x70
        __HAL_RCC_BACKUPRESET_FORCE();
 8003c44:	6f10      	ldr	r0, [r2, #112]	@ 0x70
        tmpreg = (RCC->BDCR & ~(RCC_BDCR_RTCSEL));
 8003c46:	f421 7140 	bic.w	r1, r1, #768	@ 0x300
        __HAL_RCC_BACKUPRESET_FORCE();
 8003c4a:	f440 3080 	orr.w	r0, r0, #65536	@ 0x10000
 8003c4e:	6710      	str	r0, [r2, #112]	@ 0x70
        __HAL_RCC_BACKUPRESET_RELEASE();
 8003c50:	6f10      	ldr	r0, [r2, #112]	@ 0x70
 8003c52:	f420 3080 	bic.w	r0, r0, #65536	@ 0x10000
 8003c56:	6710      	str	r0, [r2, #112]	@ 0x70
        RCC->BDCR = tmpreg;
 8003c58:	6711      	str	r1, [r2, #112]	@ 0x70
      if (PeriphClkInit->RTCClockSelection == RCC_RTCCLKSOURCE_LSE)
 8003c5a:	f5b3 7f80 	cmp.w	r3, #256	@ 0x100
 8003c5e:	f000 8267 	beq.w	8004130 <HAL_RCCEx_PeriphCLKConfig+0xdb4>
        __HAL_RCC_RTC_CONFIG(PeriphClkInit->RTCClockSelection);
 8003c62:	f403 7240 	and.w	r2, r3, #768	@ 0x300
 8003c66:	f5b2 7f40 	cmp.w	r2, #768	@ 0x300
 8003c6a:	f000 8275 	beq.w	8004158 <HAL_RCCEx_PeriphCLKConfig+0xddc>
 8003c6e:	4928      	ldr	r1, [pc, #160]	@ (8003d10 <HAL_RCCEx_PeriphCLKConfig+0x994>)
 8003c70:	690a      	ldr	r2, [r1, #16]
 8003c72:	f422 527c 	bic.w	r2, r2, #16128	@ 0x3f00
 8003c76:	610a      	str	r2, [r1, #16]
 8003c78:	4825      	ldr	r0, [pc, #148]	@ (8003d10 <HAL_RCCEx_PeriphCLKConfig+0x994>)
 8003c7a:	f3c3 010b 	ubfx	r1, r3, #0, #12
 8003c7e:	6f07      	ldr	r7, [r0, #112]	@ 0x70
 8003c80:	4339      	orrs	r1, r7
  if (((PeriphClkInit->PeriphClockSelection) & RCC_PERIPHCLK_USART16) == RCC_PERIPHCLK_USART16)
 8003c82:	e9d4 3200 	ldrd	r3, r2, [r4]
        __HAL_RCC_RTC_CONFIG(PeriphClkInit->RTCClockSelection);
 8003c86:	6701      	str	r1, [r0, #112]	@ 0x70
 8003c88:	e509      	b.n	800369e <HAL_RCCEx_PeriphCLKConfig+0x322>
        __HAL_RCC_PLLCLKOUT_ENABLE(RCC_PLL1_DIVQ);
 8003c8a:	4821      	ldr	r0, [pc, #132]	@ (8003d10 <HAL_RCCEx_PeriphCLKConfig+0x994>)
 8003c8c:	6ac1      	ldr	r1, [r0, #44]	@ 0x2c
 8003c8e:	f441 3100 	orr.w	r1, r1, #131072	@ 0x20000
 8003c92:	62c1      	str	r1, [r0, #44]	@ 0x2c
    if (ret == HAL_OK)
 8003c94:	2d00      	cmp	r5, #0
 8003c96:	f040 80ae 	bne.w	8003df6 <HAL_RCCEx_PeriphCLKConfig+0xa7a>
 8003c9a:	e440      	b.n	800351e <HAL_RCCEx_PeriphCLKConfig+0x1a2>
        __HAL_RCC_PLLCLKOUT_ENABLE(RCC_PLL1_DIVQ);
 8003c9c:	481c      	ldr	r0, [pc, #112]	@ (8003d10 <HAL_RCCEx_PeriphCLKConfig+0x994>)
 8003c9e:	6ac1      	ldr	r1, [r0, #44]	@ 0x2c
 8003ca0:	f441 3100 	orr.w	r1, r1, #131072	@ 0x20000
 8003ca4:	62c1      	str	r1, [r0, #44]	@ 0x2c
        break;
 8003ca6:	4635      	mov	r5, r6
    if (ret == HAL_OK)
 8003ca8:	2d00      	cmp	r5, #0
 8003caa:	f040 81bb 	bne.w	8004024 <HAL_RCCEx_PeriphCLKConfig+0xca8>
      __HAL_RCC_SAI1_CONFIG(PeriphClkInit->Sai1ClockSelection);
 8003cae:	4f18      	ldr	r7, [pc, #96]	@ (8003d10 <HAL_RCCEx_PeriphCLKConfig+0x994>)
 8003cb0:	6da0      	ldr	r0, [r4, #88]	@ 0x58
 8003cb2:	6d39      	ldr	r1, [r7, #80]	@ 0x50
 8003cb4:	f021 0107 	bic.w	r1, r1, #7
 8003cb8:	4301      	orrs	r1, r0
 8003cba:	6539      	str	r1, [r7, #80]	@ 0x50
 8003cbc:	f7ff bb9c 	b.w	80033f8 <HAL_RCCEx_PeriphCLKConfig+0x7c>
        __HAL_RCC_PLLCLKOUT_ENABLE(RCC_PLL1_DIVQ);
 8003cc0:	4813      	ldr	r0, [pc, #76]	@ (8003d10 <HAL_RCCEx_PeriphCLKConfig+0x994>)
 8003cc2:	6ac1      	ldr	r1, [r0, #44]	@ 0x2c
 8003cc4:	f441 3100 	orr.w	r1, r1, #131072	@ 0x20000
 8003cc8:	62c1      	str	r1, [r0, #44]	@ 0x2c
    if (ret == HAL_OK)
 8003cca:	2d00      	cmp	r5, #0
 8003ccc:	f040 8099 	bne.w	8003e02 <HAL_RCCEx_PeriphCLKConfig+0xa86>
 8003cd0:	f7ff bbb5 	b.w	800343e <HAL_RCCEx_PeriphCLKConfig+0xc2>
        __HAL_RCC_PLLCLKOUT_ENABLE(RCC_PLL1_DIVQ);
 8003cd4:	480e      	ldr	r0, [pc, #56]	@ (8003d10 <HAL_RCCEx_PeriphCLKConfig+0x994>)
 8003cd6:	6ac1      	ldr	r1, [r0, #44]	@ 0x2c
 8003cd8:	f441 3100 	orr.w	r1, r1, #131072	@ 0x20000
 8003cdc:	62c1      	str	r1, [r0, #44]	@ 0x2c
    if (ret == HAL_OK)
 8003cde:	2d00      	cmp	r5, #0
 8003ce0:	f040 808c 	bne.w	8003dfc <HAL_RCCEx_PeriphCLKConfig+0xa80>
 8003ce4:	f7ff bbd6 	b.w	8003494 <HAL_RCCEx_PeriphCLKConfig+0x118>
        __HAL_RCC_PLLCLKOUT_ENABLE(RCC_PLL1_DIVQ);
 8003ce8:	4d09      	ldr	r5, [pc, #36]	@ (8003d10 <HAL_RCCEx_PeriphCLKConfig+0x994>)
 8003cea:	6ae8      	ldr	r0, [r5, #44]	@ 0x2c
 8003cec:	f440 3000 	orr.w	r0, r0, #131072	@ 0x20000
 8003cf0:	62e8      	str	r0, [r5, #44]	@ 0x2c
    if (ret == HAL_OK)
 8003cf2:	f7ff bb6c 	b.w	80033ce <HAL_RCCEx_PeriphCLKConfig+0x52>
    return HAL_ERROR;
 8003cf6:	2501      	movs	r5, #1
 8003cf8:	e6a1      	b.n	8003a3e <HAL_RCCEx_PeriphCLKConfig+0x6c2>
 8003cfa:	2501      	movs	r5, #1
 8003cfc:	e6b1      	b.n	8003a62 <HAL_RCCEx_PeriphCLKConfig+0x6e6>
    return HAL_ERROR;
 8003cfe:	2501      	movs	r5, #1
 8003d00:	e6c1      	b.n	8003a86 <HAL_RCCEx_PeriphCLKConfig+0x70a>
  if (((PeriphClkInit->PeriphClockSelection) & RCC_PERIPHCLK_PLL3_DIVR) == RCC_PERIPHCLK_PLL3_DIVR)
 8003d02:	0691      	lsls	r1, r2, #26
 8003d04:	f57f af62 	bpl.w	8003bcc <HAL_RCCEx_PeriphCLKConfig+0x850>
    return HAL_ERROR;
 8003d08:	2501      	movs	r5, #1
 8003d0a:	e70d      	b.n	8003b28 <HAL_RCCEx_PeriphCLKConfig+0x7ac>
    return HAL_ERROR;
 8003d0c:	2501      	movs	r5, #1
 8003d0e:	e680      	b.n	8003a12 <HAL_RCCEx_PeriphCLKConfig+0x696>
 8003d10:	58024400 	.word	0x58024400
 8003d14:	58024800 	.word	0x58024800
  if (__HAL_RCC_GET_PLL_OSCSOURCE() == RCC_PLLSOURCE_NONE)
 8003d18:	49c4      	ldr	r1, [pc, #784]	@ (800402c <HAL_RCCEx_PeriphCLKConfig+0xcb0>)
 8003d1a:	6a89      	ldr	r1, [r1, #40]	@ 0x28
 8003d1c:	f001 0103 	and.w	r1, r1, #3
 8003d20:	2903      	cmp	r1, #3
 8003d22:	f000 81ef 	beq.w	8004104 <HAL_RCCEx_PeriphCLKConfig+0xd88>
 8003d26:	2102      	movs	r1, #2
 8003d28:	f104 0028 	add.w	r0, r4, #40	@ 0x28
 8003d2c:	f7ff fab4 	bl	8003298 <RCCEx_PLL3_Config.part.0>
      if (RCCEx_PLL3_Config(&(PeriphClkInit->PLL3), DIVIDER_R_UPDATE) != HAL_OK)
 8003d30:	2800      	cmp	r0, #0
 8003d32:	f000 81f3 	beq.w	800411c <HAL_RCCEx_PeriphCLKConfig+0xda0>
    __HAL_RCC_I2C1235_CONFIG(PeriphClkInit->I2c1235ClockSelection);
 8003d36:	f8d4 0080 	ldr.w	r0, [r4, #128]	@ 0x80
        status = HAL_ERROR;
 8003d3a:	2601      	movs	r6, #1
  if (((PeriphClkInit->PeriphClockSelection) & RCC_PERIPHCLK_I2C4) == RCC_PERIPHCLK_I2C4)
 8003d3c:	e9d4 3200 	ldrd	r3, r2, [r4]
 8003d40:	e5a8      	b.n	8003894 <HAL_RCCEx_PeriphCLKConfig+0x518>
  if (__HAL_RCC_GET_PLL_OSCSOURCE() == RCC_PLLSOURCE_NONE)
 8003d42:	49ba      	ldr	r1, [pc, #744]	@ (800402c <HAL_RCCEx_PeriphCLKConfig+0xcb0>)
 8003d44:	6a89      	ldr	r1, [r1, #40]	@ 0x28
 8003d46:	f001 0103 	and.w	r1, r1, #3
 8003d4a:	2903      	cmp	r1, #3
 8003d4c:	f000 81dd 	beq.w	800410a <HAL_RCCEx_PeriphCLKConfig+0xd8e>
 8003d50:	2102      	movs	r1, #2
 8003d52:	f104 0028 	add.w	r0, r4, #40	@ 0x28
 8003d56:	f7ff fa9f 	bl	8003298 <RCCEx_PLL3_Config.part.0>
      if (RCCEx_PLL3_Config(&(PeriphClkInit->PLL3), DIVIDER_R_UPDATE) != HAL_OK)
 8003d5a:	2800      	cmp	r0, #0
 8003d5c:	f000 81d8 	beq.w	8004110 <HAL_RCCEx_PeriphCLKConfig+0xd94>
    __HAL_RCC_I2C4_CONFIG(PeriphClkInit->I2c4ClockSelection);
 8003d60:	f8d4 0094 	ldr.w	r0, [r4, #148]	@ 0x94
        status = HAL_ERROR;
 8003d64:	2601      	movs	r6, #1
  if (((PeriphClkInit->PeriphClockSelection) & RCC_PERIPHCLK_ADC) == RCC_PERIPHCLK_ADC)
 8003d66:	e9d4 3200 	ldrd	r3, r2, [r4]
 8003d6a:	e5a1      	b.n	80038b0 <HAL_RCCEx_PeriphCLKConfig+0x534>
        __HAL_RCC_PLLCLKOUT_ENABLE(RCC_PLL1_DIVQ);
 8003d6c:	48af      	ldr	r0, [pc, #700]	@ (800402c <HAL_RCCEx_PeriphCLKConfig+0xcb0>)
 8003d6e:	6ac1      	ldr	r1, [r0, #44]	@ 0x2c
 8003d70:	f441 3100 	orr.w	r1, r1, #131072	@ 0x20000
 8003d74:	62c1      	str	r1, [r0, #44]	@ 0x2c
    if (ret == HAL_OK)
 8003d76:	2d00      	cmp	r5, #0
 8003d78:	f43f addf 	beq.w	800393a <HAL_RCCEx_PeriphCLKConfig+0x5be>
 8003d7c:	462e      	mov	r6, r5
 8003d7e:	e5e3      	b.n	8003948 <HAL_RCCEx_PeriphCLKConfig+0x5cc>
        __HAL_RCC_PLLCLKOUT_ENABLE(RCC_PLL1_DIVQ);
 8003d80:	4faa      	ldr	r7, [pc, #680]	@ (800402c <HAL_RCCEx_PeriphCLKConfig+0xcb0>)
 8003d82:	6af8      	ldr	r0, [r7, #44]	@ 0x2c
 8003d84:	f440 3000 	orr.w	r0, r0, #131072	@ 0x20000
 8003d88:	62f8      	str	r0, [r7, #44]	@ 0x2c
    if (ret == HAL_OK)
 8003d8a:	2d00      	cmp	r5, #0
 8003d8c:	f47f adfe 	bne.w	800398c <HAL_RCCEx_PeriphCLKConfig+0x610>
 8003d90:	e6bd      	b.n	8003b0e <HAL_RCCEx_PeriphCLKConfig+0x792>
  if (__HAL_RCC_GET_PLL_OSCSOURCE() == RCC_PLLSOURCE_NONE)
 8003d92:	49a6      	ldr	r1, [pc, #664]	@ (800402c <HAL_RCCEx_PeriphCLKConfig+0xcb0>)
 8003d94:	6a89      	ldr	r1, [r1, #40]	@ 0x28
 8003d96:	f001 0103 	and.w	r1, r1, #3
 8003d9a:	2903      	cmp	r1, #3
 8003d9c:	f43f ac21 	beq.w	80035e2 <HAL_RCCEx_PeriphCLKConfig+0x266>
 8003da0:	2101      	movs	r1, #1
 8003da2:	f104 0008 	add.w	r0, r4, #8
 8003da6:	f7ff fa05 	bl	80031b4 <RCCEx_PLL2_Config.part.0>
 8003daa:	4605      	mov	r5, r0
  if (((PeriphClkInit->PeriphClockSelection) & RCC_PERIPHCLK_FMC) == RCC_PERIPHCLK_FMC)
 8003dac:	e9d4 3200 	ldrd	r3, r2, [r4]
    if (ret == HAL_OK)
 8003db0:	b9e5      	cbnz	r5, 8003dec <HAL_RCCEx_PeriphCLKConfig+0xa70>
 8003db2:	e6e6      	b.n	8003b82 <HAL_RCCEx_PeriphCLKConfig+0x806>
  if (__HAL_RCC_GET_PLL_OSCSOURCE() == RCC_PLLSOURCE_NONE)
 8003db4:	489d      	ldr	r0, [pc, #628]	@ (800402c <HAL_RCCEx_PeriphCLKConfig+0xcb0>)
 8003db6:	6a80      	ldr	r0, [r0, #40]	@ 0x28
 8003db8:	f000 0003 	and.w	r0, r0, #3
 8003dbc:	2803      	cmp	r0, #3
 8003dbe:	f43f ad8c 	beq.w	80038da <HAL_RCCEx_PeriphCLKConfig+0x55e>
 8003dc2:	f104 0008 	add.w	r0, r4, #8
 8003dc6:	f7ff f9f5 	bl	80031b4 <RCCEx_PLL2_Config.part.0>
 8003dca:	4605      	mov	r5, r0
  if (((PeriphClkInit->PeriphClockSelection) & RCC_PERIPHCLK_USB) == RCC_PERIPHCLK_USB)
 8003dcc:	e9d4 3200 	ldrd	r3, r2, [r4]
    if (ret == HAL_OK)
 8003dd0:	2d00      	cmp	r5, #0
 8003dd2:	d13b      	bne.n	8003e4c <HAL_RCCEx_PeriphCLKConfig+0xad0>
 8003dd4:	e6ef      	b.n	8003bb6 <HAL_RCCEx_PeriphCLKConfig+0x83a>
 8003dd6:	462e      	mov	r6, r5
 8003dd8:	f7ff bb7f 	b.w	80034da <HAL_RCCEx_PeriphCLKConfig+0x15e>
      __HAL_RCC_FMC_CONFIG(PeriphClkInit->FmcClockSelection);
 8003ddc:	4f93      	ldr	r7, [pc, #588]	@ (800402c <HAL_RCCEx_PeriphCLKConfig+0xcb0>)
 8003dde:	6ca0      	ldr	r0, [r4, #72]	@ 0x48
 8003de0:	6cf9      	ldr	r1, [r7, #76]	@ 0x4c
 8003de2:	f021 0103 	bic.w	r1, r1, #3
 8003de6:	4301      	orrs	r1, r0
 8003de8:	64f9      	str	r1, [r7, #76]	@ 0x4c
 8003dea:	e455      	b.n	8003698 <HAL_RCCEx_PeriphCLKConfig+0x31c>
 8003dec:	462e      	mov	r6, r5
 8003dee:	f7ff bbfa 	b.w	80035e6 <HAL_RCCEx_PeriphCLKConfig+0x26a>
 8003df2:	462e      	mov	r6, r5
 8003df4:	e585      	b.n	8003902 <HAL_RCCEx_PeriphCLKConfig+0x586>
 8003df6:	462e      	mov	r6, r5
 8003df8:	f7ff bb98 	b.w	800352c <HAL_RCCEx_PeriphCLKConfig+0x1b0>
 8003dfc:	462e      	mov	r6, r5
 8003dfe:	f7ff bb51 	b.w	80034a4 <HAL_RCCEx_PeriphCLKConfig+0x128>
 8003e02:	462e      	mov	r6, r5
 8003e04:	f7ff bb23 	b.w	800344e <HAL_RCCEx_PeriphCLKConfig+0xd2>
  if (((PeriphClkInit->PeriphClockSelection) & RCC_PERIPHCLK_PLL2_DIVR) == RCC_PERIPHCLK_PLL2_DIVR)
 8003e08:	4605      	mov	r5, r0
 8003e0a:	e618      	b.n	8003a3e <HAL_RCCEx_PeriphCLKConfig+0x6c2>
  if (((PeriphClkInit->PeriphClockSelection) & RCC_PERIPHCLK_PLL3_DIVQ) == RCC_PERIPHCLK_PLL3_DIVQ)
 8003e0c:	4605      	mov	r5, r0
 8003e0e:	e63a      	b.n	8003a86 <HAL_RCCEx_PeriphCLKConfig+0x70a>
  if (((PeriphClkInit->PeriphClockSelection) & RCC_PERIPHCLK_PLL2_DIVQ) == RCC_PERIPHCLK_PLL2_DIVQ)
 8003e10:	4605      	mov	r5, r0
 8003e12:	e5fe      	b.n	8003a12 <HAL_RCCEx_PeriphCLKConfig+0x696>
  if (((PeriphClkInit->PeriphClockSelection) & RCC_PERIPHCLK_PLL3_DIVP) == RCC_PERIPHCLK_PLL3_DIVP)
 8003e14:	4605      	mov	r5, r0
 8003e16:	e624      	b.n	8003a62 <HAL_RCCEx_PeriphCLKConfig+0x6e6>
 8003e18:	462e      	mov	r6, r5
 8003e1a:	e50a      	b.n	8003832 <HAL_RCCEx_PeriphCLKConfig+0x4b6>
 8003e1c:	462e      	mov	r6, r5
 8003e1e:	e4df      	b.n	80037e0 <HAL_RCCEx_PeriphCLKConfig+0x464>
 8003e20:	462e      	mov	r6, r5
 8003e22:	e52f      	b.n	8003884 <HAL_RCCEx_PeriphCLKConfig+0x508>
 8003e24:	462e      	mov	r6, r5
 8003e26:	f7ff bba8 	b.w	800357a <HAL_RCCEx_PeriphCLKConfig+0x1fe>
      __HAL_RCC_USART234578_CONFIG(PeriphClkInit->Usart234578ClockSelection);
 8003e2a:	4f80      	ldr	r7, [pc, #512]	@ (800402c <HAL_RCCEx_PeriphCLKConfig+0xcb0>)
 8003e2c:	6f60      	ldr	r0, [r4, #116]	@ 0x74
 8003e2e:	6d79      	ldr	r1, [r7, #84]	@ 0x54
 8003e30:	f021 0107 	bic.w	r1, r1, #7
 8003e34:	4301      	orrs	r1, r0
 8003e36:	6579      	str	r1, [r7, #84]	@ 0x54
 8003e38:	e484      	b.n	8003744 <HAL_RCCEx_PeriphCLKConfig+0x3c8>
      __HAL_RCC_LPUART1_CONFIG(PeriphClkInit->Lpuart1ClockSelection);
 8003e3a:	4f7c      	ldr	r7, [pc, #496]	@ (800402c <HAL_RCCEx_PeriphCLKConfig+0xcb0>)
 8003e3c:	f8d4 0090 	ldr.w	r0, [r4, #144]	@ 0x90
 8003e40:	6db9      	ldr	r1, [r7, #88]	@ 0x58
 8003e42:	f021 0107 	bic.w	r1, r1, #7
 8003e46:	4301      	orrs	r1, r0
 8003e48:	65b9      	str	r1, [r7, #88]	@ 0x58
 8003e4a:	e4a0      	b.n	800378e <HAL_RCCEx_PeriphCLKConfig+0x412>
 8003e4c:	462e      	mov	r6, r5
 8003e4e:	e546      	b.n	80038de <HAL_RCCEx_PeriphCLKConfig+0x562>
 8003e50:	462e      	mov	r6, r5
 8003e52:	f7ff bbb8 	b.w	80035c6 <HAL_RCCEx_PeriphCLKConfig+0x24a>
 8003e56:	462e      	mov	r6, r5
 8003e58:	e453      	b.n	8003702 <HAL_RCCEx_PeriphCLKConfig+0x386>
  if (__HAL_RCC_GET_PLL_OSCSOURCE() == RCC_PLLSOURCE_NONE)
 8003e5a:	4974      	ldr	r1, [pc, #464]	@ (800402c <HAL_RCCEx_PeriphCLKConfig+0xcb0>)
 8003e5c:	6a89      	ldr	r1, [r1, #40]	@ 0x28
 8003e5e:	f001 0103 	and.w	r1, r1, #3
 8003e62:	2903      	cmp	r1, #3
 8003e64:	f000 8160 	beq.w	8004128 <HAL_RCCEx_PeriphCLKConfig+0xdac>
 8003e68:	2102      	movs	r1, #2
 8003e6a:	f104 0008 	add.w	r0, r4, #8
 8003e6e:	f7ff f9a1 	bl	80031b4 <RCCEx_PLL2_Config.part.0>
 8003e72:	4605      	mov	r5, r0
  if (((PeriphClkInit->PeriphClockSelection) & RCC_PERIPHCLK_RTC) == RCC_PERIPHCLK_RTC)
 8003e74:	e9d4 3200 	ldrd	r3, r2, [r4]
    if (ret == HAL_OK)
 8003e78:	2d00      	cmp	r5, #0
 8003e7a:	f47f ac0c 	bne.w	8003696 <HAL_RCCEx_PeriphCLKConfig+0x31a>
 8003e7e:	e7ad      	b.n	8003ddc <HAL_RCCEx_PeriphCLKConfig+0xa60>
  if (__HAL_RCC_GET_PLL_OSCSOURCE() == RCC_PLLSOURCE_NONE)
 8003e80:	496a      	ldr	r1, [pc, #424]	@ (800402c <HAL_RCCEx_PeriphCLKConfig+0xcb0>)
 8003e82:	6a89      	ldr	r1, [r1, #40]	@ 0x28
 8003e84:	f001 0103 	and.w	r1, r1, #3
 8003e88:	2903      	cmp	r1, #3
 8003e8a:	f43f ad38 	beq.w	80038fe <HAL_RCCEx_PeriphCLKConfig+0x582>
 8003e8e:	2101      	movs	r1, #1
 8003e90:	f104 0028 	add.w	r0, r4, #40	@ 0x28
 8003e94:	f7ff fa00 	bl	8003298 <RCCEx_PLL3_Config.part.0>
 8003e98:	4605      	mov	r5, r0
  if (((PeriphClkInit->PeriphClockSelection) & RCC_PERIPHCLK_SDMMC) == RCC_PERIPHCLK_SDMMC)
 8003e9a:	e9d4 3200 	ldrd	r3, r2, [r4]
    if (ret == HAL_OK)
 8003e9e:	2d00      	cmp	r5, #0
 8003ea0:	d1a7      	bne.n	8003df2 <HAL_RCCEx_PeriphCLKConfig+0xa76>
 8003ea2:	e65d      	b.n	8003b60 <HAL_RCCEx_PeriphCLKConfig+0x7e4>
  if (__HAL_RCC_GET_PLL_OSCSOURCE() == RCC_PLLSOURCE_NONE)
 8003ea4:	4961      	ldr	r1, [pc, #388]	@ (800402c <HAL_RCCEx_PeriphCLKConfig+0xcb0>)
 8003ea6:	6a89      	ldr	r1, [r1, #40]	@ 0x28
 8003ea8:	f001 0103 	and.w	r1, r1, #3
 8003eac:	2903      	cmp	r1, #3
 8003eae:	f43f ae0b 	beq.w	8003ac8 <HAL_RCCEx_PeriphCLKConfig+0x74c>
 8003eb2:	2102      	movs	r1, #2
 8003eb4:	f104 0028 	add.w	r0, r4, #40	@ 0x28
 8003eb8:	f7ff f9ee 	bl	8003298 <RCCEx_PLL3_Config.part.0>
 8003ebc:	4605      	mov	r5, r0
  if (((PeriphClkInit->PeriphClockSelection) & RCC_PERIPHCLK_LPTIM2) == RCC_PERIPHCLK_LPTIM2)
 8003ebe:	e9d4 3200 	ldrd	r3, r2, [r4]
    if (ret == HAL_OK)
 8003ec2:	2d00      	cmp	r5, #0
 8003ec4:	d1aa      	bne.n	8003e1c <HAL_RCCEx_PeriphCLKConfig+0xaa0>
 8003ec6:	e483      	b.n	80037d0 <HAL_RCCEx_PeriphCLKConfig+0x454>
  if (__HAL_RCC_GET_PLL_OSCSOURCE() == RCC_PLLSOURCE_NONE)
 8003ec8:	4958      	ldr	r1, [pc, #352]	@ (800402c <HAL_RCCEx_PeriphCLKConfig+0xcb0>)
 8003eca:	6a89      	ldr	r1, [r1, #40]	@ 0x28
 8003ecc:	f001 0103 	and.w	r1, r1, #3
 8003ed0:	2903      	cmp	r1, #3
 8003ed2:	f43f ae06 	beq.w	8003ae2 <HAL_RCCEx_PeriphCLKConfig+0x766>
 8003ed6:	2102      	movs	r1, #2
 8003ed8:	f104 0028 	add.w	r0, r4, #40	@ 0x28
 8003edc:	f7ff f9dc 	bl	8003298 <RCCEx_PLL3_Config.part.0>
 8003ee0:	4605      	mov	r5, r0
  if (((PeriphClkInit->PeriphClockSelection) & RCC_PERIPHCLK_LPTIM345) == RCC_PERIPHCLK_LPTIM345)
 8003ee2:	e9d4 3200 	ldrd	r3, r2, [r4]
    if (ret == HAL_OK)
 8003ee6:	2d00      	cmp	r5, #0
 8003ee8:	d196      	bne.n	8003e18 <HAL_RCCEx_PeriphCLKConfig+0xa9c>
 8003eea:	e49a      	b.n	8003822 <HAL_RCCEx_PeriphCLKConfig+0x4a6>
  if (__HAL_RCC_GET_PLL_OSCSOURCE() == RCC_PLLSOURCE_NONE)
 8003eec:	494f      	ldr	r1, [pc, #316]	@ (800402c <HAL_RCCEx_PeriphCLKConfig+0xcb0>)
 8003eee:	6a89      	ldr	r1, [r1, #40]	@ 0x28
 8003ef0:	f001 0103 	and.w	r1, r1, #3
 8003ef4:	2903      	cmp	r1, #3
 8003ef6:	f43f ae01 	beq.w	8003afc <HAL_RCCEx_PeriphCLKConfig+0x780>
 8003efa:	2102      	movs	r1, #2
 8003efc:	f104 0028 	add.w	r0, r4, #40	@ 0x28
 8003f00:	f7ff f9ca 	bl	8003298 <RCCEx_PLL3_Config.part.0>
 8003f04:	4605      	mov	r5, r0
  if (((PeriphClkInit->PeriphClockSelection) & RCC_PERIPHCLK_I2C1235) == RCC_PERIPHCLK_I2C1235)
 8003f06:	e9d4 3200 	ldrd	r3, r2, [r4]
    if (ret == HAL_OK)
 8003f0a:	2d00      	cmp	r5, #0
 8003f0c:	d188      	bne.n	8003e20 <HAL_RCCEx_PeriphCLKConfig+0xaa4>
 8003f0e:	e4b1      	b.n	8003874 <HAL_RCCEx_PeriphCLKConfig+0x4f8>
  if (__HAL_RCC_GET_PLL_OSCSOURCE() == RCC_PLLSOURCE_NONE)
 8003f10:	4946      	ldr	r1, [pc, #280]	@ (800402c <HAL_RCCEx_PeriphCLKConfig+0xcb0>)
 8003f12:	6a89      	ldr	r1, [r1, #40]	@ 0x28
 8003f14:	f001 0103 	and.w	r1, r1, #3
 8003f18:	2903      	cmp	r1, #3
 8003f1a:	f43f ab8d 	beq.w	8003638 <HAL_RCCEx_PeriphCLKConfig+0x2bc>
 8003f1e:	2102      	movs	r1, #2
 8003f20:	f104 0008 	add.w	r0, r4, #8
 8003f24:	f7ff f946 	bl	80031b4 <RCCEx_PLL2_Config.part.0>
 8003f28:	4605      	mov	r5, r0
  if (((PeriphClkInit->PeriphClockSelection) & RCC_PERIPHCLK_SPI123) == RCC_PERIPHCLK_SPI123)
 8003f2a:	e9d4 3200 	ldrd	r3, r2, [r4]
    if (ret == HAL_OK)
 8003f2e:	2d00      	cmp	r5, #0
 8003f30:	f47f af51 	bne.w	8003dd6 <HAL_RCCEx_PeriphCLKConfig+0xa5a>
 8003f34:	f7ff baca 	b.w	80034cc <HAL_RCCEx_PeriphCLKConfig+0x150>
  if (__HAL_RCC_GET_PLL_OSCSOURCE() == RCC_PLLSOURCE_NONE)
 8003f38:	493c      	ldr	r1, [pc, #240]	@ (800402c <HAL_RCCEx_PeriphCLKConfig+0xcb0>)
 8003f3a:	6a89      	ldr	r1, [r1, #40]	@ 0x28
 8003f3c:	f001 0103 	and.w	r1, r1, #3
 8003f40:	2903      	cmp	r1, #3
 8003f42:	f43f ab9d 	beq.w	8003680 <HAL_RCCEx_PeriphCLKConfig+0x304>
 8003f46:	2101      	movs	r1, #1
 8003f48:	f104 0028 	add.w	r0, r4, #40	@ 0x28
 8003f4c:	f7ff f9a4 	bl	8003298 <RCCEx_PLL3_Config.part.0>
 8003f50:	4605      	mov	r5, r0
  if (((PeriphClkInit->PeriphClockSelection) & RCC_PERIPHCLK_FDCAN) == RCC_PERIPHCLK_FDCAN)
 8003f52:	e9d4 3200 	ldrd	r3, r2, [r4]
    if (ret == HAL_OK)
 8003f56:	2d00      	cmp	r5, #0
 8003f58:	f47f af7a 	bne.w	8003e50 <HAL_RCCEx_PeriphCLKConfig+0xad4>
 8003f5c:	f7ff bb2b 	b.w	80035b6 <HAL_RCCEx_PeriphCLKConfig+0x23a>
  if (__HAL_RCC_GET_PLL_OSCSOURCE() == RCC_PLLSOURCE_NONE)
 8003f60:	4932      	ldr	r1, [pc, #200]	@ (800402c <HAL_RCCEx_PeriphCLKConfig+0xcb0>)
 8003f62:	6a89      	ldr	r1, [r1, #40]	@ 0x28
 8003f64:	f001 0103 	and.w	r1, r1, #3
 8003f68:	2903      	cmp	r1, #3
 8003f6a:	f43f ab7b 	beq.w	8003664 <HAL_RCCEx_PeriphCLKConfig+0x2e8>
 8003f6e:	2101      	movs	r1, #1
 8003f70:	f104 0028 	add.w	r0, r4, #40	@ 0x28
 8003f74:	f7ff f990 	bl	8003298 <RCCEx_PLL3_Config.part.0>
 8003f78:	4605      	mov	r5, r0
  if (((PeriphClkInit->PeriphClockSelection) & RCC_PERIPHCLK_SPI6) == RCC_PERIPHCLK_SPI6)
 8003f7a:	e9d4 3200 	ldrd	r3, r2, [r4]
    if (ret == HAL_OK)
 8003f7e:	2d00      	cmp	r5, #0
 8003f80:	f47f af50 	bne.w	8003e24 <HAL_RCCEx_PeriphCLKConfig+0xaa8>
 8003f84:	f7ff baf2 	b.w	800356c <HAL_RCCEx_PeriphCLKConfig+0x1f0>
  if (__HAL_RCC_GET_PLL_OSCSOURCE() == RCC_PLLSOURCE_NONE)
 8003f88:	4928      	ldr	r1, [pc, #160]	@ (800402c <HAL_RCCEx_PeriphCLKConfig+0xcb0>)
 8003f8a:	6a89      	ldr	r1, [r1, #40]	@ 0x28
 8003f8c:	f001 0103 	and.w	r1, r1, #3
 8003f90:	2903      	cmp	r1, #3
 8003f92:	f43f ab5c 	beq.w	800364e <HAL_RCCEx_PeriphCLKConfig+0x2d2>
 8003f96:	2100      	movs	r1, #0
 8003f98:	f104 0028 	add.w	r0, r4, #40	@ 0x28
 8003f9c:	f7ff f97c 	bl	8003298 <RCCEx_PLL3_Config.part.0>
 8003fa0:	4605      	mov	r5, r0
  if (((PeriphClkInit->PeriphClockSelection) & RCC_PERIPHCLK_SPI45) == RCC_PERIPHCLK_SPI45)
 8003fa2:	e9d4 3200 	ldrd	r3, r2, [r4]
    if (ret == HAL_OK)
 8003fa6:	2d00      	cmp	r5, #0
 8003fa8:	f47f af25 	bne.w	8003df6 <HAL_RCCEx_PeriphCLKConfig+0xa7a>
 8003fac:	f7ff bab7 	b.w	800351e <HAL_RCCEx_PeriphCLKConfig+0x1a2>
  if (__HAL_RCC_GET_PLL_OSCSOURCE() == RCC_PLLSOURCE_NONE)
 8003fb0:	491e      	ldr	r1, [pc, #120]	@ (800402c <HAL_RCCEx_PeriphCLKConfig+0xcb0>)
 8003fb2:	6a89      	ldr	r1, [r1, #40]	@ 0x28
 8003fb4:	f001 0103 	and.w	r1, r1, #3
 8003fb8:	2903      	cmp	r1, #3
 8003fba:	f43f ab37 	beq.w	800362c <HAL_RCCEx_PeriphCLKConfig+0x2b0>
 8003fbe:	2100      	movs	r1, #0
 8003fc0:	f104 0028 	add.w	r0, r4, #40	@ 0x28
 8003fc4:	f7ff f968 	bl	8003298 <RCCEx_PLL3_Config.part.0>
 8003fc8:	4605      	mov	r5, r0
  if (((PeriphClkInit->PeriphClockSelection) & RCC_PERIPHCLK_OSPI) == RCC_PERIPHCLK_OSPI)
 8003fca:	e9d4 3200 	ldrd	r3, r2, [r4]
    if (ret == HAL_OK)
 8003fce:	2d00      	cmp	r5, #0
 8003fd0:	f47f af14 	bne.w	8003dfc <HAL_RCCEx_PeriphCLKConfig+0xa80>
 8003fd4:	f7ff ba5e 	b.w	8003494 <HAL_RCCEx_PeriphCLKConfig+0x118>
  if (__HAL_RCC_GET_PLL_OSCSOURCE() == RCC_PLLSOURCE_NONE)
 8003fd8:	4914      	ldr	r1, [pc, #80]	@ (800402c <HAL_RCCEx_PeriphCLKConfig+0xcb0>)
 8003fda:	6a89      	ldr	r1, [r1, #40]	@ 0x28
 8003fdc:	f001 0103 	and.w	r1, r1, #3
 8003fe0:	2903      	cmp	r1, #3
 8003fe2:	f43f ab16 	beq.w	8003612 <HAL_RCCEx_PeriphCLKConfig+0x296>
 8003fe6:	2100      	movs	r1, #0
 8003fe8:	f104 0028 	add.w	r0, r4, #40	@ 0x28
 8003fec:	f7ff f954 	bl	8003298 <RCCEx_PLL3_Config.part.0>
 8003ff0:	4605      	mov	r5, r0
  if (((PeriphClkInit->PeriphClockSelection) & RCC_PERIPHCLK_SAI4B) == RCC_PERIPHCLK_SAI4B)
 8003ff2:	e9d4 3200 	ldrd	r3, r2, [r4]
    if (ret == HAL_OK)
 8003ff6:	2d00      	cmp	r5, #0
 8003ff8:	f47f af03 	bne.w	8003e02 <HAL_RCCEx_PeriphCLKConfig+0xa86>
 8003ffc:	f7ff ba1f 	b.w	800343e <HAL_RCCEx_PeriphCLKConfig+0xc2>
  if (__HAL_RCC_GET_PLL_OSCSOURCE() == RCC_PLLSOURCE_NONE)
 8004000:	490a      	ldr	r1, [pc, #40]	@ (800402c <HAL_RCCEx_PeriphCLKConfig+0xcb0>)
 8004002:	6a89      	ldr	r1, [r1, #40]	@ 0x28
 8004004:	f001 0103 	and.w	r1, r1, #3
 8004008:	2903      	cmp	r1, #3
 800400a:	f43f a9f3 	beq.w	80033f4 <HAL_RCCEx_PeriphCLKConfig+0x78>
 800400e:	2100      	movs	r1, #0
 8004010:	f104 0008 	add.w	r0, r4, #8
 8004014:	f7ff f8ce 	bl	80031b4 <RCCEx_PLL2_Config.part.0>
 8004018:	4605      	mov	r5, r0
  if (((PeriphClkInit->PeriphClockSelection) & RCC_PERIPHCLK_SAI4A) == RCC_PERIPHCLK_SAI4A)
 800401a:	e9d4 3200 	ldrd	r3, r2, [r4]
    if (ret == HAL_OK)
 800401e:	2d00      	cmp	r5, #0
 8004020:	f43f ae45 	beq.w	8003cae <HAL_RCCEx_PeriphCLKConfig+0x932>
 8004024:	462e      	mov	r6, r5
 8004026:	f7ff b9e7 	b.w	80033f8 <HAL_RCCEx_PeriphCLKConfig+0x7c>
 800402a:	bf00      	nop
 800402c:	58024400 	.word	0x58024400
  if (__HAL_RCC_GET_PLL_OSCSOURCE() == RCC_PLLSOURCE_NONE)
 8004030:	4951      	ldr	r1, [pc, #324]	@ (8004178 <HAL_RCCEx_PeriphCLKConfig+0xdfc>)
 8004032:	6a89      	ldr	r1, [r1, #40]	@ 0x28
 8004034:	f001 0103 	and.w	r1, r1, #3
 8004038:	2903      	cmp	r1, #3
 800403a:	f43f a9db 	beq.w	80033f4 <HAL_RCCEx_PeriphCLKConfig+0x78>
 800403e:	2100      	movs	r1, #0
 8004040:	f104 0028 	add.w	r0, r4, #40	@ 0x28
 8004044:	f7ff f928 	bl	8003298 <RCCEx_PLL3_Config.part.0>
 8004048:	4605      	mov	r5, r0
  if (((PeriphClkInit->PeriphClockSelection) & RCC_PERIPHCLK_SAI4A) == RCC_PERIPHCLK_SAI4A)
 800404a:	e9d4 3200 	ldrd	r3, r2, [r4]
        break;
 800404e:	e62b      	b.n	8003ca8 <HAL_RCCEx_PeriphCLKConfig+0x92c>
  if (__HAL_RCC_GET_PLL_OSCSOURCE() == RCC_PLLSOURCE_NONE)
 8004050:	4949      	ldr	r1, [pc, #292]	@ (8004178 <HAL_RCCEx_PeriphCLKConfig+0xdfc>)
 8004052:	6a89      	ldr	r1, [r1, #40]	@ 0x28
 8004054:	f001 0103 	and.w	r1, r1, #3
 8004058:	2903      	cmp	r1, #3
 800405a:	f43f adb5 	beq.w	8003bc8 <HAL_RCCEx_PeriphCLKConfig+0x84c>
 800405e:	2102      	movs	r1, #2
 8004060:	f104 0028 	add.w	r0, r4, #40	@ 0x28
 8004064:	f7ff f918 	bl	8003298 <RCCEx_PLL3_Config.part.0>
 8004068:	4606      	mov	r6, r0
  if (((PeriphClkInit->PeriphClockSelection) & RCC_PERIPHCLK_SAI1) == RCC_PERIPHCLK_SAI1)
 800406a:	e9d4 3200 	ldrd	r3, r2, [r4]
    if (ret == HAL_OK)
 800406e:	2e00      	cmp	r6, #0
 8004070:	f47f a9b4 	bne.w	80033dc <HAL_RCCEx_PeriphCLKConfig+0x60>
      __HAL_RCC_SPDIFRX_CONFIG(PeriphClkInit->SpdifrxClockSelection);
 8004074:	6e61      	ldr	r1, [r4, #100]	@ 0x64
 8004076:	f7ff b9aa 	b.w	80033ce <HAL_RCCEx_PeriphCLKConfig+0x52>
  if (__HAL_RCC_GET_PLL_OSCSOURCE() == RCC_PLLSOURCE_NONE)
 800407a:	493f      	ldr	r1, [pc, #252]	@ (8004178 <HAL_RCCEx_PeriphCLKConfig+0xdfc>)
 800407c:	6a89      	ldr	r1, [r1, #40]	@ 0x28
 800407e:	f001 0103 	and.w	r1, r1, #3
 8004082:	2903      	cmp	r1, #3
 8004084:	d03a      	beq.n	80040fc <HAL_RCCEx_PeriphCLKConfig+0xd80>
 8004086:	2101      	movs	r1, #1
 8004088:	f104 0028 	add.w	r0, r4, #40	@ 0x28
 800408c:	f7ff f904 	bl	8003298 <RCCEx_PLL3_Config.part.0>
 8004090:	4605      	mov	r5, r0
  if (((PeriphClkInit->PeriphClockSelection) & RCC_PERIPHCLK_LPTIM1) == RCC_PERIPHCLK_LPTIM1)
 8004092:	e9d4 3200 	ldrd	r3, r2, [r4]
    if (ret == HAL_OK)
 8004096:	2d00      	cmp	r5, #0
 8004098:	f47f ab78 	bne.w	800378c <HAL_RCCEx_PeriphCLKConfig+0x410>
 800409c:	e6cd      	b.n	8003e3a <HAL_RCCEx_PeriphCLKConfig+0xabe>
  if (__HAL_RCC_GET_PLL_OSCSOURCE() == RCC_PLLSOURCE_NONE)
 800409e:	4936      	ldr	r1, [pc, #216]	@ (8004178 <HAL_RCCEx_PeriphCLKConfig+0xdfc>)
 80040a0:	6a89      	ldr	r1, [r1, #40]	@ 0x28
 80040a2:	f001 0103 	and.w	r1, r1, #3
 80040a6:	2903      	cmp	r1, #3
 80040a8:	d024      	beq.n	80040f4 <HAL_RCCEx_PeriphCLKConfig+0xd78>
 80040aa:	2101      	movs	r1, #1
 80040ac:	f104 0028 	add.w	r0, r4, #40	@ 0x28
 80040b0:	f7ff f8f2 	bl	8003298 <RCCEx_PLL3_Config.part.0>
 80040b4:	4605      	mov	r5, r0
  if (((PeriphClkInit->PeriphClockSelection) & RCC_PERIPHCLK_LPUART1) == RCC_PERIPHCLK_LPUART1)
 80040b6:	e9d4 3200 	ldrd	r3, r2, [r4]
    if (ret == HAL_OK)
 80040ba:	2d00      	cmp	r5, #0
 80040bc:	f47f ab41 	bne.w	8003742 <HAL_RCCEx_PeriphCLKConfig+0x3c6>
 80040c0:	e6b3      	b.n	8003e2a <HAL_RCCEx_PeriphCLKConfig+0xaae>
  if (__HAL_RCC_GET_PLL_OSCSOURCE() == RCC_PLLSOURCE_NONE)
 80040c2:	492d      	ldr	r1, [pc, #180]	@ (8004178 <HAL_RCCEx_PeriphCLKConfig+0xdfc>)
 80040c4:	6a89      	ldr	r1, [r1, #40]	@ 0x28
 80040c6:	f001 0103 	and.w	r1, r1, #3
 80040ca:	2903      	cmp	r1, #3
 80040cc:	f43f ab17 	beq.w	80036fe <HAL_RCCEx_PeriphCLKConfig+0x382>
 80040d0:	2101      	movs	r1, #1
 80040d2:	f104 0028 	add.w	r0, r4, #40	@ 0x28
 80040d6:	f7ff f8df 	bl	8003298 <RCCEx_PLL3_Config.part.0>
 80040da:	4605      	mov	r5, r0
  if (((PeriphClkInit->PeriphClockSelection) & RCC_PERIPHCLK_USART234578) == RCC_PERIPHCLK_USART234578)
 80040dc:	e9d4 3200 	ldrd	r3, r2, [r4]
    if (ret == HAL_OK)
 80040e0:	2d00      	cmp	r5, #0
 80040e2:	f47f aeb8 	bne.w	8003e56 <HAL_RCCEx_PeriphCLKConfig+0xada>
 80040e6:	e586      	b.n	8003bf6 <HAL_RCCEx_PeriphCLKConfig+0x87a>
        ret = HAL_TIMEOUT;
 80040e8:	2503      	movs	r5, #3
  if (((PeriphClkInit->PeriphClockSelection) & RCC_PERIPHCLK_USART16) == RCC_PERIPHCLK_USART16)
 80040ea:	462e      	mov	r6, r5
 80040ec:	e9d4 3200 	ldrd	r3, r2, [r4]
 80040f0:	f7ff bad5 	b.w	800369e <HAL_RCCEx_PeriphCLKConfig+0x322>
 80040f4:	2601      	movs	r6, #1
 80040f6:	4635      	mov	r5, r6
 80040f8:	f7ff bb24 	b.w	8003744 <HAL_RCCEx_PeriphCLKConfig+0x3c8>
 80040fc:	2601      	movs	r6, #1
 80040fe:	4635      	mov	r5, r6
 8004100:	f7ff bb45 	b.w	800378e <HAL_RCCEx_PeriphCLKConfig+0x412>
        status = HAL_ERROR;
 8004104:	2601      	movs	r6, #1
 8004106:	f7ff bbc5 	b.w	8003894 <HAL_RCCEx_PeriphCLKConfig+0x518>
        status = HAL_ERROR;
 800410a:	2601      	movs	r6, #1
 800410c:	f7ff bbd0 	b.w	80038b0 <HAL_RCCEx_PeriphCLKConfig+0x534>
    __HAL_RCC_I2C4_CONFIG(PeriphClkInit->I2c4ClockSelection);
 8004110:	f8d4 0094 	ldr.w	r0, [r4, #148]	@ 0x94
  if (((PeriphClkInit->PeriphClockSelection) & RCC_PERIPHCLK_ADC) == RCC_PERIPHCLK_ADC)
 8004114:	e9d4 3200 	ldrd	r3, r2, [r4]
 8004118:	f7ff bbca 	b.w	80038b0 <HAL_RCCEx_PeriphCLKConfig+0x534>
    __HAL_RCC_I2C1235_CONFIG(PeriphClkInit->I2c1235ClockSelection);
 800411c:	f8d4 0080 	ldr.w	r0, [r4, #128]	@ 0x80
  if (((PeriphClkInit->PeriphClockSelection) & RCC_PERIPHCLK_I2C4) == RCC_PERIPHCLK_I2C4)
 8004120:	e9d4 3200 	ldrd	r3, r2, [r4]
 8004124:	f7ff bbb6 	b.w	8003894 <HAL_RCCEx_PeriphCLKConfig+0x518>
 8004128:	2601      	movs	r6, #1
 800412a:	4635      	mov	r5, r6
 800412c:	f7ff bab4 	b.w	8003698 <HAL_RCCEx_PeriphCLKConfig+0x31c>
        tickstart = HAL_GetTick();
 8004130:	f7fc feac 	bl	8000e8c <HAL_GetTick>
        while (__HAL_RCC_GET_FLAG(RCC_FLAG_LSERDY) == 0U)
 8004134:	f8df 8040 	ldr.w	r8, [pc, #64]	@ 8004178 <HAL_RCCEx_PeriphCLKConfig+0xdfc>
        tickstart = HAL_GetTick();
 8004138:	4607      	mov	r7, r0
          if ((HAL_GetTick() - tickstart) > RCC_LSE_TIMEOUT_VALUE)
 800413a:	f241 3988 	movw	r9, #5000	@ 0x1388
        while (__HAL_RCC_GET_FLAG(RCC_FLAG_LSERDY) == 0U)
 800413e:	e004      	b.n	800414a <HAL_RCCEx_PeriphCLKConfig+0xdce>
          if ((HAL_GetTick() - tickstart) > RCC_LSE_TIMEOUT_VALUE)
 8004140:	f7fc fea4 	bl	8000e8c <HAL_GetTick>
 8004144:	1bc0      	subs	r0, r0, r7
 8004146:	4548      	cmp	r0, r9
 8004148:	d810      	bhi.n	800416c <HAL_RCCEx_PeriphCLKConfig+0xdf0>
        while (__HAL_RCC_GET_FLAG(RCC_FLAG_LSERDY) == 0U)
 800414a:	f8d8 3070 	ldr.w	r3, [r8, #112]	@ 0x70
 800414e:	079b      	lsls	r3, r3, #30
 8004150:	d5f6      	bpl.n	8004140 <HAL_RCCEx_PeriphCLKConfig+0xdc4>
        __HAL_RCC_RTC_CONFIG(PeriphClkInit->RTCClockSelection);
 8004152:	f8d4 30b0 	ldr.w	r3, [r4, #176]	@ 0xb0
 8004156:	e584      	b.n	8003c62 <HAL_RCCEx_PeriphCLKConfig+0x8e6>
 8004158:	4807      	ldr	r0, [pc, #28]	@ (8004178 <HAL_RCCEx_PeriphCLKConfig+0xdfc>)
 800415a:	4a08      	ldr	r2, [pc, #32]	@ (800417c <HAL_RCCEx_PeriphCLKConfig+0xe00>)
 800415c:	6901      	ldr	r1, [r0, #16]
 800415e:	ea02 1213 	and.w	r2, r2, r3, lsr #4
 8004162:	f421 517c 	bic.w	r1, r1, #16128	@ 0x3f00
 8004166:	430a      	orrs	r2, r1
 8004168:	6102      	str	r2, [r0, #16]
 800416a:	e585      	b.n	8003c78 <HAL_RCCEx_PeriphCLKConfig+0x8fc>
        status = ret;
 800416c:	2603      	movs	r6, #3
  if (((PeriphClkInit->PeriphClockSelection) & RCC_PERIPHCLK_USART16) == RCC_PERIPHCLK_USART16)
 800416e:	e9d4 3200 	ldrd	r3, r2, [r4]
 8004172:	4635      	mov	r5, r6
 8004174:	f7ff ba93 	b.w	800369e <HAL_RCCEx_PeriphCLKConfig+0x322>
 8004178:	58024400 	.word	0x58024400
 800417c:	00ffffcf 	.word	0x00ffffcf

08004180 <HAL_RCCEx_GetD3PCLK1Freq>:
{
 8004180:	b508      	push	{r3, lr}
  return (HAL_RCC_GetHCLKFreq() >> (D1CorePrescTable[(RCC->D3CFGR & RCC_D3CFGR_D3PPRE) >> RCC_D3CFGR_D3PPRE_Pos] & 0x1FU));
 8004182:	f7fe ff47 	bl	8003014 <HAL_RCC_GetHCLKFreq>
 8004186:	4b05      	ldr	r3, [pc, #20]	@ (800419c <HAL_RCCEx_GetD3PCLK1Freq+0x1c>)
 8004188:	4a05      	ldr	r2, [pc, #20]	@ (80041a0 <HAL_RCCEx_GetD3PCLK1Freq+0x20>)
 800418a:	6a1b      	ldr	r3, [r3, #32]
 800418c:	f3c3 1302 	ubfx	r3, r3, #4, #3
 8004190:	5cd3      	ldrb	r3, [r2, r3]
 8004192:	f003 031f 	and.w	r3, r3, #31
}
 8004196:	40d8      	lsrs	r0, r3
 8004198:	bd08      	pop	{r3, pc}
 800419a:	bf00      	nop
 800419c:	58024400 	.word	0x58024400
 80041a0:	0800753c 	.word	0x0800753c

080041a4 <HAL_RCCEx_GetPLL2ClockFreq>:
  pllsource = (RCC->PLLCKSELR & RCC_PLLCKSELR_PLLSRC);
 80041a4:	4a47      	ldr	r2, [pc, #284]	@ (80042c4 <HAL_RCCEx_GetPLL2ClockFreq+0x120>)
{
 80041a6:	b470      	push	{r4, r5, r6}
  pllsource = (RCC->PLLCKSELR & RCC_PLLCKSELR_PLLSRC);
 80041a8:	6a91      	ldr	r1, [r2, #40]	@ 0x28
  pll2m = ((RCC->PLLCKSELR & RCC_PLLCKSELR_DIVM2) >> 12);
 80041aa:	6a95      	ldr	r5, [r2, #40]	@ 0x28
  pll2fracen = (RCC->PLLCFGR & RCC_PLLCFGR_PLL2FRACEN) >> RCC_PLLCFGR_PLL2FRACEN_Pos;
 80041ac:	6ad6      	ldr	r6, [r2, #44]	@ 0x2c
  if (pll2m != 0U)
 80041ae:	f415 3f7c 	tst.w	r5, #258048	@ 0x3f000
  pll2m = ((RCC->PLLCKSELR & RCC_PLLCKSELR_DIVM2) >> 12);
 80041b2:	f3c5 3305 	ubfx	r3, r5, #12, #6
  fracn2 = (float_t)(uint32_t)(pll2fracen * ((RCC->PLL2FRACR & RCC_PLL2FRACR_FRACN2) >> 3));
 80041b6:	6bd4      	ldr	r4, [r2, #60]	@ 0x3c
  if (pll2m != 0U)
 80041b8:	d05b      	beq.n	8004272 <HAL_RCCEx_GetPLL2ClockFreq+0xce>
  fracn2 = (float_t)(uint32_t)(pll2fracen * ((RCC->PLL2FRACR & RCC_PLL2FRACR_FRACN2) >> 3));
 80041ba:	f3c4 04cc 	ubfx	r4, r4, #3, #13
  pll2fracen = (RCC->PLLCFGR & RCC_PLLCFGR_PLL2FRACEN) >> RCC_PLLCFGR_PLL2FRACEN_Pos;
 80041be:	f3c6 1600 	ubfx	r6, r6, #4, #1
  pllsource = (RCC->PLLCKSELR & RCC_PLLCKSELR_PLLSRC);
 80041c2:	f001 0103 	and.w	r1, r1, #3
          pll2vco = ((float_t)hsivalue / (float_t)pll2m) * ((float_t)(uint32_t)(RCC->PLL2DIVR & RCC_PLL2DIVR_N2) + (fracn2 / (float_t)0x2000) + (float_t)1);
 80041c6:	ee07 3a90 	vmov	s15, r3
  fracn2 = (float_t)(uint32_t)(pll2fracen * ((RCC->PLL2FRACR & RCC_PLL2FRACR_FRACN2) >> 3));
 80041ca:	fb06 f404 	mul.w	r4, r6, r4
    switch (pllsource)
 80041ce:	2901      	cmp	r1, #1
          pll2vco = ((float_t)hsivalue / (float_t)pll2m) * ((float_t)(uint32_t)(RCC->PLL2DIVR & RCC_PLL2DIVR_N2) + (fracn2 / (float_t)0x2000) + (float_t)1);
 80041d0:	eeb8 7ae7 	vcvt.f32.s32	s14, s15
 80041d4:	ee06 4a90 	vmov	s13, r4
 80041d8:	eefa 6ae9 	vcvt.f32.s32	s13, s13, #13
    switch (pllsource)
 80041dc:	d003      	beq.n	80041e6 <HAL_RCCEx_GetPLL2ClockFreq+0x42>
 80041de:	2902      	cmp	r1, #2
 80041e0:	d06a      	beq.n	80042b8 <HAL_RCCEx_GetPLL2ClockFreq+0x114>
 80041e2:	2900      	cmp	r1, #0
 80041e4:	d04a      	beq.n	800427c <HAL_RCCEx_GetPLL2ClockFreq+0xd8>
        pll2vco = ((float_t)CSI_VALUE / (float_t)pll2m) * ((float_t)(uint32_t)(RCC->PLL2DIVR & RCC_PLL2DIVR_N2) + (fracn2 / (float_t)0x2000) + (float_t)1);
 80041e6:	eddf 7a38 	vldr	s15, [pc, #224]	@ 80042c8 <HAL_RCCEx_GetPLL2ClockFreq+0x124>
 80041ea:	ee87 6a87 	vdiv.f32	s12, s15, s14
 80041ee:	6b93      	ldr	r3, [r2, #56]	@ 0x38
 80041f0:	f3c3 0308 	ubfx	r3, r3, #0, #9
 80041f4:	ee07 3a90 	vmov	s15, r3
 80041f8:	eef7 5a00 	vmov.f32	s11, #112	@ 0x3f800000  1.0
 80041fc:	eef8 7ae7 	vcvt.f32.s32	s15, s15
 8004200:	ee77 7aa5 	vadd.f32	s15, s15, s11
 8004204:	ee77 7aa6 	vadd.f32	s15, s15, s13
 8004208:	ee67 7a86 	vmul.f32	s15, s15, s12
    PLL2_Clocks->PLL2_P_Frequency = (uint32_t)(float_t)(pll2vco / ((float_t)(uint32_t)((RCC->PLL2DIVR & RCC_PLL2DIVR_P2) >> 9)  + (float_t)1)) ;
 800420c:	4a2d      	ldr	r2, [pc, #180]	@ (80042c4 <HAL_RCCEx_GetPLL2ClockFreq+0x120>)
 800420e:	eeb7 6a00 	vmov.f32	s12, #112	@ 0x3f800000  1.0
 8004212:	6b93      	ldr	r3, [r2, #56]	@ 0x38
 8004214:	f3c3 2346 	ubfx	r3, r3, #9, #7
 8004218:	ee07 3a10 	vmov	s14, r3
 800421c:	eeb8 7ac7 	vcvt.f32.s32	s14, s14
}
 8004220:	bc70      	pop	{r4, r5, r6}
    PLL2_Clocks->PLL2_P_Frequency = (uint32_t)(float_t)(pll2vco / ((float_t)(uint32_t)((RCC->PLL2DIVR & RCC_PLL2DIVR_P2) >> 9)  + (float_t)1)) ;
 8004222:	ee37 7a06 	vadd.f32	s14, s14, s12
 8004226:	eec7 6a87 	vdiv.f32	s13, s15, s14
 800422a:	eefc 6ae6 	vcvt.u32.f32	s13, s13
 800422e:	edc0 6a00 	vstr	s13, [r0]
    PLL2_Clocks->PLL2_Q_Frequency = (uint32_t)(float_t)(pll2vco / ((float_t)(uint32_t)((RCC->PLL2DIVR & RCC_PLL2DIVR_Q2) >> 16) + (float_t)1)) ;
 8004232:	6b93      	ldr	r3, [r2, #56]	@ 0x38
 8004234:	f3c3 4306 	ubfx	r3, r3, #16, #7
 8004238:	ee07 3a10 	vmov	s14, r3
 800423c:	eeb8 7ac7 	vcvt.f32.s32	s14, s14
 8004240:	ee37 7a06 	vadd.f32	s14, s14, s12
 8004244:	eec7 6a87 	vdiv.f32	s13, s15, s14
 8004248:	eefc 6ae6 	vcvt.u32.f32	s13, s13
 800424c:	edc0 6a01 	vstr	s13, [r0, #4]
    PLL2_Clocks->PLL2_R_Frequency = (uint32_t)(float_t)(pll2vco / ((float_t)(uint32_t)((RCC->PLL2DIVR & RCC_PLL2DIVR_R2) >> 24) + (float_t)1)) ;
 8004250:	6b93      	ldr	r3, [r2, #56]	@ 0x38
 8004252:	f3c3 6306 	ubfx	r3, r3, #24, #7
 8004256:	ee06 3a90 	vmov	s13, r3
 800425a:	eef8 6ae6 	vcvt.f32.s32	s13, s13
 800425e:	ee76 6a86 	vadd.f32	s13, s13, s12
 8004262:	ee87 7aa6 	vdiv.f32	s14, s15, s13
 8004266:	eefc 7ac7 	vcvt.u32.f32	s15, s14
 800426a:	ee17 3a90 	vmov	r3, s15
 800426e:	6083      	str	r3, [r0, #8]
}
 8004270:	4770      	bx	lr
 8004272:	bc70      	pop	{r4, r5, r6}
    PLL2_Clocks->PLL2_P_Frequency = 0U;
 8004274:	e9c0 3300 	strd	r3, r3, [r0]
    PLL2_Clocks->PLL2_R_Frequency = (uint32_t)(float_t)(pll2vco / ((float_t)(uint32_t)((RCC->PLL2DIVR & RCC_PLL2DIVR_R2) >> 24) + (float_t)1)) ;
 8004278:	6083      	str	r3, [r0, #8]
}
 800427a:	4770      	bx	lr
        if (__HAL_RCC_GET_FLAG(RCC_FLAG_HSIDIV) != 0U)
 800427c:	6813      	ldr	r3, [r2, #0]
 800427e:	069b      	lsls	r3, r3, #26
 8004280:	d51d      	bpl.n	80042be <HAL_RCCEx_GetPLL2ClockFreq+0x11a>
          hsivalue = (HSI_VALUE >> (__HAL_RCC_GET_HSI_DIVIDER() >> 3));
 8004282:	6814      	ldr	r4, [r2, #0]
          pll2vco = ((float_t)hsivalue / (float_t)pll2m) * ((float_t)(uint32_t)(RCC->PLL2DIVR & RCC_PLL2DIVR_N2) + (fracn2 / (float_t)0x2000) + (float_t)1);
 8004284:	eef7 7a00 	vmov.f32	s15, #112	@ 0x3f800000  1.0
 8004288:	6b93      	ldr	r3, [r2, #56]	@ 0x38
          hsivalue = (HSI_VALUE >> (__HAL_RCC_GET_HSI_DIVIDER() >> 3));
 800428a:	4910      	ldr	r1, [pc, #64]	@ (80042cc <HAL_RCCEx_GetPLL2ClockFreq+0x128>)
 800428c:	f3c4 02c1 	ubfx	r2, r4, #3, #2
          pll2vco = ((float_t)hsivalue / (float_t)pll2m) * ((float_t)(uint32_t)(RCC->PLL2DIVR & RCC_PLL2DIVR_N2) + (fracn2 / (float_t)0x2000) + (float_t)1);
 8004290:	f3c3 0308 	ubfx	r3, r3, #0, #9
          hsivalue = (HSI_VALUE >> (__HAL_RCC_GET_HSI_DIVIDER() >> 3));
 8004294:	40d1      	lsrs	r1, r2
          pll2vco = ((float_t)hsivalue / (float_t)pll2m) * ((float_t)(uint32_t)(RCC->PLL2DIVR & RCC_PLL2DIVR_N2) + (fracn2 / (float_t)0x2000) + (float_t)1);
 8004296:	ee06 3a10 	vmov	s12, r3
 800429a:	ee05 1a90 	vmov	s11, r1
 800429e:	eeb8 6ac6 	vcvt.f32.s32	s12, s12
 80042a2:	eef8 5ae5 	vcvt.f32.s32	s11, s11
 80042a6:	ee36 6a27 	vadd.f32	s12, s12, s15
 80042aa:	eec5 7a87 	vdiv.f32	s15, s11, s14
 80042ae:	ee36 7a26 	vadd.f32	s14, s12, s13
 80042b2:	ee67 7a87 	vmul.f32	s15, s15, s14
 80042b6:	e7a9      	b.n	800420c <HAL_RCCEx_GetPLL2ClockFreq+0x68>
        pll2vco = ((float_t)HSE_VALUE / (float_t)pll2m) * ((float_t)(uint32_t)(RCC->PLL2DIVR & RCC_PLL2DIVR_N2) + (fracn2 / (float_t)0x2000) + (float_t)1);
 80042b8:	eddf 7a05 	vldr	s15, [pc, #20]	@ 80042d0 <HAL_RCCEx_GetPLL2ClockFreq+0x12c>
 80042bc:	e795      	b.n	80041ea <HAL_RCCEx_GetPLL2ClockFreq+0x46>
          pll2vco = ((float_t)HSI_VALUE / (float_t)pll2m) * ((float_t)(uint32_t)(RCC->PLL2DIVR & RCC_PLL2DIVR_N2) + (fracn2 / (float_t)0x2000) + (float_t)1);
 80042be:	eddf 7a05 	vldr	s15, [pc, #20]	@ 80042d4 <HAL_RCCEx_GetPLL2ClockFreq+0x130>
 80042c2:	e792      	b.n	80041ea <HAL_RCCEx_GetPLL2ClockFreq+0x46>
 80042c4:	58024400 	.word	0x58024400
 80042c8:	4a742400 	.word	0x4a742400
 80042cc:	03d09000 	.word	0x03d09000
 80042d0:	4bbebc20 	.word	0x4bbebc20
 80042d4:	4c742400 	.word	0x4c742400

080042d8 <HAL_RCCEx_GetPLL3ClockFreq>:
  pllsource = (RCC->PLLCKSELR & RCC_PLLCKSELR_PLLSRC);
 80042d8:	4a47      	ldr	r2, [pc, #284]	@ (80043f8 <HAL_RCCEx_GetPLL3ClockFreq+0x120>)
{
 80042da:	b470      	push	{r4, r5, r6}
  pllsource = (RCC->PLLCKSELR & RCC_PLLCKSELR_PLLSRC);
 80042dc:	6a91      	ldr	r1, [r2, #40]	@ 0x28
  pll3m = ((RCC->PLLCKSELR & RCC_PLLCKSELR_DIVM3) >> 20)  ;
 80042de:	6a95      	ldr	r5, [r2, #40]	@ 0x28
  pll3fracen = (RCC->PLLCFGR & RCC_PLLCFGR_PLL3FRACEN) >> RCC_PLLCFGR_PLL3FRACEN_Pos;
 80042e0:	6ad6      	ldr	r6, [r2, #44]	@ 0x2c
  if (pll3m != 0U)
 80042e2:	f015 7f7c 	tst.w	r5, #66060288	@ 0x3f00000
  pll3m = ((RCC->PLLCKSELR & RCC_PLLCKSELR_DIVM3) >> 20)  ;
 80042e6:	f3c5 5305 	ubfx	r3, r5, #20, #6
  fracn3 = (float_t)(uint32_t)(pll3fracen * ((RCC->PLL3FRACR & RCC_PLL3FRACR_FRACN3) >> 3));
 80042ea:	6c54      	ldr	r4, [r2, #68]	@ 0x44
  if (pll3m != 0U)
 80042ec:	d05b      	beq.n	80043a6 <HAL_RCCEx_GetPLL3ClockFreq+0xce>
  fracn3 = (float_t)(uint32_t)(pll3fracen * ((RCC->PLL3FRACR & RCC_PLL3FRACR_FRACN3) >> 3));
 80042ee:	f3c4 04cc 	ubfx	r4, r4, #3, #13
  pll3fracen = (RCC->PLLCFGR & RCC_PLLCFGR_PLL3FRACEN) >> RCC_PLLCFGR_PLL3FRACEN_Pos;
 80042f2:	f3c6 2600 	ubfx	r6, r6, #8, #1
  pllsource = (RCC->PLLCKSELR & RCC_PLLCKSELR_PLLSRC);
 80042f6:	f001 0103 	and.w	r1, r1, #3
          pll3vco = ((float_t)hsivalue / (float_t)pll3m) * ((float_t)(uint32_t)(RCC->PLL3DIVR & RCC_PLL3DIVR_N3) + (fracn3 / (float_t)0x2000) + (float_t)1);
 80042fa:	ee07 3a90 	vmov	s15, r3
  fracn3 = (float_t)(uint32_t)(pll3fracen * ((RCC->PLL3FRACR & RCC_PLL3FRACR_FRACN3) >> 3));
 80042fe:	fb06 f404 	mul.w	r4, r6, r4
    switch (pllsource)
 8004302:	2901      	cmp	r1, #1
          pll3vco = ((float_t)hsivalue / (float_t)pll3m) * ((float_t)(uint32_t)(RCC->PLL3DIVR & RCC_PLL3DIVR_N3) + (fracn3 / (float_t)0x2000) + (float_t)1);
 8004304:	eeb8 7ae7 	vcvt.f32.s32	s14, s15
 8004308:	ee06 4a90 	vmov	s13, r4
 800430c:	eefa 6ae9 	vcvt.f32.s32	s13, s13, #13
    switch (pllsource)
 8004310:	d003      	beq.n	800431a <HAL_RCCEx_GetPLL3ClockFreq+0x42>
 8004312:	2902      	cmp	r1, #2
 8004314:	d06a      	beq.n	80043ec <HAL_RCCEx_GetPLL3ClockFreq+0x114>
 8004316:	2900      	cmp	r1, #0
 8004318:	d04a      	beq.n	80043b0 <HAL_RCCEx_GetPLL3ClockFreq+0xd8>
        pll3vco = ((float_t)CSI_VALUE / (float_t)pll3m) * ((float_t)(uint32_t)(RCC->PLL3DIVR & RCC_PLL3DIVR_N3) + (fracn3 / (float_t)0x2000) + (float_t)1);
 800431a:	eddf 7a38 	vldr	s15, [pc, #224]	@ 80043fc <HAL_RCCEx_GetPLL3ClockFreq+0x124>
 800431e:	ee87 6a87 	vdiv.f32	s12, s15, s14
 8004322:	6c13      	ldr	r3, [r2, #64]	@ 0x40
 8004324:	f3c3 0308 	ubfx	r3, r3, #0, #9
 8004328:	ee07 3a90 	vmov	s15, r3
 800432c:	eef7 5a00 	vmov.f32	s11, #112	@ 0x3f800000  1.0
 8004330:	eef8 7ae7 	vcvt.f32.s32	s15, s15
 8004334:	ee77 7aa5 	vadd.f32	s15, s15, s11
 8004338:	ee77 7aa6 	vadd.f32	s15, s15, s13
 800433c:	ee67 7a86 	vmul.f32	s15, s15, s12
    PLL3_Clocks->PLL3_P_Frequency = (uint32_t)(float_t)(pll3vco / ((float_t)(uint32_t)((RCC->PLL3DIVR & RCC_PLL3DIVR_P3) >> 9)  + (float_t)1)) ;
 8004340:	4a2d      	ldr	r2, [pc, #180]	@ (80043f8 <HAL_RCCEx_GetPLL3ClockFreq+0x120>)
 8004342:	eeb7 6a00 	vmov.f32	s12, #112	@ 0x3f800000  1.0
 8004346:	6c13      	ldr	r3, [r2, #64]	@ 0x40
 8004348:	f3c3 2346 	ubfx	r3, r3, #9, #7
 800434c:	ee07 3a10 	vmov	s14, r3
 8004350:	eeb8 7ac7 	vcvt.f32.s32	s14, s14
}
 8004354:	bc70      	pop	{r4, r5, r6}
    PLL3_Clocks->PLL3_P_Frequency = (uint32_t)(float_t)(pll3vco / ((float_t)(uint32_t)((RCC->PLL3DIVR & RCC_PLL3DIVR_P3) >> 9)  + (float_t)1)) ;
 8004356:	ee37 7a06 	vadd.f32	s14, s14, s12
 800435a:	eec7 6a87 	vdiv.f32	s13, s15, s14
 800435e:	eefc 6ae6 	vcvt.u32.f32	s13, s13
 8004362:	edc0 6a00 	vstr	s13, [r0]
    PLL3_Clocks->PLL3_Q_Frequency = (uint32_t)(float_t)(pll3vco / ((float_t)(uint32_t)((RCC->PLL3DIVR & RCC_PLL3DIVR_Q3) >> 16) + (float_t)1)) ;
 8004366:	6c13      	ldr	r3, [r2, #64]	@ 0x40
 8004368:	f3c3 4306 	ubfx	r3, r3, #16, #7
 800436c:	ee07 3a10 	vmov	s14, r3
 8004370:	eeb8 7ac7 	vcvt.f32.s32	s14, s14
 8004374:	ee37 7a06 	vadd.f32	s14, s14, s12
 8004378:	eec7 6a87 	vdiv.f32	s13, s15, s14
 800437c:	eefc 6ae6 	vcvt.u32.f32	s13, s13
 8004380:	edc0 6a01 	vstr	s13, [r0, #4]
    PLL3_Clocks->PLL3_R_Frequency = (uint32_t)(float_t)(pll3vco / ((float_t)(uint32_t)((RCC->PLL3DIVR & RCC_PLL3DIVR_R3) >> 24) + (float_t)1)) ;
 8004384:	6c13      	ldr	r3, [r2, #64]	@ 0x40
 8004386:	f3c3 6306 	ubfx	r3, r3, #24, #7
 800438a:	ee06 3a90 	vmov	s13, r3
 800438e:	eef8 6ae6 	vcvt.f32.s32	s13, s13
 8004392:	ee76 6a86 	vadd.f32	s13, s13, s12
 8004396:	ee87 7aa6 	vdiv.f32	s14, s15, s13
 800439a:	eefc 7ac7 	vcvt.u32.f32	s15, s14
 800439e:	ee17 3a90 	vmov	r3, s15
 80043a2:	6083      	str	r3, [r0, #8]
}
 80043a4:	4770      	bx	lr
 80043a6:	bc70      	pop	{r4, r5, r6}
    PLL3_Clocks->PLL3_P_Frequency = 0U;
 80043a8:	e9c0 3300 	strd	r3, r3, [r0]
    PLL3_Clocks->PLL3_R_Frequency = (uint32_t)(float_t)(pll3vco / ((float_t)(uint32_t)((RCC->PLL3DIVR & RCC_PLL3DIVR_R3) >> 24) + (float_t)1)) ;
 80043ac:	6083      	str	r3, [r0, #8]
}
 80043ae:	4770      	bx	lr
        if (__HAL_RCC_GET_FLAG(RCC_FLAG_HSIDIV) != 0U)
 80043b0:	6813      	ldr	r3, [r2, #0]
 80043b2:	069b      	lsls	r3, r3, #26
 80043b4:	d51d      	bpl.n	80043f2 <HAL_RCCEx_GetPLL3ClockFreq+0x11a>
          hsivalue = (HSI_VALUE >> (__HAL_RCC_GET_HSI_DIVIDER() >> 3));
 80043b6:	6814      	ldr	r4, [r2, #0]
          pll3vco = ((float_t)hsivalue / (float_t)pll3m) * ((float_t)(uint32_t)(RCC->PLL3DIVR & RCC_PLL3DIVR_N3) + (fracn3 / (float_t)0x2000) + (float_t)1);
 80043b8:	eef7 7a00 	vmov.f32	s15, #112	@ 0x3f800000  1.0
 80043bc:	6c13      	ldr	r3, [r2, #64]	@ 0x40
          hsivalue = (HSI_VALUE >> (__HAL_RCC_GET_HSI_DIVIDER() >> 3));
 80043be:	4910      	ldr	r1, [pc, #64]	@ (8004400 <HAL_RCCEx_GetPLL3ClockFreq+0x128>)
 80043c0:	f3c4 02c1 	ubfx	r2, r4, #3, #2
          pll3vco = ((float_t)hsivalue / (float_t)pll3m) * ((float_t)(uint32_t)(RCC->PLL3DIVR & RCC_PLL3DIVR_N3) + (fracn3 / (float_t)0x2000) + (float_t)1);
 80043c4:	f3c3 0308 	ubfx	r3, r3, #0, #9
          hsivalue = (HSI_VALUE >> (__HAL_RCC_GET_HSI_DIVIDER() >> 3));
 80043c8:	40d1      	lsrs	r1, r2
          pll3vco = ((float_t)hsivalue / (float_t)pll3m) * ((float_t)(uint32_t)(RCC->PLL3DIVR & RCC_PLL3DIVR_N3) + (fracn3 / (float_t)0x2000) + (float_t)1);
 80043ca:	ee06 3a10 	vmov	s12, r3
 80043ce:	ee05 1a90 	vmov	s11, r1
 80043d2:	eeb8 6ac6 	vcvt.f32.s32	s12, s12
 80043d6:	eef8 5ae5 	vcvt.f32.s32	s11, s11
 80043da:	ee36 6a27 	vadd.f32	s12, s12, s15
 80043de:	eec5 7a87 	vdiv.f32	s15, s11, s14
 80043e2:	ee36 7a26 	vadd.f32	s14, s12, s13
 80043e6:	ee67 7a87 	vmul.f32	s15, s15, s14
 80043ea:	e7a9      	b.n	8004340 <HAL_RCCEx_GetPLL3ClockFreq+0x68>
        pll3vco = ((float_t)HSE_VALUE / (float_t)pll3m) * ((float_t)(uint32_t)(RCC->PLL3DIVR & RCC_PLL3DIVR_N3) + (fracn3 / (float_t)0x2000) + (float_t)1);
 80043ec:	eddf 7a05 	vldr	s15, [pc, #20]	@ 8004404 <HAL_RCCEx_GetPLL3ClockFreq+0x12c>
 80043f0:	e795      	b.n	800431e <HAL_RCCEx_GetPLL3ClockFreq+0x46>
          pll3vco = ((float_t)HSI_VALUE / (float_t)pll3m) * ((float_t)(uint32_t)(RCC->PLL3DIVR & RCC_PLL3DIVR_N3) + (fracn3 / (float_t)0x2000) + (float_t)1);
 80043f2:	eddf 7a05 	vldr	s15, [pc, #20]	@ 8004408 <HAL_RCCEx_GetPLL3ClockFreq+0x130>
 80043f6:	e792      	b.n	800431e <HAL_RCCEx_GetPLL3ClockFreq+0x46>
 80043f8:	58024400 	.word	0x58024400
 80043fc:	4a742400 	.word	0x4a742400
 8004400:	03d09000 	.word	0x03d09000
 8004404:	4bbebc20 	.word	0x4bbebc20
 8004408:	4c742400 	.word	0x4c742400

0800440c <HAL_UART_Transmit>:
  * @param Size    Amount of data elements (u8 or u16) to be sent.
  * @param Timeout Timeout duration.
  * @retval HAL status
  */
HAL_StatusTypeDef HAL_UART_Transmit(UART_HandleTypeDef *huart, const uint8_t *pData, uint16_t Size, uint32_t Timeout)
{
 800440c:	e92d 43f8 	stmdb	sp!, {r3, r4, r5, r6, r7, r8, r9, lr}
 8004410:	461d      	mov	r5, r3
  const uint8_t  *pdata8bits;
  const uint16_t *pdata16bits;
  uint32_t tickstart;

  /* Check that a Tx process is not already ongoing */
  if (huart->gState == HAL_UART_STATE_READY)
 8004412:	f8d0 3088 	ldr.w	r3, [r0, #136]	@ 0x88
 8004416:	2b20      	cmp	r3, #32
 8004418:	d156      	bne.n	80044c8 <HAL_UART_Transmit+0xbc>
  {
    if ((pData == NULL) || (Size == 0U))
 800441a:	4688      	mov	r8, r1
 800441c:	2900      	cmp	r1, #0
 800441e:	d050      	beq.n	80044c2 <HAL_UART_Transmit+0xb6>
 8004420:	fab2 f982 	clz	r9, r2
 8004424:	4616      	mov	r6, r2
 8004426:	ea4f 1959 	mov.w	r9, r9, lsr #5
 800442a:	2a00      	cmp	r2, #0
 800442c:	d049      	beq.n	80044c2 <HAL_UART_Transmit+0xb6>
    {
      return  HAL_ERROR;
    }

    huart->ErrorCode = HAL_UART_ERROR_NONE;
    huart->gState = HAL_UART_STATE_BUSY_TX;
 800442e:	2321      	movs	r3, #33	@ 0x21
 8004430:	4604      	mov	r4, r0
    huart->ErrorCode = HAL_UART_ERROR_NONE;
 8004432:	f8c0 9090 	str.w	r9, [r0, #144]	@ 0x90
    huart->gState = HAL_UART_STATE_BUSY_TX;
 8004436:	f8c0 3088 	str.w	r3, [r0, #136]	@ 0x88

    /* Init tickstart for timeout management */
    tickstart = HAL_GetTick();
 800443a:	f7fc fd27 	bl	8000e8c <HAL_GetTick>

    huart->TxXferSize  = Size;
    huart->TxXferCount = Size;

    /* In case of 9bits/No Parity transfer, pData needs to be handled as a uint16_t pointer */
    if ((huart->Init.WordLength == UART_WORDLENGTH_9B) && (huart->Init.Parity == UART_PARITY_NONE))
 800443e:	68a3      	ldr	r3, [r4, #8]
    tickstart = HAL_GetTick();
 8004440:	4607      	mov	r7, r0
    huart->TxXferSize  = Size;
 8004442:	f8a4 6054 	strh.w	r6, [r4, #84]	@ 0x54
    if ((huart->Init.WordLength == UART_WORDLENGTH_9B) && (huart->Init.Parity == UART_PARITY_NONE))
 8004446:	f5b3 5f80 	cmp.w	r3, #4096	@ 0x1000
    huart->TxXferCount = Size;
 800444a:	f8a4 6056 	strh.w	r6, [r4, #86]	@ 0x56
    if ((huart->Init.WordLength == UART_WORDLENGTH_9B) && (huart->Init.Parity == UART_PARITY_NONE))
 800444e:	d051      	beq.n	80044f4 <HAL_UART_Transmit+0xe8>
    {
      pdata8bits  = pData;
      pdata16bits = NULL;
    }

    while (huart->TxXferCount > 0U)
 8004450:	f8b4 2056 	ldrh.w	r2, [r4, #86]	@ 0x56
  */
HAL_StatusTypeDef UART_WaitOnFlagUntilTimeout(UART_HandleTypeDef *huart, uint32_t Flag, FlagStatus Status,
                                              uint32_t Tickstart, uint32_t Timeout)
{
  /* Wait until flag is set */
  while ((__HAL_UART_GET_FLAG(huart, Flag) ? SET : RESET) == Status)
 8004454:	6823      	ldr	r3, [r4, #0]
    while (huart->TxXferCount > 0U)
 8004456:	b292      	uxth	r2, r2
 8004458:	b1aa      	cbz	r2, 8004486 <HAL_UART_Transmit+0x7a>
 800445a:	1c68      	adds	r0, r5, #1
 800445c:	d126      	bne.n	80044ac <HAL_UART_Transmit+0xa0>
  while ((__HAL_UART_GET_FLAG(huart, Flag) ? SET : RESET) == Status)
 800445e:	69da      	ldr	r2, [r3, #28]
 8004460:	0612      	lsls	r2, r2, #24
 8004462:	d5fc      	bpl.n	800445e <HAL_UART_Transmit+0x52>
      if (pdata8bits == NULL)
 8004464:	f1b8 0f00 	cmp.w	r8, #0
 8004468:	d026      	beq.n	80044b8 <HAL_UART_Transmit+0xac>
        huart->Instance->TDR = (uint8_t)(*pdata8bits & 0xFFU);
 800446a:	f818 2b01 	ldrb.w	r2, [r8], #1
 800446e:	629a      	str	r2, [r3, #40]	@ 0x28
      huart->TxXferCount--;
 8004470:	f8b4 2056 	ldrh.w	r2, [r4, #86]	@ 0x56
 8004474:	3a01      	subs	r2, #1
 8004476:	b292      	uxth	r2, r2
 8004478:	f8a4 2056 	strh.w	r2, [r4, #86]	@ 0x56
    while (huart->TxXferCount > 0U)
 800447c:	f8b4 2056 	ldrh.w	r2, [r4, #86]	@ 0x56
 8004480:	b292      	uxth	r2, r2
 8004482:	2a00      	cmp	r2, #0
 8004484:	d1e9      	bne.n	800445a <HAL_UART_Transmit+0x4e>
 8004486:	1c69      	adds	r1, r5, #1
 8004488:	d130      	bne.n	80044ec <HAL_UART_Transmit+0xe0>
  while ((__HAL_UART_GET_FLAG(huart, Flag) ? SET : RESET) == Status)
 800448a:	69da      	ldr	r2, [r3, #28]
 800448c:	0652      	lsls	r2, r2, #25
 800448e:	d5fc      	bpl.n	800448a <HAL_UART_Transmit+0x7e>
    huart->gState = HAL_UART_STATE_READY;
 8004490:	2320      	movs	r3, #32
    return HAL_OK;
 8004492:	2000      	movs	r0, #0
    huart->gState = HAL_UART_STATE_READY;
 8004494:	f8c4 3088 	str.w	r3, [r4, #136]	@ 0x88
}
 8004498:	e8bd 83f8 	ldmia.w	sp!, {r3, r4, r5, r6, r7, r8, r9, pc}
  {
    /* Check for the Timeout */
    if (Timeout != HAL_MAX_DELAY)
    {
      if (((HAL_GetTick() - Tickstart) > Timeout) || (Timeout == 0U))
 800449c:	f7fc fcf6 	bl	8000e8c <HAL_GetTick>
 80044a0:	1bc0      	subs	r0, r0, r7
 80044a2:	4285      	cmp	r5, r0
 80044a4:	d313      	bcc.n	80044ce <HAL_UART_Transmit+0xc2>
 80044a6:	b195      	cbz	r5, 80044ce <HAL_UART_Transmit+0xc2>
      {

        return HAL_TIMEOUT;
      }

      if ((READ_BIT(huart->Instance->CR1, USART_CR1_RE) != 0U) && (Flag != UART_FLAG_TXE) && (Flag != UART_FLAG_TC))
 80044a8:	6823      	ldr	r3, [r4, #0]
 80044aa:	681a      	ldr	r2, [r3, #0]
  while ((__HAL_UART_GET_FLAG(huart, Flag) ? SET : RESET) == Status)
 80044ac:	69da      	ldr	r2, [r3, #28]
 80044ae:	0616      	lsls	r6, r2, #24
 80044b0:	d5f4      	bpl.n	800449c <HAL_UART_Transmit+0x90>
      if (pdata8bits == NULL)
 80044b2:	f1b8 0f00 	cmp.w	r8, #0
 80044b6:	d1d8      	bne.n	800446a <HAL_UART_Transmit+0x5e>
        huart->Instance->TDR = (uint16_t)(*pdata16bits & 0x01FFU);
 80044b8:	f839 2b02 	ldrh.w	r2, [r9], #2
 80044bc:	f3c2 0208 	ubfx	r2, r2, #0, #9
 80044c0:	e7d5      	b.n	800446e <HAL_UART_Transmit+0x62>
      return  HAL_ERROR;
 80044c2:	2001      	movs	r0, #1
}
 80044c4:	e8bd 83f8 	ldmia.w	sp!, {r3, r4, r5, r6, r7, r8, r9, pc}
    return HAL_BUSY;
 80044c8:	2002      	movs	r0, #2
}
 80044ca:	e8bd 83f8 	ldmia.w	sp!, {r3, r4, r5, r6, r7, r8, r9, pc}
      huart->gState = HAL_UART_STATE_READY;
 80044ce:	2320      	movs	r3, #32
        return HAL_TIMEOUT;
 80044d0:	2003      	movs	r0, #3
      huart->gState = HAL_UART_STATE_READY;
 80044d2:	f8c4 3088 	str.w	r3, [r4, #136]	@ 0x88
}
 80044d6:	e8bd 83f8 	ldmia.w	sp!, {r3, r4, r5, r6, r7, r8, r9, pc}
      if (((HAL_GetTick() - Tickstart) > Timeout) || (Timeout == 0U))
 80044da:	f7fc fcd7 	bl	8000e8c <HAL_GetTick>
 80044de:	1bc3      	subs	r3, r0, r7
 80044e0:	429d      	cmp	r5, r3
 80044e2:	d3f4      	bcc.n	80044ce <HAL_UART_Transmit+0xc2>
 80044e4:	2d00      	cmp	r5, #0
 80044e6:	d0f2      	beq.n	80044ce <HAL_UART_Transmit+0xc2>
      if ((READ_BIT(huart->Instance->CR1, USART_CR1_RE) != 0U) && (Flag != UART_FLAG_TXE) && (Flag != UART_FLAG_TC))
 80044e8:	6823      	ldr	r3, [r4, #0]
 80044ea:	681a      	ldr	r2, [r3, #0]
  while ((__HAL_UART_GET_FLAG(huart, Flag) ? SET : RESET) == Status)
 80044ec:	69db      	ldr	r3, [r3, #28]
 80044ee:	065b      	lsls	r3, r3, #25
 80044f0:	d5f3      	bpl.n	80044da <HAL_UART_Transmit+0xce>
 80044f2:	e7cd      	b.n	8004490 <HAL_UART_Transmit+0x84>
    if ((huart->Init.WordLength == UART_WORDLENGTH_9B) && (huart->Init.Parity == UART_PARITY_NONE))
 80044f4:	6923      	ldr	r3, [r4, #16]
 80044f6:	2b00      	cmp	r3, #0
 80044f8:	d1aa      	bne.n	8004450 <HAL_UART_Transmit+0x44>
 80044fa:	46c1      	mov	r9, r8
      pdata8bits  = NULL;
 80044fc:	4698      	mov	r8, r3
 80044fe:	e7a7      	b.n	8004450 <HAL_UART_Transmit+0x44>

08004500 <UART_SetConfig>:
  tmpreg = (uint32_t)huart->Init.WordLength | huart->Init.Parity | huart->Init.Mode | huart->Init.OverSampling ;
 8004500:	6901      	ldr	r1, [r0, #16]
 8004502:	6882      	ldr	r2, [r0, #8]
  if (UART_INSTANCE_LOWPOWER(huart))
 8004504:	6803      	ldr	r3, [r0, #0]
  tmpreg = (uint32_t)huart->Init.WordLength | huart->Init.Parity | huart->Init.Mode | huart->Init.OverSampling ;
 8004506:	430a      	orrs	r2, r1
  MODIFY_REG(huart->Instance->CR1, USART_CR1_FIELDS, tmpreg);
 8004508:	49a6      	ldr	r1, [pc, #664]	@ (80047a4 <UART_SetConfig+0x2a4>)
{
 800450a:	b570      	push	{r4, r5, r6, lr}
  tmpreg = (uint32_t)huart->Init.WordLength | huart->Init.Parity | huart->Init.Mode | huart->Init.OverSampling ;
 800450c:	6945      	ldr	r5, [r0, #20]
{
 800450e:	4604      	mov	r4, r0
  tmpreg = (uint32_t)huart->Init.WordLength | huart->Init.Parity | huart->Init.Mode | huart->Init.OverSampling ;
 8004510:	69c0      	ldr	r0, [r0, #28]
{
 8004512:	b086      	sub	sp, #24
  tmpreg = (uint32_t)huart->Init.WordLength | huart->Init.Parity | huart->Init.Mode | huart->Init.OverSampling ;
 8004514:	432a      	orrs	r2, r5
  MODIFY_REG(huart->Instance->CR1, USART_CR1_FIELDS, tmpreg);
 8004516:	681d      	ldr	r5, [r3, #0]
  tmpreg = (uint32_t)huart->Init.WordLength | huart->Init.Parity | huart->Init.Mode | huart->Init.OverSampling ;
 8004518:	4302      	orrs	r2, r0
  MODIFY_REG(huart->Instance->CR1, USART_CR1_FIELDS, tmpreg);
 800451a:	4029      	ands	r1, r5
  MODIFY_REG(huart->Instance->PRESC, USART_PRESC_PRESCALER, huart->Init.ClockPrescaler);
 800451c:	6a65      	ldr	r5, [r4, #36]	@ 0x24
  MODIFY_REG(huart->Instance->CR1, USART_CR1_FIELDS, tmpreg);
 800451e:	430a      	orrs	r2, r1
  MODIFY_REG(huart->Instance->CR2, USART_CR2_STOP, huart->Init.StopBits);
 8004520:	68e1      	ldr	r1, [r4, #12]
  MODIFY_REG(huart->Instance->CR1, USART_CR1_FIELDS, tmpreg);
 8004522:	601a      	str	r2, [r3, #0]
  MODIFY_REG(huart->Instance->CR2, USART_CR2_STOP, huart->Init.StopBits);
 8004524:	685a      	ldr	r2, [r3, #4]
 8004526:	f422 5240 	bic.w	r2, r2, #12288	@ 0x3000
 800452a:	430a      	orrs	r2, r1
  tmpreg = (uint32_t)huart->Init.HwFlowCtl;
 800452c:	69a1      	ldr	r1, [r4, #24]
  MODIFY_REG(huart->Instance->CR2, USART_CR2_STOP, huart->Init.StopBits);
 800452e:	605a      	str	r2, [r3, #4]
  if (!(UART_INSTANCE_LOWPOWER(huart)))
 8004530:	4a9d      	ldr	r2, [pc, #628]	@ (80047a8 <UART_SetConfig+0x2a8>)
 8004532:	4293      	cmp	r3, r2
 8004534:	f000 811f 	beq.w	8004776 <UART_SetConfig+0x276>
    tmpreg |= huart->Init.OneBitSampling;
 8004538:	6a22      	ldr	r2, [r4, #32]
  MODIFY_REG(huart->Instance->CR3, USART_CR3_FIELDS, tmpreg);
 800453a:	689e      	ldr	r6, [r3, #8]
    tmpreg |= huart->Init.OneBitSampling;
 800453c:	4311      	orrs	r1, r2
  MODIFY_REG(huart->Instance->CR3, USART_CR3_FIELDS, tmpreg);
 800453e:	4a9b      	ldr	r2, [pc, #620]	@ (80047ac <UART_SetConfig+0x2ac>)
 8004540:	4032      	ands	r2, r6
 8004542:	4311      	orrs	r1, r2
 8004544:	6099      	str	r1, [r3, #8]
  MODIFY_REG(huart->Instance->PRESC, USART_PRESC_PRESCALER, huart->Init.ClockPrescaler);
 8004546:	6ada      	ldr	r2, [r3, #44]	@ 0x2c
 8004548:	f022 020f 	bic.w	r2, r2, #15
 800454c:	432a      	orrs	r2, r5
 800454e:	62da      	str	r2, [r3, #44]	@ 0x2c
  UART_GETCLOCKSOURCE(huart, clocksource);
 8004550:	4a97      	ldr	r2, [pc, #604]	@ (80047b0 <UART_SetConfig+0x2b0>)
 8004552:	4293      	cmp	r3, r2
 8004554:	d02e      	beq.n	80045b4 <UART_SetConfig+0xb4>
 8004556:	4a97      	ldr	r2, [pc, #604]	@ (80047b4 <UART_SetConfig+0x2b4>)
 8004558:	4293      	cmp	r3, r2
 800455a:	d020      	beq.n	800459e <UART_SetConfig+0x9e>
 800455c:	4a96      	ldr	r2, [pc, #600]	@ (80047b8 <UART_SetConfig+0x2b8>)
 800455e:	4293      	cmp	r3, r2
 8004560:	d01d      	beq.n	800459e <UART_SetConfig+0x9e>
 8004562:	4a96      	ldr	r2, [pc, #600]	@ (80047bc <UART_SetConfig+0x2bc>)
 8004564:	4293      	cmp	r3, r2
 8004566:	d01a      	beq.n	800459e <UART_SetConfig+0x9e>
 8004568:	4a95      	ldr	r2, [pc, #596]	@ (80047c0 <UART_SetConfig+0x2c0>)
 800456a:	4293      	cmp	r3, r2
 800456c:	d017      	beq.n	800459e <UART_SetConfig+0x9e>
 800456e:	4a95      	ldr	r2, [pc, #596]	@ (80047c4 <UART_SetConfig+0x2c4>)
 8004570:	4293      	cmp	r3, r2
 8004572:	d01f      	beq.n	80045b4 <UART_SetConfig+0xb4>
 8004574:	4a94      	ldr	r2, [pc, #592]	@ (80047c8 <UART_SetConfig+0x2c8>)
 8004576:	4293      	cmp	r3, r2
 8004578:	d011      	beq.n	800459e <UART_SetConfig+0x9e>
 800457a:	4a94      	ldr	r2, [pc, #592]	@ (80047cc <UART_SetConfig+0x2cc>)
 800457c:	4293      	cmp	r3, r2
 800457e:	d00e      	beq.n	800459e <UART_SetConfig+0x9e>
 8004580:	4a93      	ldr	r2, [pc, #588]	@ (80047d0 <UART_SetConfig+0x2d0>)
 8004582:	4293      	cmp	r3, r2
 8004584:	d016      	beq.n	80045b4 <UART_SetConfig+0xb4>
 8004586:	4a93      	ldr	r2, [pc, #588]	@ (80047d4 <UART_SetConfig+0x2d4>)
 8004588:	4293      	cmp	r3, r2
 800458a:	d013      	beq.n	80045b4 <UART_SetConfig+0xb4>
        ret = HAL_ERROR;
 800458c:	2001      	movs	r0, #1
  huart->RxISR = NULL;
 800458e:	2300      	movs	r3, #0
  huart->NbRxDataToProcess = 1;
 8004590:	f04f 1201 	mov.w	r2, #65537	@ 0x10001
  huart->RxISR = NULL;
 8004594:	6763      	str	r3, [r4, #116]	@ 0x74
  huart->NbRxDataToProcess = 1;
 8004596:	66a2      	str	r2, [r4, #104]	@ 0x68
  huart->TxISR = NULL;
 8004598:	67a3      	str	r3, [r4, #120]	@ 0x78
}
 800459a:	b006      	add	sp, #24
 800459c:	bd70      	pop	{r4, r5, r6, pc}
  UART_GETCLOCKSOURCE(huart, clocksource);
 800459e:	4b8e      	ldr	r3, [pc, #568]	@ (80047d8 <UART_SetConfig+0x2d8>)
 80045a0:	6d5b      	ldr	r3, [r3, #84]	@ 0x54
 80045a2:	f003 0307 	and.w	r3, r3, #7
 80045a6:	2b05      	cmp	r3, #5
 80045a8:	d8f0      	bhi.n	800458c <UART_SetConfig+0x8c>
 80045aa:	e8df f003 	tbb	[pc, r3]
 80045ae:	5f9d      	.short	0x5f9d
 80045b0:	977e7169 	.word	0x977e7169
 80045b4:	4b88      	ldr	r3, [pc, #544]	@ (80047d8 <UART_SetConfig+0x2d8>)
 80045b6:	6d5b      	ldr	r3, [r3, #84]	@ 0x54
 80045b8:	f003 0338 	and.w	r3, r3, #56	@ 0x38
 80045bc:	2b28      	cmp	r3, #40	@ 0x28
 80045be:	d8e5      	bhi.n	800458c <UART_SetConfig+0x8c>
 80045c0:	a201      	add	r2, pc, #4	@ (adr r2, 80045c8 <UART_SetConfig+0xc8>)
 80045c2:	f852 f023 	ldr.w	pc, [r2, r3, lsl #2]
 80045c6:	bf00      	nop
 80045c8:	08004743 	.word	0x08004743
 80045cc:	0800458d 	.word	0x0800458d
 80045d0:	0800458d 	.word	0x0800458d
 80045d4:	0800458d 	.word	0x0800458d
 80045d8:	0800458d 	.word	0x0800458d
 80045dc:	0800458d 	.word	0x0800458d
 80045e0:	0800458d 	.word	0x0800458d
 80045e4:	0800458d 	.word	0x0800458d
 80045e8:	0800466d 	.word	0x0800466d
 80045ec:	0800458d 	.word	0x0800458d
 80045f0:	0800458d 	.word	0x0800458d
 80045f4:	0800458d 	.word	0x0800458d
 80045f8:	0800458d 	.word	0x0800458d
 80045fc:	0800458d 	.word	0x0800458d
 8004600:	0800458d 	.word	0x0800458d
 8004604:	0800458d 	.word	0x0800458d
 8004608:	08004681 	.word	0x08004681
 800460c:	0800458d 	.word	0x0800458d
 8004610:	0800458d 	.word	0x0800458d
 8004614:	0800458d 	.word	0x0800458d
 8004618:	0800458d 	.word	0x0800458d
 800461c:	0800458d 	.word	0x0800458d
 8004620:	0800458d 	.word	0x0800458d
 8004624:	0800458d 	.word	0x0800458d
 8004628:	08004691 	.word	0x08004691
 800462c:	0800458d 	.word	0x0800458d
 8004630:	0800458d 	.word	0x0800458d
 8004634:	0800458d 	.word	0x0800458d
 8004638:	0800458d 	.word	0x0800458d
 800463c:	0800458d 	.word	0x0800458d
 8004640:	0800458d 	.word	0x0800458d
 8004644:	0800458d 	.word	0x0800458d
 8004648:	080046ab 	.word	0x080046ab
 800464c:	0800458d 	.word	0x0800458d
 8004650:	0800458d 	.word	0x0800458d
 8004654:	0800458d 	.word	0x0800458d
 8004658:	0800458d 	.word	0x0800458d
 800465c:	0800458d 	.word	0x0800458d
 8004660:	0800458d 	.word	0x0800458d
 8004664:	0800458d 	.word	0x0800458d
 8004668:	080046dd 	.word	0x080046dd
  else if (huart->Init.OverSampling == UART_OVERSAMPLING_8)
 800466c:	f5b0 4f00 	cmp.w	r0, #32768	@ 0x8000
 8004670:	d040      	beq.n	80046f4 <UART_SetConfig+0x1f4>
        HAL_RCCEx_GetPLL2ClockFreq(&pll2_clocks);
 8004672:	4668      	mov	r0, sp
 8004674:	f7ff fd96 	bl	80041a4 <HAL_RCCEx_GetPLL2ClockFreq>
        pclk = pll2_clocks.PLL2_Q_Frequency;
 8004678:	9801      	ldr	r0, [sp, #4]
    if (pclk != 0U)
 800467a:	b368      	cbz	r0, 80046d8 <UART_SetConfig+0x1d8>
      usartdiv = (uint32_t)(UART_DIV_SAMPLING16(pclk, huart->Init.BaudRate, huart->Init.ClockPrescaler));
 800467c:	6a65      	ldr	r5, [r4, #36]	@ 0x24
 800467e:	e018      	b.n	80046b2 <UART_SetConfig+0x1b2>
  else if (huart->Init.OverSampling == UART_OVERSAMPLING_8)
 8004680:	f5b0 4f00 	cmp.w	r0, #32768	@ 0x8000
 8004684:	d06d      	beq.n	8004762 <UART_SetConfig+0x262>
        HAL_RCCEx_GetPLL3ClockFreq(&pll3_clocks);
 8004686:	a803      	add	r0, sp, #12
 8004688:	f7ff fe26 	bl	80042d8 <HAL_RCCEx_GetPLL3ClockFreq>
        pclk = pll3_clocks.PLL3_Q_Frequency;
 800468c:	9804      	ldr	r0, [sp, #16]
        break;
 800468e:	e7f4      	b.n	800467a <UART_SetConfig+0x17a>
  else if (huart->Init.OverSampling == UART_OVERSAMPLING_8)
 8004690:	f5b0 4f00 	cmp.w	r0, #32768	@ 0x8000
 8004694:	d05b      	beq.n	800474e <UART_SetConfig+0x24e>
        if (__HAL_RCC_GET_FLAG(RCC_FLAG_HSIDIV) != 0U)
 8004696:	4b50      	ldr	r3, [pc, #320]	@ (80047d8 <UART_SetConfig+0x2d8>)
 8004698:	681a      	ldr	r2, [r3, #0]
 800469a:	0692      	lsls	r2, r2, #26
 800469c:	d54c      	bpl.n	8004738 <UART_SetConfig+0x238>
          pclk = (uint32_t)(HSI_VALUE >> (__HAL_RCC_GET_HSI_DIVIDER() >> 3U));
 800469e:	681b      	ldr	r3, [r3, #0]
 80046a0:	484e      	ldr	r0, [pc, #312]	@ (80047dc <UART_SetConfig+0x2dc>)
 80046a2:	f3c3 03c1 	ubfx	r3, r3, #3, #2
 80046a6:	40d8      	lsrs	r0, r3
    if (pclk != 0U)
 80046a8:	e003      	b.n	80046b2 <UART_SetConfig+0x1b2>
  else if (huart->Init.OverSampling == UART_OVERSAMPLING_8)
 80046aa:	f5b0 4f00 	cmp.w	r0, #32768	@ 0x8000
        pclk = (uint32_t) CSI_VALUE;
 80046ae:	484c      	ldr	r0, [pc, #304]	@ (80047e0 <UART_SetConfig+0x2e0>)
  else if (huart->Init.OverSampling == UART_OVERSAMPLING_8)
 80046b0:	d027      	beq.n	8004702 <UART_SetConfig+0x202>
      usartdiv = (uint32_t)(UART_DIV_SAMPLING16(pclk, huart->Init.BaudRate, huart->Init.ClockPrescaler));
 80046b2:	4a4c      	ldr	r2, [pc, #304]	@ (80047e4 <UART_SetConfig+0x2e4>)
 80046b4:	6863      	ldr	r3, [r4, #4]
 80046b6:	f832 1015 	ldrh.w	r1, [r2, r5, lsl #1]
      if ((usartdiv >= UART_BRR_MIN) && (usartdiv <= UART_BRR_MAX))
 80046ba:	f64f 72ef 	movw	r2, #65519	@ 0xffef
      usartdiv = (uint32_t)(UART_DIV_SAMPLING16(pclk, huart->Init.BaudRate, huart->Init.ClockPrescaler));
 80046be:	fbb0 f0f1 	udiv	r0, r0, r1
 80046c2:	eb00 0053 	add.w	r0, r0, r3, lsr #1
 80046c6:	fbb0 f0f3 	udiv	r0, r0, r3
      if ((usartdiv >= UART_BRR_MIN) && (usartdiv <= UART_BRR_MAX))
 80046ca:	f1a0 0310 	sub.w	r3, r0, #16
 80046ce:	4293      	cmp	r3, r2
 80046d0:	f63f af5c 	bhi.w	800458c <UART_SetConfig+0x8c>
          huart->Instance->BRR = usartdiv;
 80046d4:	6823      	ldr	r3, [r4, #0]
 80046d6:	60d8      	str	r0, [r3, #12]
          pclk = (uint32_t) HSI_VALUE;
 80046d8:	2000      	movs	r0, #0
 80046da:	e758      	b.n	800458e <UART_SetConfig+0x8e>
  else if (huart->Init.OverSampling == UART_OVERSAMPLING_8)
 80046dc:	f5b0 4f00 	cmp.w	r0, #32768	@ 0x8000
 80046e0:	d00f      	beq.n	8004702 <UART_SetConfig+0x202>
        pclk = (uint32_t) LSE_VALUE;
 80046e2:	f44f 4000 	mov.w	r0, #32768	@ 0x8000
 80046e6:	e7e4      	b.n	80046b2 <UART_SetConfig+0x1b2>
  else if (huart->Init.OverSampling == UART_OVERSAMPLING_8)
 80046e8:	f5b0 4f00 	cmp.w	r0, #32768	@ 0x8000
 80046ec:	d026      	beq.n	800473c <UART_SetConfig+0x23c>
        pclk = HAL_RCC_GetPCLK1Freq();
 80046ee:	f7fe fcd1 	bl	8003094 <HAL_RCC_GetPCLK1Freq>
        break;
 80046f2:	e7c2      	b.n	800467a <UART_SetConfig+0x17a>
        HAL_RCCEx_GetPLL2ClockFreq(&pll2_clocks);
 80046f4:	4668      	mov	r0, sp
 80046f6:	f7ff fd55 	bl	80041a4 <HAL_RCCEx_GetPLL2ClockFreq>
        pclk = pll2_clocks.PLL2_Q_Frequency;
 80046fa:	9801      	ldr	r0, [sp, #4]
    if (pclk != 0U)
 80046fc:	2800      	cmp	r0, #0
 80046fe:	d0eb      	beq.n	80046d8 <UART_SetConfig+0x1d8>
      usartdiv = (uint32_t)(UART_DIV_SAMPLING8(pclk, huart->Init.BaudRate, huart->Init.ClockPrescaler));
 8004700:	6a65      	ldr	r5, [r4, #36]	@ 0x24
 8004702:	4b38      	ldr	r3, [pc, #224]	@ (80047e4 <UART_SetConfig+0x2e4>)
 8004704:	6862      	ldr	r2, [r4, #4]
 8004706:	f833 1015 	ldrh.w	r1, [r3, r5, lsl #1]
 800470a:	0853      	lsrs	r3, r2, #1
 800470c:	fbb0 f0f1 	udiv	r0, r0, r1
 8004710:	eb03 0340 	add.w	r3, r3, r0, lsl #1
      if ((usartdiv >= UART_BRR_MIN) && (usartdiv <= UART_BRR_MAX))
 8004714:	f64f 71ef 	movw	r1, #65519	@ 0xffef
      usartdiv = (uint32_t)(UART_DIV_SAMPLING8(pclk, huart->Init.BaudRate, huart->Init.ClockPrescaler));
 8004718:	fbb3 f3f2 	udiv	r3, r3, r2
      if ((usartdiv >= UART_BRR_MIN) && (usartdiv <= UART_BRR_MAX))
 800471c:	f1a3 0210 	sub.w	r2, r3, #16
 8004720:	428a      	cmp	r2, r1
 8004722:	f63f af33 	bhi.w	800458c <UART_SetConfig+0x8c>
        brrtemp = (uint16_t)(usartdiv & 0xFFF0U);
 8004726:	f023 020f 	bic.w	r2, r3, #15
        brrtemp |= (uint16_t)((usartdiv & (uint16_t)0x000FU) >> 1U);
 800472a:	f3c3 0342 	ubfx	r3, r3, #1, #3
        huart->Instance->BRR = brrtemp;
 800472e:	6821      	ldr	r1, [r4, #0]
        brrtemp = (uint16_t)(usartdiv & 0xFFF0U);
 8004730:	b292      	uxth	r2, r2
        huart->Instance->BRR = brrtemp;
 8004732:	4313      	orrs	r3, r2
 8004734:	60cb      	str	r3, [r1, #12]
 8004736:	e7cf      	b.n	80046d8 <UART_SetConfig+0x1d8>
          pclk = (uint32_t) HSI_VALUE;
 8004738:	4828      	ldr	r0, [pc, #160]	@ (80047dc <UART_SetConfig+0x2dc>)
 800473a:	e7ba      	b.n	80046b2 <UART_SetConfig+0x1b2>
        pclk = HAL_RCC_GetPCLK1Freq();
 800473c:	f7fe fcaa 	bl	8003094 <HAL_RCC_GetPCLK1Freq>
        break;
 8004740:	e7dc      	b.n	80046fc <UART_SetConfig+0x1fc>
  else if (huart->Init.OverSampling == UART_OVERSAMPLING_8)
 8004742:	f5b0 4f00 	cmp.w	r0, #32768	@ 0x8000
 8004746:	d011      	beq.n	800476c <UART_SetConfig+0x26c>
        pclk = HAL_RCC_GetPCLK2Freq();
 8004748:	f7fe fcec 	bl	8003124 <HAL_RCC_GetPCLK2Freq>
        break;
 800474c:	e795      	b.n	800467a <UART_SetConfig+0x17a>
        if (__HAL_RCC_GET_FLAG(RCC_FLAG_HSIDIV) != 0U)
 800474e:	4b22      	ldr	r3, [pc, #136]	@ (80047d8 <UART_SetConfig+0x2d8>)
 8004750:	681a      	ldr	r2, [r3, #0]
 8004752:	0691      	lsls	r1, r2, #26
 8004754:	d50d      	bpl.n	8004772 <UART_SetConfig+0x272>
          pclk = (uint32_t)(HSI_VALUE >> (__HAL_RCC_GET_HSI_DIVIDER() >> 3U));
 8004756:	681b      	ldr	r3, [r3, #0]
 8004758:	4820      	ldr	r0, [pc, #128]	@ (80047dc <UART_SetConfig+0x2dc>)
 800475a:	f3c3 03c1 	ubfx	r3, r3, #3, #2
 800475e:	40d8      	lsrs	r0, r3
    if (pclk != 0U)
 8004760:	e7cf      	b.n	8004702 <UART_SetConfig+0x202>
        HAL_RCCEx_GetPLL3ClockFreq(&pll3_clocks);
 8004762:	a803      	add	r0, sp, #12
 8004764:	f7ff fdb8 	bl	80042d8 <HAL_RCCEx_GetPLL3ClockFreq>
        pclk = pll3_clocks.PLL3_Q_Frequency;
 8004768:	9804      	ldr	r0, [sp, #16]
        break;
 800476a:	e7c7      	b.n	80046fc <UART_SetConfig+0x1fc>
        pclk = HAL_RCC_GetPCLK2Freq();
 800476c:	f7fe fcda 	bl	8003124 <HAL_RCC_GetPCLK2Freq>
        break;
 8004770:	e7c4      	b.n	80046fc <UART_SetConfig+0x1fc>
          pclk = (uint32_t) HSI_VALUE;
 8004772:	481a      	ldr	r0, [pc, #104]	@ (80047dc <UART_SetConfig+0x2dc>)
 8004774:	e7c5      	b.n	8004702 <UART_SetConfig+0x202>
  MODIFY_REG(huart->Instance->CR3, USART_CR3_FIELDS, tmpreg);
 8004776:	6898      	ldr	r0, [r3, #8]
 8004778:	4a0c      	ldr	r2, [pc, #48]	@ (80047ac <UART_SetConfig+0x2ac>)
 800477a:	4002      	ands	r2, r0
 800477c:	430a      	orrs	r2, r1
  UART_GETCLOCKSOURCE(huart, clocksource);
 800477e:	4916      	ldr	r1, [pc, #88]	@ (80047d8 <UART_SetConfig+0x2d8>)
  MODIFY_REG(huart->Instance->CR3, USART_CR3_FIELDS, tmpreg);
 8004780:	609a      	str	r2, [r3, #8]
  MODIFY_REG(huart->Instance->PRESC, USART_PRESC_PRESCALER, huart->Init.ClockPrescaler);
 8004782:	6ada      	ldr	r2, [r3, #44]	@ 0x2c
 8004784:	f022 020f 	bic.w	r2, r2, #15
 8004788:	432a      	orrs	r2, r5
 800478a:	62da      	str	r2, [r3, #44]	@ 0x2c
  UART_GETCLOCKSOURCE(huart, clocksource);
 800478c:	6d8b      	ldr	r3, [r1, #88]	@ 0x58
 800478e:	f003 0307 	and.w	r3, r3, #7
 8004792:	2b05      	cmp	r3, #5
 8004794:	f63f aefa 	bhi.w	800458c <UART_SetConfig+0x8c>
 8004798:	e8df f003 	tbb	[pc, r3]
 800479c:	26525b60 	.word	0x26525b60
 80047a0:	6366      	.short	0x6366
 80047a2:	bf00      	nop
 80047a4:	cfff69f3 	.word	0xcfff69f3
 80047a8:	58000c00 	.word	0x58000c00
 80047ac:	11fff4ff 	.word	0x11fff4ff
 80047b0:	40011000 	.word	0x40011000
 80047b4:	40004400 	.word	0x40004400
 80047b8:	40004800 	.word	0x40004800
 80047bc:	40004c00 	.word	0x40004c00
 80047c0:	40005000 	.word	0x40005000
 80047c4:	40011400 	.word	0x40011400
 80047c8:	40007800 	.word	0x40007800
 80047cc:	40007c00 	.word	0x40007c00
 80047d0:	40011800 	.word	0x40011800
 80047d4:	40011c00 	.word	0x40011c00
 80047d8:	58024400 	.word	0x58024400
 80047dc:	03d09000 	.word	0x03d09000
 80047e0:	003d0900 	.word	0x003d0900
 80047e4:	0800754c 	.word	0x0800754c
        if (__HAL_RCC_GET_FLAG(RCC_FLAG_HSIDIV) != 0U)
 80047e8:	4b23      	ldr	r3, [pc, #140]	@ (8004878 <UART_SetConfig+0x378>)
 80047ea:	681a      	ldr	r2, [r3, #0]
 80047ec:	0690      	lsls	r0, r2, #26
 80047ee:	d43d      	bmi.n	800486c <UART_SetConfig+0x36c>
          pclk = (uint32_t) HSI_VALUE;
 80047f0:	4822      	ldr	r0, [pc, #136]	@ (800487c <UART_SetConfig+0x37c>)
      lpuart_ker_ck_pres = (pclk / UARTPrescTable[huart->Init.ClockPrescaler]);
 80047f2:	4b23      	ldr	r3, [pc, #140]	@ (8004880 <UART_SetConfig+0x380>)
      if ((lpuart_ker_ck_pres < (3U * huart->Init.BaudRate)) ||
 80047f4:	6866      	ldr	r6, [r4, #4]
      lpuart_ker_ck_pres = (pclk / UARTPrescTable[huart->Init.ClockPrescaler]);
 80047f6:	f833 2015 	ldrh.w	r2, [r3, r5, lsl #1]
      if ((lpuart_ker_ck_pres < (3U * huart->Init.BaudRate)) ||
 80047fa:	eb06 0146 	add.w	r1, r6, r6, lsl #1
      lpuart_ker_ck_pres = (pclk / UARTPrescTable[huart->Init.ClockPrescaler]);
 80047fe:	fbb0 f3f2 	udiv	r3, r0, r2
      if ((lpuart_ker_ck_pres < (3U * huart->Init.BaudRate)) ||
 8004802:	4299      	cmp	r1, r3
 8004804:	f63f aec2 	bhi.w	800458c <UART_SetConfig+0x8c>
 8004808:	ebb3 3f06 	cmp.w	r3, r6, lsl #12
 800480c:	f63f aebe 	bhi.w	800458c <UART_SetConfig+0x8c>
        usartdiv = (uint32_t)(UART_DIV_LPUART(pclk, huart->Init.BaudRate, huart->Init.ClockPrescaler));
 8004810:	2300      	movs	r3, #0
 8004812:	4619      	mov	r1, r3
 8004814:	f7fb fdd4 	bl	80003c0 <__aeabi_uldivmod>
 8004818:	4632      	mov	r2, r6
 800481a:	0209      	lsls	r1, r1, #8
 800481c:	0203      	lsls	r3, r0, #8
 800481e:	ea41 6110 	orr.w	r1, r1, r0, lsr #24
 8004822:	0870      	lsrs	r0, r6, #1
 8004824:	1818      	adds	r0, r3, r0
 8004826:	f04f 0300 	mov.w	r3, #0
 800482a:	f141 0100 	adc.w	r1, r1, #0
 800482e:	f7fb fdc7 	bl	80003c0 <__aeabi_uldivmod>
        if ((usartdiv >= LPUART_BRR_MIN) && (usartdiv <= LPUART_BRR_MAX))
 8004832:	4b14      	ldr	r3, [pc, #80]	@ (8004884 <UART_SetConfig+0x384>)
 8004834:	f5a0 7240 	sub.w	r2, r0, #768	@ 0x300
 8004838:	429a      	cmp	r2, r3
 800483a:	f63f aea7 	bhi.w	800458c <UART_SetConfig+0x8c>
 800483e:	e749      	b.n	80046d4 <UART_SetConfig+0x1d4>
        HAL_RCCEx_GetPLL3ClockFreq(&pll3_clocks);
 8004840:	a803      	add	r0, sp, #12
 8004842:	f7ff fd49 	bl	80042d8 <HAL_RCCEx_GetPLL3ClockFreq>
        pclk = pll3_clocks.PLL3_Q_Frequency;
 8004846:	9804      	ldr	r0, [sp, #16]
    if (pclk != 0U)
 8004848:	2800      	cmp	r0, #0
 800484a:	f43f af45 	beq.w	80046d8 <UART_SetConfig+0x1d8>
      lpuart_ker_ck_pres = (pclk / UARTPrescTable[huart->Init.ClockPrescaler]);
 800484e:	6a65      	ldr	r5, [r4, #36]	@ 0x24
 8004850:	e7cf      	b.n	80047f2 <UART_SetConfig+0x2f2>
        HAL_RCCEx_GetPLL2ClockFreq(&pll2_clocks);
 8004852:	4668      	mov	r0, sp
 8004854:	f7ff fca6 	bl	80041a4 <HAL_RCCEx_GetPLL2ClockFreq>
        pclk = pll2_clocks.PLL2_Q_Frequency;
 8004858:	9801      	ldr	r0, [sp, #4]
        break;
 800485a:	e7f5      	b.n	8004848 <UART_SetConfig+0x348>
        pclk = HAL_RCCEx_GetD3PCLK1Freq();
 800485c:	f7ff fc90 	bl	8004180 <HAL_RCCEx_GetD3PCLK1Freq>
        break;
 8004860:	e7f2      	b.n	8004848 <UART_SetConfig+0x348>
        pclk = (uint32_t) LSE_VALUE;
 8004862:	f44f 4000 	mov.w	r0, #32768	@ 0x8000
 8004866:	e7c4      	b.n	80047f2 <UART_SetConfig+0x2f2>
        pclk = (uint32_t) CSI_VALUE;
 8004868:	4807      	ldr	r0, [pc, #28]	@ (8004888 <UART_SetConfig+0x388>)
 800486a:	e7c2      	b.n	80047f2 <UART_SetConfig+0x2f2>
          pclk = (uint32_t)(HSI_VALUE >> (__HAL_RCC_GET_HSI_DIVIDER() >> 3U));
 800486c:	681b      	ldr	r3, [r3, #0]
 800486e:	4803      	ldr	r0, [pc, #12]	@ (800487c <UART_SetConfig+0x37c>)
 8004870:	f3c3 03c1 	ubfx	r3, r3, #3, #2
 8004874:	40d8      	lsrs	r0, r3
    if (pclk != 0U)
 8004876:	e7bc      	b.n	80047f2 <UART_SetConfig+0x2f2>
 8004878:	58024400 	.word	0x58024400
 800487c:	03d09000 	.word	0x03d09000
 8004880:	0800754c 	.word	0x0800754c
 8004884:	000ffcff 	.word	0x000ffcff
 8004888:	003d0900 	.word	0x003d0900

0800488c <UART_AdvFeatureConfig>:
  if (HAL_IS_BIT_SET(huart->AdvancedInit.AdvFeatureInit, UART_ADVFEATURE_SWAP_INIT))
 800488c:	6a83      	ldr	r3, [r0, #40]	@ 0x28
 800488e:	071a      	lsls	r2, r3, #28
{
 8004890:	b410      	push	{r4}
  if (HAL_IS_BIT_SET(huart->AdvancedInit.AdvFeatureInit, UART_ADVFEATURE_SWAP_INIT))
 8004892:	d506      	bpl.n	80048a2 <UART_AdvFeatureConfig+0x16>
    MODIFY_REG(huart->Instance->CR2, USART_CR2_SWAP, huart->AdvancedInit.Swap);
 8004894:	6801      	ldr	r1, [r0, #0]
 8004896:	6b84      	ldr	r4, [r0, #56]	@ 0x38
 8004898:	684a      	ldr	r2, [r1, #4]
 800489a:	f422 4200 	bic.w	r2, r2, #32768	@ 0x8000
 800489e:	4322      	orrs	r2, r4
 80048a0:	604a      	str	r2, [r1, #4]
  if (HAL_IS_BIT_SET(huart->AdvancedInit.AdvFeatureInit, UART_ADVFEATURE_TXINVERT_INIT))
 80048a2:	07dc      	lsls	r4, r3, #31
 80048a4:	d506      	bpl.n	80048b4 <UART_AdvFeatureConfig+0x28>
    MODIFY_REG(huart->Instance->CR2, USART_CR2_TXINV, huart->AdvancedInit.TxPinLevelInvert);
 80048a6:	6801      	ldr	r1, [r0, #0]
 80048a8:	6ac4      	ldr	r4, [r0, #44]	@ 0x2c
 80048aa:	684a      	ldr	r2, [r1, #4]
 80048ac:	f422 3200 	bic.w	r2, r2, #131072	@ 0x20000
 80048b0:	4322      	orrs	r2, r4
 80048b2:	604a      	str	r2, [r1, #4]
  if (HAL_IS_BIT_SET(huart->AdvancedInit.AdvFeatureInit, UART_ADVFEATURE_RXINVERT_INIT))
 80048b4:	0799      	lsls	r1, r3, #30
 80048b6:	d506      	bpl.n	80048c6 <UART_AdvFeatureConfig+0x3a>
    MODIFY_REG(huart->Instance->CR2, USART_CR2_RXINV, huart->AdvancedInit.RxPinLevelInvert);
 80048b8:	6801      	ldr	r1, [r0, #0]
 80048ba:	6b04      	ldr	r4, [r0, #48]	@ 0x30
 80048bc:	684a      	ldr	r2, [r1, #4]
 80048be:	f422 3280 	bic.w	r2, r2, #65536	@ 0x10000
 80048c2:	4322      	orrs	r2, r4
 80048c4:	604a      	str	r2, [r1, #4]
  if (HAL_IS_BIT_SET(huart->AdvancedInit.AdvFeatureInit, UART_ADVFEATURE_DATAINVERT_INIT))
 80048c6:	075a      	lsls	r2, r3, #29
 80048c8:	d506      	bpl.n	80048d8 <UART_AdvFeatureConfig+0x4c>
    MODIFY_REG(huart->Instance->CR2, USART_CR2_DATAINV, huart->AdvancedInit.DataInvert);
 80048ca:	6801      	ldr	r1, [r0, #0]
 80048cc:	6b44      	ldr	r4, [r0, #52]	@ 0x34
 80048ce:	684a      	ldr	r2, [r1, #4]
 80048d0:	f422 2280 	bic.w	r2, r2, #262144	@ 0x40000
 80048d4:	4322      	orrs	r2, r4
 80048d6:	604a      	str	r2, [r1, #4]
  if (HAL_IS_BIT_SET(huart->AdvancedInit.AdvFeatureInit, UART_ADVFEATURE_RXOVERRUNDISABLE_INIT))
 80048d8:	06dc      	lsls	r4, r3, #27
 80048da:	d506      	bpl.n	80048ea <UART_AdvFeatureConfig+0x5e>
    MODIFY_REG(huart->Instance->CR3, USART_CR3_OVRDIS, huart->AdvancedInit.OverrunDisable);
 80048dc:	6801      	ldr	r1, [r0, #0]
 80048de:	6bc4      	ldr	r4, [r0, #60]	@ 0x3c
 80048e0:	688a      	ldr	r2, [r1, #8]
 80048e2:	f422 5280 	bic.w	r2, r2, #4096	@ 0x1000
 80048e6:	4322      	orrs	r2, r4
 80048e8:	608a      	str	r2, [r1, #8]
  if (HAL_IS_BIT_SET(huart->AdvancedInit.AdvFeatureInit, UART_ADVFEATURE_DMADISABLEONERROR_INIT))
 80048ea:	0699      	lsls	r1, r3, #26
 80048ec:	d506      	bpl.n	80048fc <UART_AdvFeatureConfig+0x70>
    MODIFY_REG(huart->Instance->CR3, USART_CR3_DDRE, huart->AdvancedInit.DMADisableonRxError);
 80048ee:	6801      	ldr	r1, [r0, #0]
 80048f0:	6c04      	ldr	r4, [r0, #64]	@ 0x40
 80048f2:	688a      	ldr	r2, [r1, #8]
 80048f4:	f422 5200 	bic.w	r2, r2, #8192	@ 0x2000
 80048f8:	4322      	orrs	r2, r4
 80048fa:	608a      	str	r2, [r1, #8]
  if (HAL_IS_BIT_SET(huart->AdvancedInit.AdvFeatureInit, UART_ADVFEATURE_AUTOBAUDRATE_INIT))
 80048fc:	065a      	lsls	r2, r3, #25
 80048fe:	d50a      	bpl.n	8004916 <UART_AdvFeatureConfig+0x8a>
    MODIFY_REG(huart->Instance->CR2, USART_CR2_ABREN, huart->AdvancedInit.AutoBaudRateEnable);
 8004900:	6801      	ldr	r1, [r0, #0]
 8004902:	6c44      	ldr	r4, [r0, #68]	@ 0x44
 8004904:	684a      	ldr	r2, [r1, #4]
    if (huart->AdvancedInit.AutoBaudRateEnable == UART_ADVFEATURE_AUTOBAUDRATE_ENABLE)
 8004906:	f5b4 1f80 	cmp.w	r4, #1048576	@ 0x100000
    MODIFY_REG(huart->Instance->CR2, USART_CR2_ABREN, huart->AdvancedInit.AutoBaudRateEnable);
 800490a:	f422 1280 	bic.w	r2, r2, #1048576	@ 0x100000
 800490e:	ea42 0204 	orr.w	r2, r2, r4
 8004912:	604a      	str	r2, [r1, #4]
    if (huart->AdvancedInit.AutoBaudRateEnable == UART_ADVFEATURE_AUTOBAUDRATE_ENABLE)
 8004914:	d00b      	beq.n	800492e <UART_AdvFeatureConfig+0xa2>
  if (HAL_IS_BIT_SET(huart->AdvancedInit.AdvFeatureInit, UART_ADVFEATURE_MSBFIRST_INIT))
 8004916:	061b      	lsls	r3, r3, #24
 8004918:	d506      	bpl.n	8004928 <UART_AdvFeatureConfig+0x9c>
    MODIFY_REG(huart->Instance->CR2, USART_CR2_MSBFIRST, huart->AdvancedInit.MSBFirst);
 800491a:	6802      	ldr	r2, [r0, #0]
 800491c:	6cc1      	ldr	r1, [r0, #76]	@ 0x4c
 800491e:	6853      	ldr	r3, [r2, #4]
 8004920:	f423 2300 	bic.w	r3, r3, #524288	@ 0x80000
 8004924:	430b      	orrs	r3, r1
 8004926:	6053      	str	r3, [r2, #4]
}
 8004928:	f85d 4b04 	ldr.w	r4, [sp], #4
 800492c:	4770      	bx	lr
      MODIFY_REG(huart->Instance->CR2, USART_CR2_ABRMODE, huart->AdvancedInit.AutoBaudRateMode);
 800492e:	684a      	ldr	r2, [r1, #4]
 8004930:	6c84      	ldr	r4, [r0, #72]	@ 0x48
 8004932:	f422 02c0 	bic.w	r2, r2, #6291456	@ 0x600000
 8004936:	4322      	orrs	r2, r4
 8004938:	604a      	str	r2, [r1, #4]
 800493a:	e7ec      	b.n	8004916 <UART_AdvFeatureConfig+0x8a>

0800493c <UART_CheckIdleState>:
{
 800493c:	b538      	push	{r3, r4, r5, lr}
  huart->ErrorCode = HAL_UART_ERROR_NONE;
 800493e:	2300      	movs	r3, #0
{
 8004940:	4604      	mov	r4, r0
  huart->ErrorCode = HAL_UART_ERROR_NONE;
 8004942:	f8c0 3090 	str.w	r3, [r0, #144]	@ 0x90
  tickstart = HAL_GetTick();
 8004946:	f7fc faa1 	bl	8000e8c <HAL_GetTick>
  if ((huart->Instance->CR1 & USART_CR1_TE) == USART_CR1_TE)
 800494a:	6822      	ldr	r2, [r4, #0]
  tickstart = HAL_GetTick();
 800494c:	4605      	mov	r5, r0
  if ((huart->Instance->CR1 & USART_CR1_TE) == USART_CR1_TE)
 800494e:	6813      	ldr	r3, [r2, #0]
 8004950:	071b      	lsls	r3, r3, #28
 8004952:	d40f      	bmi.n	8004974 <UART_CheckIdleState+0x38>
  if ((huart->Instance->CR1 & USART_CR1_RE) == USART_CR1_RE)
 8004954:	6813      	ldr	r3, [r2, #0]
 8004956:	0759      	lsls	r1, r3, #29
 8004958:	d431      	bmi.n	80049be <UART_CheckIdleState+0x82>
  huart->ReceptionType = HAL_UART_RECEPTION_STANDARD;
 800495a:	2300      	movs	r3, #0
  huart->gState = HAL_UART_STATE_READY;
 800495c:	2220      	movs	r2, #32
  return HAL_OK;
 800495e:	4618      	mov	r0, r3
  huart->gState = HAL_UART_STATE_READY;
 8004960:	f8c4 2088 	str.w	r2, [r4, #136]	@ 0x88
  huart->RxState = HAL_UART_STATE_READY;
 8004964:	f8c4 208c 	str.w	r2, [r4, #140]	@ 0x8c
  huart->ReceptionType = HAL_UART_RECEPTION_STANDARD;
 8004968:	66e3      	str	r3, [r4, #108]	@ 0x6c
  huart->RxEventType = HAL_UART_RXEVENT_TC;
 800496a:	6723      	str	r3, [r4, #112]	@ 0x70
      __HAL_UNLOCK(huart);
 800496c:	2300      	movs	r3, #0
 800496e:	f884 3084 	strb.w	r3, [r4, #132]	@ 0x84
}
 8004972:	bd38      	pop	{r3, r4, r5, pc}
  while ((__HAL_UART_GET_FLAG(huart, Flag) ? SET : RESET) == Status)
 8004974:	69d3      	ldr	r3, [r2, #28]
 8004976:	0298      	lsls	r0, r3, #10
 8004978:	d4ec      	bmi.n	8004954 <UART_CheckIdleState+0x18>
 800497a:	e00c      	b.n	8004996 <UART_CheckIdleState+0x5a>
      if ((READ_BIT(huart->Instance->CR1, USART_CR1_RE) != 0U) && (Flag != UART_FLAG_TXE) && (Flag != UART_FLAG_TC))
 800497c:	6819      	ldr	r1, [r3, #0]
 800497e:	461a      	mov	r2, r3
 8004980:	0749      	lsls	r1, r1, #29
 8004982:	d505      	bpl.n	8004990 <UART_CheckIdleState+0x54>
      {
        if (__HAL_UART_GET_FLAG(huart, UART_FLAG_ORE) == SET)
 8004984:	69d9      	ldr	r1, [r3, #28]
 8004986:	0708      	lsls	r0, r1, #28
 8004988:	d44a      	bmi.n	8004a20 <UART_CheckIdleState+0xe4>
          /* Process Unlocked */
          __HAL_UNLOCK(huart);

          return HAL_ERROR;
        }
        if (__HAL_UART_GET_FLAG(huart, UART_FLAG_RTOF) == SET)
 800498a:	69d9      	ldr	r1, [r3, #28]
 800498c:	0509      	lsls	r1, r1, #20
 800498e:	d475      	bmi.n	8004a7c <UART_CheckIdleState+0x140>
  while ((__HAL_UART_GET_FLAG(huart, Flag) ? SET : RESET) == Status)
 8004990:	69db      	ldr	r3, [r3, #28]
 8004992:	0298      	lsls	r0, r3, #10
 8004994:	d4de      	bmi.n	8004954 <UART_CheckIdleState+0x18>
      if (((HAL_GetTick() - Tickstart) > Timeout) || (Timeout == 0U))
 8004996:	f7fc fa79 	bl	8000e8c <HAL_GetTick>
 800499a:	1b43      	subs	r3, r0, r5
 800499c:	f1b3 7f00 	cmp.w	r3, #33554432	@ 0x2000000
      if ((READ_BIT(huart->Instance->CR1, USART_CR1_RE) != 0U) && (Flag != UART_FLAG_TXE) && (Flag != UART_FLAG_TC))
 80049a0:	6823      	ldr	r3, [r4, #0]
      if (((HAL_GetTick() - Tickstart) > Timeout) || (Timeout == 0U))
 80049a2:	d3eb      	bcc.n	800497c <UART_CheckIdleState+0x40>
 */
__STATIC_FORCEINLINE uint32_t __LDREXW(volatile uint32_t *addr)
{
    uint32_t result;

   __ASM volatile ("ldrex %0, %1" : "=r" (result) : "Q" (*addr) );
 80049a4:	e853 2f00 	ldrex	r2, [r3]
      ATOMIC_CLEAR_BIT(huart->Instance->CR1, (USART_CR1_TXEIE_TXFNFIE));
 80049a8:	f022 0280 	bic.w	r2, r2, #128	@ 0x80
 */
__STATIC_FORCEINLINE uint32_t __STREXW(uint32_t value, volatile uint32_t *addr)
{
   uint32_t result;

   __ASM volatile ("strex %0, %2, %1" : "=&r" (result), "=Q" (*addr) : "r" (value) );
 80049ac:	e843 2100 	strex	r1, r2, [r3]
 80049b0:	2900      	cmp	r1, #0
 80049b2:	d1f7      	bne.n	80049a4 <UART_CheckIdleState+0x68>
      huart->gState = HAL_UART_STATE_READY;
 80049b4:	2320      	movs	r3, #32
 80049b6:	f8c4 3088 	str.w	r3, [r4, #136]	@ 0x88
      return HAL_TIMEOUT;
 80049ba:	2003      	movs	r0, #3
 80049bc:	e7d6      	b.n	800496c <UART_CheckIdleState+0x30>
  while ((__HAL_UART_GET_FLAG(huart, Flag) ? SET : RESET) == Status)
 80049be:	69d3      	ldr	r3, [r2, #28]
 80049c0:	025b      	lsls	r3, r3, #9
 80049c2:	d4ca      	bmi.n	800495a <UART_CheckIdleState+0x1e>
 80049c4:	e00d      	b.n	80049e2 <UART_CheckIdleState+0xa6>
      if ((READ_BIT(huart->Instance->CR1, USART_CR1_RE) != 0U) && (Flag != UART_FLAG_TXE) && (Flag != UART_FLAG_TC))
 80049c6:	681a      	ldr	r2, [r3, #0]
 80049c8:	0750      	lsls	r0, r2, #29
 80049ca:	d507      	bpl.n	80049dc <UART_CheckIdleState+0xa0>
        if (__HAL_UART_GET_FLAG(huart, UART_FLAG_ORE) == SET)
 80049cc:	69da      	ldr	r2, [r3, #28]
 80049ce:	0711      	lsls	r1, r2, #28
 80049d0:	f100 8082 	bmi.w	8004ad8 <UART_CheckIdleState+0x19c>
        if (__HAL_UART_GET_FLAG(huart, UART_FLAG_RTOF) == SET)
 80049d4:	69da      	ldr	r2, [r3, #28]
 80049d6:	0512      	lsls	r2, r2, #20
 80049d8:	f100 80ac 	bmi.w	8004b34 <UART_CheckIdleState+0x1f8>
  while ((__HAL_UART_GET_FLAG(huart, Flag) ? SET : RESET) == Status)
 80049dc:	69db      	ldr	r3, [r3, #28]
 80049de:	025b      	lsls	r3, r3, #9
 80049e0:	d4bb      	bmi.n	800495a <UART_CheckIdleState+0x1e>
      if (((HAL_GetTick() - Tickstart) > Timeout) || (Timeout == 0U))
 80049e2:	f7fc fa53 	bl	8000e8c <HAL_GetTick>
 80049e6:	1b43      	subs	r3, r0, r5
 80049e8:	f1b3 7f00 	cmp.w	r3, #33554432	@ 0x2000000
 80049ec:	6823      	ldr	r3, [r4, #0]
 80049ee:	d3ea      	bcc.n	80049c6 <UART_CheckIdleState+0x8a>
   __ASM volatile ("ldrex %0, %1" : "=r" (result) : "Q" (*addr) );
 80049f0:	e853 2f00 	ldrex	r2, [r3]
      ATOMIC_CLEAR_BIT(huart->Instance->CR1, (USART_CR1_RXNEIE_RXFNEIE | USART_CR1_PEIE));
 80049f4:	f422 7290 	bic.w	r2, r2, #288	@ 0x120
   __ASM volatile ("strex %0, %2, %1" : "=&r" (result), "=Q" (*addr) : "r" (value) );
 80049f8:	e843 2100 	strex	r1, r2, [r3]
 80049fc:	2900      	cmp	r1, #0
 80049fe:	d1f7      	bne.n	80049f0 <UART_CheckIdleState+0xb4>
   __ASM volatile ("ldrex %0, %1" : "=r" (result) : "Q" (*addr) );
 8004a00:	f103 0208 	add.w	r2, r3, #8
 8004a04:	e852 2f00 	ldrex	r2, [r2]
      ATOMIC_CLEAR_BIT(huart->Instance->CR3, USART_CR3_EIE);
 8004a08:	f022 0201 	bic.w	r2, r2, #1
   __ASM volatile ("strex %0, %2, %1" : "=&r" (result), "=Q" (*addr) : "r" (value) );
 8004a0c:	f103 0008 	add.w	r0, r3, #8
 8004a10:	e840 2100 	strex	r1, r2, [r0]
 8004a14:	2900      	cmp	r1, #0
 8004a16:	d1f3      	bne.n	8004a00 <UART_CheckIdleState+0xc4>
      huart->RxState = HAL_UART_STATE_READY;
 8004a18:	2320      	movs	r3, #32
 8004a1a:	f8c4 308c 	str.w	r3, [r4, #140]	@ 0x8c
      return HAL_TIMEOUT;
 8004a1e:	e7cc      	b.n	80049ba <UART_CheckIdleState+0x7e>
          __HAL_UART_CLEAR_FLAG(huart, UART_CLEAR_OREF);
 8004a20:	2208      	movs	r2, #8
 8004a22:	621a      	str	r2, [r3, #32]
   __ASM volatile ("ldrex %0, %1" : "=r" (result) : "Q" (*addr) );
 8004a24:	e853 2f00 	ldrex	r2, [r3]
  * @retval None
  */
static void UART_EndRxTransfer(UART_HandleTypeDef *huart)
{
  /* Disable RXNE, PE and ERR (Frame error, noise error, overrun error) interrupts */
  ATOMIC_CLEAR_BIT(huart->Instance->CR1, (USART_CR1_RXNEIE_RXFNEIE | USART_CR1_PEIE));
 8004a28:	f422 7290 	bic.w	r2, r2, #288	@ 0x120
   __ASM volatile ("strex %0, %2, %1" : "=&r" (result), "=Q" (*addr) : "r" (value) );
 8004a2c:	e843 2100 	strex	r1, r2, [r3]
 8004a30:	2900      	cmp	r1, #0
 8004a32:	d1f7      	bne.n	8004a24 <UART_CheckIdleState+0xe8>
  ATOMIC_CLEAR_BIT(huart->Instance->CR3, (USART_CR3_EIE | USART_CR3_RXFTIE));
 8004a34:	4856      	ldr	r0, [pc, #344]	@ (8004b90 <UART_CheckIdleState+0x254>)
   __ASM volatile ("ldrex %0, %1" : "=r" (result) : "Q" (*addr) );
 8004a36:	f103 0208 	add.w	r2, r3, #8
 8004a3a:	e852 2f00 	ldrex	r2, [r2]
 8004a3e:	4002      	ands	r2, r0
   __ASM volatile ("strex %0, %2, %1" : "=&r" (result), "=Q" (*addr) : "r" (value) );
 8004a40:	f103 0508 	add.w	r5, r3, #8
 8004a44:	e845 2100 	strex	r1, r2, [r5]
 8004a48:	2900      	cmp	r1, #0
 8004a4a:	d1f4      	bne.n	8004a36 <UART_CheckIdleState+0xfa>

  /* In case of reception waiting for IDLE event, disable also the IDLE IE interrupt source */
  if (huart->ReceptionType == HAL_UART_RECEPTION_TOIDLE)
 8004a4c:	6ee2      	ldr	r2, [r4, #108]	@ 0x6c
 8004a4e:	2a01      	cmp	r2, #1
 8004a50:	d00b      	beq.n	8004a6a <UART_CheckIdleState+0x12e>
    ATOMIC_CLEAR_BIT(huart->Instance->CR1, USART_CR1_IDLEIE);
  }

  /* At end of Rx process, restore huart->RxState to Ready */
  huart->RxState = HAL_UART_STATE_READY;
  huart->ReceptionType = HAL_UART_RECEPTION_STANDARD;
 8004a52:	2200      	movs	r2, #0
  huart->RxState = HAL_UART_STATE_READY;
 8004a54:	2020      	movs	r0, #32
          huart->ErrorCode = HAL_UART_ERROR_ORE;
 8004a56:	2108      	movs	r1, #8
  huart->RxState = HAL_UART_STATE_READY;
 8004a58:	f8c4 008c 	str.w	r0, [r4, #140]	@ 0x8c

  /* Reset RxIsr function pointer */
  huart->RxISR = NULL;
 8004a5c:	6762      	str	r2, [r4, #116]	@ 0x74
  huart->ReceptionType = HAL_UART_RECEPTION_STANDARD;
 8004a5e:	66e2      	str	r2, [r4, #108]	@ 0x6c
          __HAL_UNLOCK(huart);
 8004a60:	f884 2084 	strb.w	r2, [r4, #132]	@ 0x84
          huart->ErrorCode = HAL_UART_ERROR_ORE;
 8004a64:	f8c4 1090 	str.w	r1, [r4, #144]	@ 0x90
          return HAL_ERROR;
 8004a68:	e79c      	b.n	80049a4 <UART_CheckIdleState+0x68>
   __ASM volatile ("ldrex %0, %1" : "=r" (result) : "Q" (*addr) );
 8004a6a:	e853 2f00 	ldrex	r2, [r3]
    ATOMIC_CLEAR_BIT(huart->Instance->CR1, USART_CR1_IDLEIE);
 8004a6e:	f022 0210 	bic.w	r2, r2, #16
   __ASM volatile ("strex %0, %2, %1" : "=&r" (result), "=Q" (*addr) : "r" (value) );
 8004a72:	e843 2100 	strex	r1, r2, [r3]
 8004a76:	2900      	cmp	r1, #0
 8004a78:	d1f7      	bne.n	8004a6a <UART_CheckIdleState+0x12e>
 8004a7a:	e7ea      	b.n	8004a52 <UART_CheckIdleState+0x116>
          __HAL_UART_CLEAR_FLAG(huart, UART_CLEAR_RTOF);
 8004a7c:	f44f 6200 	mov.w	r2, #2048	@ 0x800
 8004a80:	621a      	str	r2, [r3, #32]
   __ASM volatile ("ldrex %0, %1" : "=r" (result) : "Q" (*addr) );
 8004a82:	e853 2f00 	ldrex	r2, [r3]
  ATOMIC_CLEAR_BIT(huart->Instance->CR1, (USART_CR1_RXNEIE_RXFNEIE | USART_CR1_PEIE));
 8004a86:	f422 7290 	bic.w	r2, r2, #288	@ 0x120
   __ASM volatile ("strex %0, %2, %1" : "=&r" (result), "=Q" (*addr) : "r" (value) );
 8004a8a:	e843 2100 	strex	r1, r2, [r3]
 8004a8e:	2900      	cmp	r1, #0
 8004a90:	d1f7      	bne.n	8004a82 <UART_CheckIdleState+0x146>
  ATOMIC_CLEAR_BIT(huart->Instance->CR3, (USART_CR3_EIE | USART_CR3_RXFTIE));
 8004a92:	483f      	ldr	r0, [pc, #252]	@ (8004b90 <UART_CheckIdleState+0x254>)
   __ASM volatile ("ldrex %0, %1" : "=r" (result) : "Q" (*addr) );
 8004a94:	f103 0208 	add.w	r2, r3, #8
 8004a98:	e852 2f00 	ldrex	r2, [r2]
 8004a9c:	4002      	ands	r2, r0
   __ASM volatile ("strex %0, %2, %1" : "=&r" (result), "=Q" (*addr) : "r" (value) );
 8004a9e:	f103 0508 	add.w	r5, r3, #8
 8004aa2:	e845 2100 	strex	r1, r2, [r5]
 8004aa6:	2900      	cmp	r1, #0
 8004aa8:	d1f4      	bne.n	8004a94 <UART_CheckIdleState+0x158>
  if (huart->ReceptionType == HAL_UART_RECEPTION_TOIDLE)
 8004aaa:	6ee2      	ldr	r2, [r4, #108]	@ 0x6c
 8004aac:	2a01      	cmp	r2, #1
 8004aae:	d00a      	beq.n	8004ac6 <UART_CheckIdleState+0x18a>
  huart->ReceptionType = HAL_UART_RECEPTION_STANDARD;
 8004ab0:	2200      	movs	r2, #0
  huart->RxState = HAL_UART_STATE_READY;
 8004ab2:	2120      	movs	r1, #32
  huart->RxISR = NULL;
 8004ab4:	6762      	str	r2, [r4, #116]	@ 0x74
  huart->RxState = HAL_UART_STATE_READY;
 8004ab6:	f8c4 108c 	str.w	r1, [r4, #140]	@ 0x8c
          __HAL_UNLOCK(huart);
 8004aba:	f884 2084 	strb.w	r2, [r4, #132]	@ 0x84
  huart->ReceptionType = HAL_UART_RECEPTION_STANDARD;
 8004abe:	66e2      	str	r2, [r4, #108]	@ 0x6c
          huart->ErrorCode = HAL_UART_ERROR_RTO;
 8004ac0:	f8c4 1090 	str.w	r1, [r4, #144]	@ 0x90
          return HAL_TIMEOUT;
 8004ac4:	e76e      	b.n	80049a4 <UART_CheckIdleState+0x68>
   __ASM volatile ("ldrex %0, %1" : "=r" (result) : "Q" (*addr) );
 8004ac6:	e853 2f00 	ldrex	r2, [r3]
    ATOMIC_CLEAR_BIT(huart->Instance->CR1, USART_CR1_IDLEIE);
 8004aca:	f022 0210 	bic.w	r2, r2, #16
   __ASM volatile ("strex %0, %2, %1" : "=&r" (result), "=Q" (*addr) : "r" (value) );
 8004ace:	e843 2100 	strex	r1, r2, [r3]
 8004ad2:	2900      	cmp	r1, #0
 8004ad4:	d1f7      	bne.n	8004ac6 <UART_CheckIdleState+0x18a>
 8004ad6:	e7eb      	b.n	8004ab0 <UART_CheckIdleState+0x174>
          __HAL_UART_CLEAR_FLAG(huart, UART_CLEAR_OREF);
 8004ad8:	2208      	movs	r2, #8
 8004ada:	621a      	str	r2, [r3, #32]
   __ASM volatile ("ldrex %0, %1" : "=r" (result) : "Q" (*addr) );
 8004adc:	e853 2f00 	ldrex	r2, [r3]
  ATOMIC_CLEAR_BIT(huart->Instance->CR1, (USART_CR1_RXNEIE_RXFNEIE | USART_CR1_PEIE));
 8004ae0:	f422 7290 	bic.w	r2, r2, #288	@ 0x120
   __ASM volatile ("strex %0, %2, %1" : "=&r" (result), "=Q" (*addr) : "r" (value) );
 8004ae4:	e843 2100 	strex	r1, r2, [r3]
 8004ae8:	2900      	cmp	r1, #0
 8004aea:	d1f7      	bne.n	8004adc <UART_CheckIdleState+0x1a0>
  ATOMIC_CLEAR_BIT(huart->Instance->CR3, (USART_CR3_EIE | USART_CR3_RXFTIE));
 8004aec:	4828      	ldr	r0, [pc, #160]	@ (8004b90 <UART_CheckIdleState+0x254>)
   __ASM volatile ("ldrex %0, %1" : "=r" (result) : "Q" (*addr) );
 8004aee:	f103 0208 	add.w	r2, r3, #8
 8004af2:	e852 2f00 	ldrex	r2, [r2]
 8004af6:	4002      	ands	r2, r0
   __ASM volatile ("strex %0, %2, %1" : "=&r" (result), "=Q" (*addr) : "r" (value) );
 8004af8:	f103 0508 	add.w	r5, r3, #8
 8004afc:	e845 2100 	strex	r1, r2, [r5]
 8004b00:	2900      	cmp	r1, #0
 8004b02:	d1f4      	bne.n	8004aee <UART_CheckIdleState+0x1b2>
  if (huart->ReceptionType == HAL_UART_RECEPTION_TOIDLE)
 8004b04:	6ee2      	ldr	r2, [r4, #108]	@ 0x6c
 8004b06:	2a01      	cmp	r2, #1
 8004b08:	d00b      	beq.n	8004b22 <UART_CheckIdleState+0x1e6>
  huart->ReceptionType = HAL_UART_RECEPTION_STANDARD;
 8004b0a:	2200      	movs	r2, #0
  huart->RxState = HAL_UART_STATE_READY;
 8004b0c:	2020      	movs	r0, #32
          huart->ErrorCode = HAL_UART_ERROR_ORE;
 8004b0e:	2108      	movs	r1, #8
  huart->RxState = HAL_UART_STATE_READY;
 8004b10:	f8c4 008c 	str.w	r0, [r4, #140]	@ 0x8c
  huart->RxISR = NULL;
 8004b14:	6762      	str	r2, [r4, #116]	@ 0x74
  huart->ReceptionType = HAL_UART_RECEPTION_STANDARD;
 8004b16:	66e2      	str	r2, [r4, #108]	@ 0x6c
          __HAL_UNLOCK(huart);
 8004b18:	f884 2084 	strb.w	r2, [r4, #132]	@ 0x84
          huart->ErrorCode = HAL_UART_ERROR_ORE;
 8004b1c:	f8c4 1090 	str.w	r1, [r4, #144]	@ 0x90
          return HAL_ERROR;
 8004b20:	e766      	b.n	80049f0 <UART_CheckIdleState+0xb4>
   __ASM volatile ("ldrex %0, %1" : "=r" (result) : "Q" (*addr) );
 8004b22:	e853 2f00 	ldrex	r2, [r3]
    ATOMIC_CLEAR_BIT(huart->Instance->CR1, USART_CR1_IDLEIE);
 8004b26:	f022 0210 	bic.w	r2, r2, #16
   __ASM volatile ("strex %0, %2, %1" : "=&r" (result), "=Q" (*addr) : "r" (value) );
 8004b2a:	e843 2100 	strex	r1, r2, [r3]
 8004b2e:	2900      	cmp	r1, #0
 8004b30:	d1f7      	bne.n	8004b22 <UART_CheckIdleState+0x1e6>
 8004b32:	e7ea      	b.n	8004b0a <UART_CheckIdleState+0x1ce>
          __HAL_UART_CLEAR_FLAG(huart, UART_CLEAR_RTOF);
 8004b34:	f44f 6200 	mov.w	r2, #2048	@ 0x800
 8004b38:	621a      	str	r2, [r3, #32]
   __ASM volatile ("ldrex %0, %1" : "=r" (result) : "Q" (*addr) );
 8004b3a:	e853 2f00 	ldrex	r2, [r3]
  ATOMIC_CLEAR_BIT(huart->Instance->CR1, (USART_CR1_RXNEIE_RXFNEIE | USART_CR1_PEIE));
 8004b3e:	f422 7290 	bic.w	r2, r2, #288	@ 0x120
   __ASM volatile ("strex %0, %2, %1" : "=&r" (result), "=Q" (*addr) : "r" (value) );
 8004b42:	e843 2100 	strex	r1, r2, [r3]
 8004b46:	2900      	cmp	r1, #0
 8004b48:	d1f7      	bne.n	8004b3a <UART_CheckIdleState+0x1fe>
  ATOMIC_CLEAR_BIT(huart->Instance->CR3, (USART_CR3_EIE | USART_CR3_RXFTIE));
 8004b4a:	4811      	ldr	r0, [pc, #68]	@ (8004b90 <UART_CheckIdleState+0x254>)
   __ASM volatile ("ldrex %0, %1" : "=r" (result) : "Q" (*addr) );
 8004b4c:	f103 0208 	add.w	r2, r3, #8
 8004b50:	e852 2f00 	ldrex	r2, [r2]
 8004b54:	4002      	ands	r2, r0
   __ASM volatile ("strex %0, %2, %1" : "=&r" (result), "=Q" (*addr) : "r" (value) );
 8004b56:	f103 0508 	add.w	r5, r3, #8
 8004b5a:	e845 2100 	strex	r1, r2, [r5]
 8004b5e:	2900      	cmp	r1, #0
 8004b60:	d1f4      	bne.n	8004b4c <UART_CheckIdleState+0x210>
  if (huart->ReceptionType == HAL_UART_RECEPTION_TOIDLE)
 8004b62:	6ee2      	ldr	r2, [r4, #108]	@ 0x6c
 8004b64:	2a01      	cmp	r2, #1
 8004b66:	d00a      	beq.n	8004b7e <UART_CheckIdleState+0x242>
  huart->ReceptionType = HAL_UART_RECEPTION_STANDARD;
 8004b68:	2200      	movs	r2, #0
  huart->RxState = HAL_UART_STATE_READY;
 8004b6a:	2120      	movs	r1, #32
  huart->RxISR = NULL;
 8004b6c:	6762      	str	r2, [r4, #116]	@ 0x74
  huart->RxState = HAL_UART_STATE_READY;
 8004b6e:	f8c4 108c 	str.w	r1, [r4, #140]	@ 0x8c
          __HAL_UNLOCK(huart);
 8004b72:	f884 2084 	strb.w	r2, [r4, #132]	@ 0x84
  huart->ReceptionType = HAL_UART_RECEPTION_STANDARD;
 8004b76:	66e2      	str	r2, [r4, #108]	@ 0x6c
          huart->ErrorCode = HAL_UART_ERROR_RTO;
 8004b78:	f8c4 1090 	str.w	r1, [r4, #144]	@ 0x90
          return HAL_TIMEOUT;
 8004b7c:	e738      	b.n	80049f0 <UART_CheckIdleState+0xb4>
   __ASM volatile ("ldrex %0, %1" : "=r" (result) : "Q" (*addr) );
 8004b7e:	e853 2f00 	ldrex	r2, [r3]
    ATOMIC_CLEAR_BIT(huart->Instance->CR1, USART_CR1_IDLEIE);
 8004b82:	f022 0210 	bic.w	r2, r2, #16
   __ASM volatile ("strex %0, %2, %1" : "=&r" (result), "=Q" (*addr) : "r" (value) );
 8004b86:	e843 2100 	strex	r1, r2, [r3]
 8004b8a:	2900      	cmp	r1, #0
 8004b8c:	d1f7      	bne.n	8004b7e <UART_CheckIdleState+0x242>
 8004b8e:	e7eb      	b.n	8004b68 <UART_CheckIdleState+0x22c>
 8004b90:	effffffe 	.word	0xeffffffe

08004b94 <HAL_UART_Init>:
  if (huart == NULL)
 8004b94:	b380      	cbz	r0, 8004bf8 <HAL_UART_Init+0x64>
  if (huart->gState == HAL_UART_STATE_RESET)
 8004b96:	f8d0 3088 	ldr.w	r3, [r0, #136]	@ 0x88
{
 8004b9a:	b510      	push	{r4, lr}
 8004b9c:	4604      	mov	r4, r0
  if (huart->gState == HAL_UART_STATE_RESET)
 8004b9e:	b333      	cbz	r3, 8004bee <HAL_UART_Init+0x5a>
  __HAL_UART_DISABLE(huart);
 8004ba0:	6822      	ldr	r2, [r4, #0]
  huart->gState = HAL_UART_STATE_BUSY;
 8004ba2:	2324      	movs	r3, #36	@ 0x24
  if (huart->AdvancedInit.AdvFeatureInit != UART_ADVFEATURE_NO_INIT)
 8004ba4:	6aa1      	ldr	r1, [r4, #40]	@ 0x28
  huart->gState = HAL_UART_STATE_BUSY;
 8004ba6:	f8c4 3088 	str.w	r3, [r4, #136]	@ 0x88
  __HAL_UART_DISABLE(huart);
 8004baa:	6813      	ldr	r3, [r2, #0]
 8004bac:	f023 0301 	bic.w	r3, r3, #1
 8004bb0:	6013      	str	r3, [r2, #0]
  if (huart->AdvancedInit.AdvFeatureInit != UART_ADVFEATURE_NO_INIT)
 8004bb2:	b9c1      	cbnz	r1, 8004be6 <HAL_UART_Init+0x52>
  if (UART_SetConfig(huart) == HAL_ERROR)
 8004bb4:	4620      	mov	r0, r4
 8004bb6:	f7ff fca3 	bl	8004500 <UART_SetConfig>
 8004bba:	2801      	cmp	r0, #1
 8004bbc:	d011      	beq.n	8004be2 <HAL_UART_Init+0x4e>
  CLEAR_BIT(huart->Instance->CR2, (USART_CR2_LINEN | USART_CR2_CLKEN));
 8004bbe:	6823      	ldr	r3, [r4, #0]
  return (UART_CheckIdleState(huart));
 8004bc0:	4620      	mov	r0, r4
  CLEAR_BIT(huart->Instance->CR2, (USART_CR2_LINEN | USART_CR2_CLKEN));
 8004bc2:	685a      	ldr	r2, [r3, #4]
 8004bc4:	f422 4290 	bic.w	r2, r2, #18432	@ 0x4800
 8004bc8:	605a      	str	r2, [r3, #4]
  CLEAR_BIT(huart->Instance->CR3, (USART_CR3_SCEN | USART_CR3_HDSEL | USART_CR3_IREN));
 8004bca:	689a      	ldr	r2, [r3, #8]
 8004bcc:	f022 022a 	bic.w	r2, r2, #42	@ 0x2a
 8004bd0:	609a      	str	r2, [r3, #8]
  __HAL_UART_ENABLE(huart);
 8004bd2:	681a      	ldr	r2, [r3, #0]
 8004bd4:	f042 0201 	orr.w	r2, r2, #1
}
 8004bd8:	e8bd 4010 	ldmia.w	sp!, {r4, lr}
  __HAL_UART_ENABLE(huart);
 8004bdc:	601a      	str	r2, [r3, #0]
  return (UART_CheckIdleState(huart));
 8004bde:	f7ff bead 	b.w	800493c <UART_CheckIdleState>
}
 8004be2:	2001      	movs	r0, #1
 8004be4:	bd10      	pop	{r4, pc}
    UART_AdvFeatureConfig(huart);
 8004be6:	4620      	mov	r0, r4
 8004be8:	f7ff fe50 	bl	800488c <UART_AdvFeatureConfig>
 8004bec:	e7e2      	b.n	8004bb4 <HAL_UART_Init+0x20>
    huart->Lock = HAL_UNLOCKED;
 8004bee:	f880 3084 	strb.w	r3, [r0, #132]	@ 0x84
    HAL_UART_MspInit(huart);
 8004bf2:	f7fb ffb9 	bl	8000b68 <HAL_UART_MspInit>
 8004bf6:	e7d3      	b.n	8004ba0 <HAL_UART_Init+0xc>
}
 8004bf8:	2001      	movs	r0, #1
 8004bfa:	4770      	bx	lr

08004bfc <HAL_UARTEx_DisableFifoMode>:

  /* Check parameters */
  assert_param(IS_UART_FIFO_INSTANCE(huart->Instance));

  /* Process Locked */
  __HAL_LOCK(huart);
 8004bfc:	f890 2084 	ldrb.w	r2, [r0, #132]	@ 0x84
 8004c00:	2a01      	cmp	r2, #1
 8004c02:	d017      	beq.n	8004c34 <HAL_UARTEx_DisableFifoMode+0x38>

  huart->gState = HAL_UART_STATE_BUSY;

  /* Save actual UART configuration */
  tmpcr1 = READ_REG(huart->Instance->CR1);
 8004c04:	6802      	ldr	r2, [r0, #0]
 8004c06:	4603      	mov	r3, r0
  huart->gState = HAL_UART_STATE_BUSY;
 8004c08:	2024      	movs	r0, #36	@ 0x24
  /* Disable UART */
  __HAL_UART_DISABLE(huart);

  /* Disable FIFO mode */
  CLEAR_BIT(tmpcr1, USART_CR1_FIFOEN);
  huart->FifoMode = UART_FIFOMODE_DISABLE;
 8004c0a:	2100      	movs	r1, #0
{
 8004c0c:	b430      	push	{r4, r5}
  huart->gState = HAL_UART_STATE_BUSY;
 8004c0e:	f8c3 0088 	str.w	r0, [r3, #136]	@ 0x88

  /* Restore UART configuration */
  WRITE_REG(huart->Instance->CR1, tmpcr1);

  huart->gState = HAL_UART_STATE_READY;
 8004c12:	2520      	movs	r5, #32
  tmpcr1 = READ_REG(huart->Instance->CR1);
 8004c14:	6810      	ldr	r0, [r2, #0]
  __HAL_UART_DISABLE(huart);
 8004c16:	6814      	ldr	r4, [r2, #0]
  CLEAR_BIT(tmpcr1, USART_CR1_FIFOEN);
 8004c18:	f020 5000 	bic.w	r0, r0, #536870912	@ 0x20000000
  __HAL_UART_DISABLE(huart);
 8004c1c:	f024 0401 	bic.w	r4, r4, #1
 8004c20:	6014      	str	r4, [r2, #0]
  huart->FifoMode = UART_FIFOMODE_DISABLE;
 8004c22:	6659      	str	r1, [r3, #100]	@ 0x64
  WRITE_REG(huart->Instance->CR1, tmpcr1);
 8004c24:	6010      	str	r0, [r2, #0]

  /* Process Unlocked */
  __HAL_UNLOCK(huart);

  return HAL_OK;
 8004c26:	4608      	mov	r0, r1
  huart->gState = HAL_UART_STATE_READY;
 8004c28:	f8c3 5088 	str.w	r5, [r3, #136]	@ 0x88
  __HAL_UNLOCK(huart);
 8004c2c:	f883 1084 	strb.w	r1, [r3, #132]	@ 0x84
}
 8004c30:	bc30      	pop	{r4, r5}
 8004c32:	4770      	bx	lr
  __HAL_LOCK(huart);
 8004c34:	2002      	movs	r0, #2
}
 8004c36:	4770      	bx	lr

08004c38 <HAL_UARTEx_SetTxFifoThreshold>:
  /* Check parameters */
  assert_param(IS_UART_FIFO_INSTANCE(huart->Instance));
  assert_param(IS_UART_TXFIFO_THRESHOLD(Threshold));

  /* Process Locked */
  __HAL_LOCK(huart);
 8004c38:	f890 2084 	ldrb.w	r2, [r0, #132]	@ 0x84
 8004c3c:	2a01      	cmp	r2, #1
 8004c3e:	d037      	beq.n	8004cb0 <HAL_UARTEx_SetTxFifoThreshold+0x78>

  huart->gState = HAL_UART_STATE_BUSY;

  /* Save actual UART configuration */
  tmpcr1 = READ_REG(huart->Instance->CR1);
 8004c40:	6802      	ldr	r2, [r0, #0]
 8004c42:	4603      	mov	r3, r0
  huart->gState = HAL_UART_STATE_BUSY;
 8004c44:	2024      	movs	r0, #36	@ 0x24
{
 8004c46:	b530      	push	{r4, r5, lr}
  huart->gState = HAL_UART_STATE_BUSY;
 8004c48:	f8c3 0088 	str.w	r0, [r3, #136]	@ 0x88
  tmpcr1 = READ_REG(huart->Instance->CR1);
 8004c4c:	6814      	ldr	r4, [r2, #0]

  /* Disable UART */
  __HAL_UART_DISABLE(huart);
 8004c4e:	6810      	ldr	r0, [r2, #0]
 8004c50:	f020 0001 	bic.w	r0, r0, #1
 8004c54:	6010      	str	r0, [r2, #0]

  /* Update TX threshold configuration */
  MODIFY_REG(huart->Instance->CR3, USART_CR3_TXFTCFG, Threshold);
 8004c56:	6890      	ldr	r0, [r2, #8]
 8004c58:	f020 4060 	bic.w	r0, r0, #3758096384	@ 0xe0000000
 8004c5c:	4301      	orrs	r1, r0
  uint8_t rx_fifo_threshold;
  uint8_t tx_fifo_threshold;
  static const uint8_t numerator[] = {1U, 1U, 1U, 3U, 7U, 1U, 0U, 0U};
  static const uint8_t denominator[] = {8U, 4U, 2U, 4U, 8U, 1U, 1U, 1U};

  if (huart->FifoMode == UART_FIFOMODE_DISABLE)
 8004c5e:	6e58      	ldr	r0, [r3, #100]	@ 0x64
  MODIFY_REG(huart->Instance->CR3, USART_CR3_TXFTCFG, Threshold);
 8004c60:	6091      	str	r1, [r2, #8]
  if (huart->FifoMode == UART_FIFOMODE_DISABLE)
 8004c62:	b310      	cbz	r0, 8004caa <HAL_UARTEx_SetTxFifoThreshold+0x72>
  }
  else
  {
    rx_fifo_depth = RX_FIFO_DEPTH;
    tx_fifo_depth = TX_FIFO_DEPTH;
    rx_fifo_threshold = (uint8_t)(READ_BIT(huart->Instance->CR3, USART_CR3_RXFTCFG) >> USART_CR3_RXFTCFG_Pos);
 8004c64:	6891      	ldr	r1, [r2, #8]
    tx_fifo_threshold = (uint8_t)(READ_BIT(huart->Instance->CR3, USART_CR3_TXFTCFG) >> USART_CR3_TXFTCFG_Pos);
 8004c66:	6890      	ldr	r0, [r2, #8]
    huart->NbTxDataToProcess = ((uint16_t)tx_fifo_depth * numerator[tx_fifo_threshold]) /
                               (uint16_t)denominator[tx_fifo_threshold];
    huart->NbRxDataToProcess = ((uint16_t)rx_fifo_depth * numerator[rx_fifo_threshold]) /
 8004c68:	f3c1 6c42 	ubfx	ip, r1, #25, #3
    huart->NbTxDataToProcess = ((uint16_t)tx_fifo_depth * numerator[tx_fifo_threshold]) /
 8004c6c:	4911      	ldr	r1, [pc, #68]	@ (8004cb4 <HAL_UARTEx_SetTxFifoThreshold+0x7c>)
    tx_fifo_threshold = (uint8_t)(READ_BIT(huart->Instance->CR3, USART_CR3_TXFTCFG) >> USART_CR3_TXFTCFG_Pos);
 8004c6e:	ea4f 7e50 	mov.w	lr, r0, lsr #29
                               (uint16_t)denominator[tx_fifo_threshold];
 8004c72:	4d11      	ldr	r5, [pc, #68]	@ (8004cb8 <HAL_UARTEx_SetTxFifoThreshold+0x80>)
    huart->NbTxDataToProcess = ((uint16_t)tx_fifo_depth * numerator[tx_fifo_threshold]) /
 8004c74:	f811 000e 	ldrb.w	r0, [r1, lr]
    huart->NbRxDataToProcess = ((uint16_t)rx_fifo_depth * numerator[rx_fifo_threshold]) /
 8004c78:	f811 100c 	ldrb.w	r1, [r1, ip]
                               (uint16_t)denominator[tx_fifo_threshold];
 8004c7c:	f815 e00e 	ldrb.w	lr, [r5, lr]
    huart->NbTxDataToProcess = ((uint16_t)tx_fifo_depth * numerator[tx_fifo_threshold]) /
 8004c80:	0100      	lsls	r0, r0, #4
                               (uint16_t)denominator[rx_fifo_threshold];
 8004c82:	f815 500c 	ldrb.w	r5, [r5, ip]
    huart->NbRxDataToProcess = ((uint16_t)rx_fifo_depth * numerator[rx_fifo_threshold]) /
 8004c86:	0109      	lsls	r1, r1, #4
    huart->NbTxDataToProcess = ((uint16_t)tx_fifo_depth * numerator[tx_fifo_threshold]) /
 8004c88:	fbb0 f0fe 	udiv	r0, r0, lr
    huart->NbRxDataToProcess = ((uint16_t)rx_fifo_depth * numerator[rx_fifo_threshold]) /
 8004c8c:	fbb1 f1f5 	udiv	r1, r1, r5
 8004c90:	f8a3 1068 	strh.w	r1, [r3, #104]	@ 0x68
  huart->gState = HAL_UART_STATE_READY;
 8004c94:	2520      	movs	r5, #32
  __HAL_UNLOCK(huart);
 8004c96:	2100      	movs	r1, #0
 8004c98:	f8a3 006a 	strh.w	r0, [r3, #106]	@ 0x6a
  WRITE_REG(huart->Instance->CR1, tmpcr1);
 8004c9c:	6014      	str	r4, [r2, #0]
  return HAL_OK;
 8004c9e:	4608      	mov	r0, r1
  huart->gState = HAL_UART_STATE_READY;
 8004ca0:	f8c3 5088 	str.w	r5, [r3, #136]	@ 0x88
  __HAL_UNLOCK(huart);
 8004ca4:	f883 1084 	strb.w	r1, [r3, #132]	@ 0x84
}
 8004ca8:	bd30      	pop	{r4, r5, pc}
    huart->NbRxDataToProcess = 1U;
 8004caa:	2101      	movs	r1, #1
    huart->NbTxDataToProcess = 1U;
 8004cac:	4608      	mov	r0, r1
 8004cae:	e7ef      	b.n	8004c90 <HAL_UARTEx_SetTxFifoThreshold+0x58>
  __HAL_LOCK(huart);
 8004cb0:	2002      	movs	r0, #2
}
 8004cb2:	4770      	bx	lr
 8004cb4:	0800756c 	.word	0x0800756c
 8004cb8:	08007564 	.word	0x08007564

08004cbc <HAL_UARTEx_SetRxFifoThreshold>:
  __HAL_LOCK(huart);
 8004cbc:	f890 2084 	ldrb.w	r2, [r0, #132]	@ 0x84
 8004cc0:	2a01      	cmp	r2, #1
 8004cc2:	d037      	beq.n	8004d34 <HAL_UARTEx_SetRxFifoThreshold+0x78>
  tmpcr1 = READ_REG(huart->Instance->CR1);
 8004cc4:	6802      	ldr	r2, [r0, #0]
 8004cc6:	4603      	mov	r3, r0
  huart->gState = HAL_UART_STATE_BUSY;
 8004cc8:	2024      	movs	r0, #36	@ 0x24
{
 8004cca:	b530      	push	{r4, r5, lr}
  huart->gState = HAL_UART_STATE_BUSY;
 8004ccc:	f8c3 0088 	str.w	r0, [r3, #136]	@ 0x88
  tmpcr1 = READ_REG(huart->Instance->CR1);
 8004cd0:	6814      	ldr	r4, [r2, #0]
  __HAL_UART_DISABLE(huart);
 8004cd2:	6810      	ldr	r0, [r2, #0]
 8004cd4:	f020 0001 	bic.w	r0, r0, #1
 8004cd8:	6010      	str	r0, [r2, #0]
  MODIFY_REG(huart->Instance->CR3, USART_CR3_RXFTCFG, Threshold);
 8004cda:	6890      	ldr	r0, [r2, #8]
 8004cdc:	f020 6060 	bic.w	r0, r0, #234881024	@ 0xe000000
 8004ce0:	4301      	orrs	r1, r0
  if (huart->FifoMode == UART_FIFOMODE_DISABLE)
 8004ce2:	6e58      	ldr	r0, [r3, #100]	@ 0x64
  MODIFY_REG(huart->Instance->CR3, USART_CR3_RXFTCFG, Threshold);
 8004ce4:	6091      	str	r1, [r2, #8]
  if (huart->FifoMode == UART_FIFOMODE_DISABLE)
 8004ce6:	b310      	cbz	r0, 8004d2e <HAL_UARTEx_SetRxFifoThreshold+0x72>
    rx_fifo_threshold = (uint8_t)(READ_BIT(huart->Instance->CR3, USART_CR3_RXFTCFG) >> USART_CR3_RXFTCFG_Pos);
 8004ce8:	6891      	ldr	r1, [r2, #8]
    tx_fifo_threshold = (uint8_t)(READ_BIT(huart->Instance->CR3, USART_CR3_TXFTCFG) >> USART_CR3_TXFTCFG_Pos);
 8004cea:	6890      	ldr	r0, [r2, #8]
    huart->NbRxDataToProcess = ((uint16_t)rx_fifo_depth * numerator[rx_fifo_threshold]) /
 8004cec:	f3c1 6c42 	ubfx	ip, r1, #25, #3
    huart->NbTxDataToProcess = ((uint16_t)tx_fifo_depth * numerator[tx_fifo_threshold]) /
 8004cf0:	4911      	ldr	r1, [pc, #68]	@ (8004d38 <HAL_UARTEx_SetRxFifoThreshold+0x7c>)
    tx_fifo_threshold = (uint8_t)(READ_BIT(huart->Instance->CR3, USART_CR3_TXFTCFG) >> USART_CR3_TXFTCFG_Pos);
 8004cf2:	ea4f 7e50 	mov.w	lr, r0, lsr #29
                               (uint16_t)denominator[tx_fifo_threshold];
 8004cf6:	4d11      	ldr	r5, [pc, #68]	@ (8004d3c <HAL_UARTEx_SetRxFifoThreshold+0x80>)
    huart->NbTxDataToProcess = ((uint16_t)tx_fifo_depth * numerator[tx_fifo_threshold]) /
 8004cf8:	f811 000e 	ldrb.w	r0, [r1, lr]
    huart->NbRxDataToProcess = ((uint16_t)rx_fifo_depth * numerator[rx_fifo_threshold]) /
 8004cfc:	f811 100c 	ldrb.w	r1, [r1, ip]
                               (uint16_t)denominator[tx_fifo_threshold];
 8004d00:	f815 e00e 	ldrb.w	lr, [r5, lr]
    huart->NbTxDataToProcess = ((uint16_t)tx_fifo_depth * numerator[tx_fifo_threshold]) /
 8004d04:	0100      	lsls	r0, r0, #4
                               (uint16_t)denominator[rx_fifo_threshold];
 8004d06:	f815 500c 	ldrb.w	r5, [r5, ip]
    huart->NbRxDataToProcess = ((uint16_t)rx_fifo_depth * numerator[rx_fifo_threshold]) /
 8004d0a:	0109      	lsls	r1, r1, #4
    huart->NbTxDataToProcess = ((uint16_t)tx_fifo_depth * numerator[tx_fifo_threshold]) /
 8004d0c:	fbb0 f0fe 	udiv	r0, r0, lr
    huart->NbRxDataToProcess = ((uint16_t)rx_fifo_depth * numerator[rx_fifo_threshold]) /
 8004d10:	fbb1 f1f5 	udiv	r1, r1, r5
 8004d14:	f8a3 1068 	strh.w	r1, [r3, #104]	@ 0x68
  huart->gState = HAL_UART_STATE_READY;
 8004d18:	2520      	movs	r5, #32
  __HAL_UNLOCK(huart);
 8004d1a:	2100      	movs	r1, #0
 8004d1c:	f8a3 006a 	strh.w	r0, [r3, #106]	@ 0x6a
  WRITE_REG(huart->Instance->CR1, tmpcr1);
 8004d20:	6014      	str	r4, [r2, #0]
  return HAL_OK;
 8004d22:	4608      	mov	r0, r1
  huart->gState = HAL_UART_STATE_READY;
 8004d24:	f8c3 5088 	str.w	r5, [r3, #136]	@ 0x88
  __HAL_UNLOCK(huart);
 8004d28:	f883 1084 	strb.w	r1, [r3, #132]	@ 0x84
}
 8004d2c:	bd30      	pop	{r4, r5, pc}
    huart->NbRxDataToProcess = 1U;
 8004d2e:	2101      	movs	r1, #1
    huart->NbTxDataToProcess = 1U;
 8004d30:	4608      	mov	r0, r1
 8004d32:	e7ef      	b.n	8004d14 <HAL_UARTEx_SetRxFifoThreshold+0x58>
  __HAL_LOCK(huart);
 8004d34:	2002      	movs	r0, #2
}
 8004d36:	4770      	bx	lr
 8004d38:	0800756c 	.word	0x0800756c
 8004d3c:	08007564 	.word	0x08007564

08004d40 <USB_CoreInit>:
  * @param  cfg pointer to a USB_OTG_CfgTypeDef structure that contains
  *         the configuration information for the specified USBx peripheral.
  * @retval HAL status
  */
HAL_StatusTypeDef USB_CoreInit(USB_OTG_GlobalTypeDef *USBx, USB_OTG_CfgTypeDef cfg)
{
 8004d40:	b084      	sub	sp, #16
 8004d42:	b082      	sub	sp, #8
 8004d44:	f10d 0c0c 	add.w	ip, sp, #12
 8004d48:	e88c 000e 	stmia.w	ip, {r1, r2, r3}
  HAL_StatusTypeDef ret;
  if (cfg.phy_itface == USB_OTG_ULPI_PHY)
 8004d4c:	f89d 2011 	ldrb.w	r2, [sp, #17]
{
 8004d50:	4603      	mov	r3, r0
  if (cfg.phy_itface == USB_OTG_ULPI_PHY)
 8004d52:	2a01      	cmp	r2, #1
 8004d54:	d135      	bne.n	8004dc2 <USB_CoreInit+0x82>
  {
    USBx->GCCFG &= ~(USB_OTG_GCCFG_PWRDWN);
 8004d56:	6b81      	ldr	r1, [r0, #56]	@ 0x38

    /* Init The ULPI Interface */
    USBx->GUSBCFG &= ~(USB_OTG_GUSBCFG_TSDPS | USB_OTG_GUSBCFG_ULPIFSLS | USB_OTG_GUSBCFG_PHYSEL);
 8004d58:	f1a2 1242 	sub.w	r2, r2, #4325442	@ 0x420042

    /* Select vbus source */
    USBx->GUSBCFG &= ~(USB_OTG_GUSBCFG_ULPIEVBUSD | USB_OTG_GUSBCFG_ULPIEVBUSI);
    if (cfg.use_external_vbus == 1U)
 8004d5c:	f89d 0018 	ldrb.w	r0, [sp, #24]
    USBx->GCCFG &= ~(USB_OTG_GCCFG_PWRDWN);
 8004d60:	f421 3180 	bic.w	r1, r1, #65536	@ 0x10000
    if (cfg.use_external_vbus == 1U)
 8004d64:	2801      	cmp	r0, #1
    USBx->GCCFG &= ~(USB_OTG_GCCFG_PWRDWN);
 8004d66:	6399      	str	r1, [r3, #56]	@ 0x38
    USBx->GUSBCFG &= ~(USB_OTG_GUSBCFG_TSDPS | USB_OTG_GUSBCFG_ULPIFSLS | USB_OTG_GUSBCFG_PHYSEL);
 8004d68:	68d9      	ldr	r1, [r3, #12]
 8004d6a:	ea02 0201 	and.w	r2, r2, r1
 8004d6e:	60da      	str	r2, [r3, #12]
    USBx->GUSBCFG &= ~(USB_OTG_GUSBCFG_ULPIEVBUSD | USB_OTG_GUSBCFG_ULPIEVBUSI);
 8004d70:	68da      	ldr	r2, [r3, #12]
 8004d72:	f422 1240 	bic.w	r2, r2, #3145728	@ 0x300000
 8004d76:	60da      	str	r2, [r3, #12]
    if (cfg.use_external_vbus == 1U)
 8004d78:	d068      	beq.n	8004e4c <USB_CoreInit+0x10c>
  * @param  USBx  Selected device
  * @retval HAL status
  */
static HAL_StatusTypeDef USB_CoreReset(USB_OTG_GlobalTypeDef *USBx)
{
  __IO uint32_t count = 0U;
 8004d7a:	2200      	movs	r2, #0
 8004d7c:	9200      	str	r2, [sp, #0]
 8004d7e:	e002      	b.n	8004d86 <USB_CoreInit+0x46>

    if (count > HAL_USB_TIMEOUT)
    {
      return HAL_TIMEOUT;
    }
  } while ((USBx->GRSTCTL & USB_OTG_GRSTCTL_AHBIDL) == 0U);
 8004d80:	691a      	ldr	r2, [r3, #16]
 8004d82:	2a00      	cmp	r2, #0
 8004d84:	db37      	blt.n	8004df6 <USB_CoreInit+0xb6>
    count++;
 8004d86:	9a00      	ldr	r2, [sp, #0]
 8004d88:	3201      	adds	r2, #1
 8004d8a:	9200      	str	r2, [sp, #0]
    if (count > HAL_USB_TIMEOUT)
 8004d8c:	9a00      	ldr	r2, [sp, #0]
 8004d8e:	f1b2 6f70 	cmp.w	r2, #251658240	@ 0xf000000
 8004d92:	d9f5      	bls.n	8004d80 <USB_CoreInit+0x40>
      return HAL_TIMEOUT;
 8004d94:	2003      	movs	r0, #3
  if (cfg.dma_enable == 1U)
 8004d96:	f89d 200e 	ldrb.w	r2, [sp, #14]
 8004d9a:	2a01      	cmp	r2, #1
 8004d9c:	d10e      	bne.n	8004dbc <USB_CoreInit+0x7c>
    USBx->GDFIFOCFG &= ~(0xFFFFU << 16);
 8004d9e:	6dd9      	ldr	r1, [r3, #92]	@ 0x5c
    USBx->GDFIFOCFG |= 0x3EEU << 16;
 8004da0:	4a2d      	ldr	r2, [pc, #180]	@ (8004e58 <USB_CoreInit+0x118>)
    USBx->GDFIFOCFG &= ~(0xFFFFU << 16);
 8004da2:	b289      	uxth	r1, r1
 8004da4:	65d9      	str	r1, [r3, #92]	@ 0x5c
    USBx->GDFIFOCFG |= 0x3EEU << 16;
 8004da6:	6dd9      	ldr	r1, [r3, #92]	@ 0x5c
 8004da8:	430a      	orrs	r2, r1
 8004daa:	65da      	str	r2, [r3, #92]	@ 0x5c
    USBx->GAHBCFG |= USB_OTG_GAHBCFG_HBSTLEN_2;
 8004dac:	689a      	ldr	r2, [r3, #8]
 8004dae:	f042 0206 	orr.w	r2, r2, #6
 8004db2:	609a      	str	r2, [r3, #8]
    USBx->GAHBCFG |= USB_OTG_GAHBCFG_DMAEN;
 8004db4:	689a      	ldr	r2, [r3, #8]
 8004db6:	f042 0220 	orr.w	r2, r2, #32
 8004dba:	609a      	str	r2, [r3, #8]
}
 8004dbc:	b002      	add	sp, #8
 8004dbe:	b004      	add	sp, #16
 8004dc0:	4770      	bx	lr
    USBx->GUSBCFG |= USB_OTG_GUSBCFG_PHYSEL;
 8004dc2:	68c2      	ldr	r2, [r0, #12]
  __IO uint32_t count = 0U;
 8004dc4:	2100      	movs	r1, #0
    USBx->GUSBCFG |= USB_OTG_GUSBCFG_PHYSEL;
 8004dc6:	f042 0240 	orr.w	r2, r2, #64	@ 0x40
 8004dca:	60c2      	str	r2, [r0, #12]
  __IO uint32_t count = 0U;
 8004dcc:	9101      	str	r1, [sp, #4]
 8004dce:	e002      	b.n	8004dd6 <USB_CoreInit+0x96>
  } while ((USBx->GRSTCTL & USB_OTG_GRSTCTL_AHBIDL) == 0U);
 8004dd0:	691a      	ldr	r2, [r3, #16]
 8004dd2:	2a00      	cmp	r2, #0
 8004dd4:	db27      	blt.n	8004e26 <USB_CoreInit+0xe6>
    count++;
 8004dd6:	9a01      	ldr	r2, [sp, #4]
 8004dd8:	3201      	adds	r2, #1
 8004dda:	9201      	str	r2, [sp, #4]
    if (count > HAL_USB_TIMEOUT)
 8004ddc:	9a01      	ldr	r2, [sp, #4]
 8004dde:	f1b2 6f70 	cmp.w	r2, #251658240	@ 0xf000000
 8004de2:	d9f5      	bls.n	8004dd0 <USB_CoreInit+0x90>
      return HAL_TIMEOUT;
 8004de4:	2003      	movs	r0, #3
    if (cfg.battery_charging_enable == 0U)
 8004de6:	f89d 2015 	ldrb.w	r2, [sp, #21]
 8004dea:	b9ba      	cbnz	r2, 8004e1c <USB_CoreInit+0xdc>
      USBx->GCCFG |= USB_OTG_GCCFG_PWRDWN;
 8004dec:	6b9a      	ldr	r2, [r3, #56]	@ 0x38
 8004dee:	f442 3280 	orr.w	r2, r2, #65536	@ 0x10000
 8004df2:	639a      	str	r2, [r3, #56]	@ 0x38
 8004df4:	e7cf      	b.n	8004d96 <USB_CoreInit+0x56>

  /* Core Soft Reset */
  count = 0U;
 8004df6:	2200      	movs	r2, #0
 8004df8:	9200      	str	r2, [sp, #0]
  USBx->GRSTCTL |= USB_OTG_GRSTCTL_CSRST;
 8004dfa:	691a      	ldr	r2, [r3, #16]
 8004dfc:	f042 0201 	orr.w	r2, r2, #1
 8004e00:	611a      	str	r2, [r3, #16]
 8004e02:	e003      	b.n	8004e0c <USB_CoreInit+0xcc>

    if (count > HAL_USB_TIMEOUT)
    {
      return HAL_TIMEOUT;
    }
  } while ((USBx->GRSTCTL & USB_OTG_GRSTCTL_CSRST) == USB_OTG_GRSTCTL_CSRST);
 8004e04:	6918      	ldr	r0, [r3, #16]
 8004e06:	f010 0001 	ands.w	r0, r0, #1
 8004e0a:	d0c4      	beq.n	8004d96 <USB_CoreInit+0x56>
    count++;
 8004e0c:	9a00      	ldr	r2, [sp, #0]
 8004e0e:	3201      	adds	r2, #1
 8004e10:	9200      	str	r2, [sp, #0]
    if (count > HAL_USB_TIMEOUT)
 8004e12:	9a00      	ldr	r2, [sp, #0]
 8004e14:	f1b2 6f70 	cmp.w	r2, #251658240	@ 0xf000000
 8004e18:	d9f4      	bls.n	8004e04 <USB_CoreInit+0xc4>
 8004e1a:	e7bb      	b.n	8004d94 <USB_CoreInit+0x54>
      USBx->GCCFG &= ~(USB_OTG_GCCFG_PWRDWN);
 8004e1c:	6b9a      	ldr	r2, [r3, #56]	@ 0x38
 8004e1e:	f422 3280 	bic.w	r2, r2, #65536	@ 0x10000
 8004e22:	639a      	str	r2, [r3, #56]	@ 0x38
 8004e24:	e7b7      	b.n	8004d96 <USB_CoreInit+0x56>
  count = 0U;
 8004e26:	2200      	movs	r2, #0
 8004e28:	9201      	str	r2, [sp, #4]
  USBx->GRSTCTL |= USB_OTG_GRSTCTL_CSRST;
 8004e2a:	691a      	ldr	r2, [r3, #16]
 8004e2c:	f042 0201 	orr.w	r2, r2, #1
 8004e30:	611a      	str	r2, [r3, #16]
 8004e32:	e003      	b.n	8004e3c <USB_CoreInit+0xfc>
  } while ((USBx->GRSTCTL & USB_OTG_GRSTCTL_CSRST) == USB_OTG_GRSTCTL_CSRST);
 8004e34:	6918      	ldr	r0, [r3, #16]
 8004e36:	f010 0001 	ands.w	r0, r0, #1
 8004e3a:	d0d4      	beq.n	8004de6 <USB_CoreInit+0xa6>
    count++;
 8004e3c:	9a01      	ldr	r2, [sp, #4]
 8004e3e:	3201      	adds	r2, #1
 8004e40:	9201      	str	r2, [sp, #4]
    if (count > HAL_USB_TIMEOUT)
 8004e42:	9a01      	ldr	r2, [sp, #4]
 8004e44:	f1b2 6f70 	cmp.w	r2, #251658240	@ 0xf000000
 8004e48:	d9f4      	bls.n	8004e34 <USB_CoreInit+0xf4>
 8004e4a:	e7cb      	b.n	8004de4 <USB_CoreInit+0xa4>
      USBx->GUSBCFG |= USB_OTG_GUSBCFG_ULPIEVBUSD;
 8004e4c:	68da      	ldr	r2, [r3, #12]
 8004e4e:	f442 1280 	orr.w	r2, r2, #1048576	@ 0x100000
 8004e52:	60da      	str	r2, [r3, #12]
 8004e54:	e791      	b.n	8004d7a <USB_CoreInit+0x3a>
 8004e56:	bf00      	nop
 8004e58:	03ee0000 	.word	0x03ee0000

08004e5c <USB_SetTurnaroundTime>:
  if (speed == USBD_FS_SPEED)
 8004e5c:	2a02      	cmp	r2, #2
{
 8004e5e:	4603      	mov	r3, r0
  if (speed == USBD_FS_SPEED)
 8004e60:	d00a      	beq.n	8004e78 <USB_SetTurnaroundTime+0x1c>
 8004e62:	f44f 5110 	mov.w	r1, #9216	@ 0x2400
  USBx->GUSBCFG &= ~USB_OTG_GUSBCFG_TRDT;
 8004e66:	68da      	ldr	r2, [r3, #12]
}
 8004e68:	2000      	movs	r0, #0
  USBx->GUSBCFG &= ~USB_OTG_GUSBCFG_TRDT;
 8004e6a:	f422 5270 	bic.w	r2, r2, #15360	@ 0x3c00
 8004e6e:	60da      	str	r2, [r3, #12]
  USBx->GUSBCFG |= (uint32_t)((UsbTrd << 10) & USB_OTG_GUSBCFG_TRDT);
 8004e70:	68da      	ldr	r2, [r3, #12]
 8004e72:	430a      	orrs	r2, r1
 8004e74:	60da      	str	r2, [r3, #12]
}
 8004e76:	4770      	bx	lr
    if ((hclk >= 14200000U) && (hclk < 15000000U))
 8004e78:	4a23      	ldr	r2, [pc, #140]	@ (8004f08 <USB_SetTurnaroundTime+0xac>)
 8004e7a:	4824      	ldr	r0, [pc, #144]	@ (8004f0c <USB_SetTurnaroundTime+0xb0>)
 8004e7c:	440a      	add	r2, r1
 8004e7e:	4282      	cmp	r2, r0
 8004e80:	d92c      	bls.n	8004edc <USB_SetTurnaroundTime+0x80>
    else if ((hclk >= 15000000U) && (hclk < 16000000U))
 8004e82:	4a23      	ldr	r2, [pc, #140]	@ (8004f10 <USB_SetTurnaroundTime+0xb4>)
 8004e84:	4823      	ldr	r0, [pc, #140]	@ (8004f14 <USB_SetTurnaroundTime+0xb8>)
 8004e86:	440a      	add	r2, r1
 8004e88:	4282      	cmp	r2, r0
 8004e8a:	d92a      	bls.n	8004ee2 <USB_SetTurnaroundTime+0x86>
    else if ((hclk >= 16000000U) && (hclk < 17200000U))
 8004e8c:	4a22      	ldr	r2, [pc, #136]	@ (8004f18 <USB_SetTurnaroundTime+0xbc>)
 8004e8e:	4823      	ldr	r0, [pc, #140]	@ (8004f1c <USB_SetTurnaroundTime+0xc0>)
 8004e90:	440a      	add	r2, r1
 8004e92:	4282      	cmp	r2, r0
 8004e94:	d928      	bls.n	8004ee8 <USB_SetTurnaroundTime+0x8c>
    else if ((hclk >= 17200000U) && (hclk < 18500000U))
 8004e96:	4a22      	ldr	r2, [pc, #136]	@ (8004f20 <USB_SetTurnaroundTime+0xc4>)
 8004e98:	4822      	ldr	r0, [pc, #136]	@ (8004f24 <USB_SetTurnaroundTime+0xc8>)
 8004e9a:	440a      	add	r2, r1
 8004e9c:	4282      	cmp	r2, r0
 8004e9e:	d326      	bcc.n	8004eee <USB_SetTurnaroundTime+0x92>
    else if ((hclk >= 18500000U) && (hclk < 20000000U))
 8004ea0:	4a21      	ldr	r2, [pc, #132]	@ (8004f28 <USB_SetTurnaroundTime+0xcc>)
 8004ea2:	4822      	ldr	r0, [pc, #136]	@ (8004f2c <USB_SetTurnaroundTime+0xd0>)
 8004ea4:	440a      	add	r2, r1
 8004ea6:	4282      	cmp	r2, r0
 8004ea8:	d924      	bls.n	8004ef4 <USB_SetTurnaroundTime+0x98>
    else if ((hclk >= 20000000U) && (hclk < 21800000U))
 8004eaa:	4a21      	ldr	r2, [pc, #132]	@ (8004f30 <USB_SetTurnaroundTime+0xd4>)
 8004eac:	4821      	ldr	r0, [pc, #132]	@ (8004f34 <USB_SetTurnaroundTime+0xd8>)
 8004eae:	440a      	add	r2, r1
 8004eb0:	4282      	cmp	r2, r0
 8004eb2:	d322      	bcc.n	8004efa <USB_SetTurnaroundTime+0x9e>
    else if ((hclk >= 21800000U) && (hclk < 24000000U))
 8004eb4:	4a20      	ldr	r2, [pc, #128]	@ (8004f38 <USB_SetTurnaroundTime+0xdc>)
 8004eb6:	4821      	ldr	r0, [pc, #132]	@ (8004f3c <USB_SetTurnaroundTime+0xe0>)
 8004eb8:	440a      	add	r2, r1
 8004eba:	4282      	cmp	r2, r0
 8004ebc:	d3d1      	bcc.n	8004e62 <USB_SetTurnaroundTime+0x6>
    else if ((hclk >= 24000000U) && (hclk < 27700000U))
 8004ebe:	4a20      	ldr	r2, [pc, #128]	@ (8004f40 <USB_SetTurnaroundTime+0xe4>)
 8004ec0:	4820      	ldr	r0, [pc, #128]	@ (8004f44 <USB_SetTurnaroundTime+0xe8>)
 8004ec2:	440a      	add	r2, r1
 8004ec4:	4282      	cmp	r2, r0
 8004ec6:	d31b      	bcc.n	8004f00 <USB_SetTurnaroundTime+0xa4>
    else if ((hclk >= 27700000U) && (hclk < 32000000U))
 8004ec8:	4a1f      	ldr	r2, [pc, #124]	@ (8004f48 <USB_SetTurnaroundTime+0xec>)
 8004eca:	4820      	ldr	r0, [pc, #128]	@ (8004f4c <USB_SetTurnaroundTime+0xf0>)
 8004ecc:	440a      	add	r2, r1
 8004ece:	4282      	cmp	r2, r0
 8004ed0:	bf2c      	ite	cs
 8004ed2:	f44f 51c0 	movcs.w	r1, #6144	@ 0x1800
 8004ed6:	f44f 51e0 	movcc.w	r1, #7168	@ 0x1c00
 8004eda:	e7c4      	b.n	8004e66 <USB_SetTurnaroundTime+0xa>
 8004edc:	f44f 5170 	mov.w	r1, #15360	@ 0x3c00
 8004ee0:	e7c1      	b.n	8004e66 <USB_SetTurnaroundTime+0xa>
 8004ee2:	f44f 5160 	mov.w	r1, #14336	@ 0x3800
 8004ee6:	e7be      	b.n	8004e66 <USB_SetTurnaroundTime+0xa>
 8004ee8:	f44f 5150 	mov.w	r1, #13312	@ 0x3400
 8004eec:	e7bb      	b.n	8004e66 <USB_SetTurnaroundTime+0xa>
 8004eee:	f44f 5140 	mov.w	r1, #12288	@ 0x3000
 8004ef2:	e7b8      	b.n	8004e66 <USB_SetTurnaroundTime+0xa>
 8004ef4:	f44f 5130 	mov.w	r1, #11264	@ 0x2c00
 8004ef8:	e7b5      	b.n	8004e66 <USB_SetTurnaroundTime+0xa>
 8004efa:	f44f 5120 	mov.w	r1, #10240	@ 0x2800
 8004efe:	e7b2      	b.n	8004e66 <USB_SetTurnaroundTime+0xa>
 8004f00:	f44f 5100 	mov.w	r1, #8192	@ 0x2000
 8004f04:	e7af      	b.n	8004e66 <USB_SetTurnaroundTime+0xa>
 8004f06:	bf00      	nop
 8004f08:	ff275340 	.word	0xff275340
 8004f0c:	000c34ff 	.word	0x000c34ff
 8004f10:	ff1b1e40 	.word	0xff1b1e40
 8004f14:	000f423f 	.word	0x000f423f
 8004f18:	ff0bdc00 	.word	0xff0bdc00
 8004f1c:	00124f7f 	.word	0x00124f7f
 8004f20:	fef98c80 	.word	0xfef98c80
 8004f24:	0013d620 	.word	0x0013d620
 8004f28:	fee5b660 	.word	0xfee5b660
 8004f2c:	0016e35f 	.word	0x0016e35f
 8004f30:	feced300 	.word	0xfeced300
 8004f34:	001b7740 	.word	0x001b7740
 8004f38:	feb35bc0 	.word	0xfeb35bc0
 8004f3c:	002191c0 	.word	0x002191c0
 8004f40:	fe91ca00 	.word	0xfe91ca00
 8004f44:	00387520 	.word	0x00387520
 8004f48:	fe5954e0 	.word	0xfe5954e0
 8004f4c:	00419ce0 	.word	0x00419ce0

08004f50 <USB_EnableGlobalInt>:
{
 8004f50:	4603      	mov	r3, r0
}
 8004f52:	2000      	movs	r0, #0
  USBx->GAHBCFG |= USB_OTG_GAHBCFG_GINT;
 8004f54:	689a      	ldr	r2, [r3, #8]
 8004f56:	f042 0201 	orr.w	r2, r2, #1
 8004f5a:	609a      	str	r2, [r3, #8]
}
 8004f5c:	4770      	bx	lr
 8004f5e:	bf00      	nop

08004f60 <USB_DisableGlobalInt>:
{
 8004f60:	4603      	mov	r3, r0
}
 8004f62:	2000      	movs	r0, #0
  USBx->GAHBCFG &= ~USB_OTG_GAHBCFG_GINT;
 8004f64:	689a      	ldr	r2, [r3, #8]
 8004f66:	f022 0201 	bic.w	r2, r2, #1
 8004f6a:	609a      	str	r2, [r3, #8]
}
 8004f6c:	4770      	bx	lr
 8004f6e:	bf00      	nop

08004f70 <USB_SetCurrentMode>:
{
 8004f70:	b538      	push	{r3, r4, r5, lr}
  USBx->GUSBCFG &= ~(USB_OTG_GUSBCFG_FHMOD | USB_OTG_GUSBCFG_FDMOD);
 8004f72:	68c3      	ldr	r3, [r0, #12]
  if (mode == USB_HOST_MODE)
 8004f74:	2901      	cmp	r1, #1
{
 8004f76:	4605      	mov	r5, r0
  USBx->GUSBCFG &= ~(USB_OTG_GUSBCFG_FHMOD | USB_OTG_GUSBCFG_FDMOD);
 8004f78:	f023 43c0 	bic.w	r3, r3, #1610612736	@ 0x60000000
 8004f7c:	60c3      	str	r3, [r0, #12]
  if (mode == USB_HOST_MODE)
 8004f7e:	d017      	beq.n	8004fb0 <USB_SetCurrentMode+0x40>
  else if (mode == USB_DEVICE_MODE)
 8004f80:	b9a1      	cbnz	r1, 8004fac <USB_SetCurrentMode+0x3c>
    USBx->GUSBCFG |= USB_OTG_GUSBCFG_FDMOD;
 8004f82:	68c3      	ldr	r3, [r0, #12]
  uint32_t ms = 0U;
 8004f84:	460c      	mov	r4, r1
    USBx->GUSBCFG |= USB_OTG_GUSBCFG_FDMOD;
 8004f86:	f043 4380 	orr.w	r3, r3, #1073741824	@ 0x40000000
 8004f8a:	60c3      	str	r3, [r0, #12]
 8004f8c:	e001      	b.n	8004f92 <USB_SetCurrentMode+0x22>
    } while ((USB_GetMode(USBx) != (uint32_t)USB_DEVICE_MODE) && (ms < HAL_USB_CURRENT_MODE_MAX_DELAY_MS));
 8004f8e:	2cc8      	cmp	r4, #200	@ 0xc8
 8004f90:	d00c      	beq.n	8004fac <USB_SetCurrentMode+0x3c>
      HAL_Delay(10U);
 8004f92:	200a      	movs	r0, #10
      ms += 10U;
 8004f94:	4404      	add	r4, r0
      HAL_Delay(10U);
 8004f96:	f7fb ff7f 	bl	8000e98 <HAL_Delay>
  return ((USBx->GINTSTS) & 0x1U);
 8004f9a:	696b      	ldr	r3, [r5, #20]
    } while ((USB_GetMode(USBx) != (uint32_t)USB_DEVICE_MODE) && (ms < HAL_USB_CURRENT_MODE_MAX_DELAY_MS));
 8004f9c:	07db      	lsls	r3, r3, #31
 8004f9e:	d4f6      	bmi.n	8004f8e <USB_SetCurrentMode+0x1e>
  if (ms == HAL_USB_CURRENT_MODE_MAX_DELAY_MS)
 8004fa0:	f1a4 00c8 	sub.w	r0, r4, #200	@ 0xc8
 8004fa4:	fab0 f080 	clz	r0, r0
 8004fa8:	0940      	lsrs	r0, r0, #5
}
 8004faa:	bd38      	pop	{r3, r4, r5, pc}
    return HAL_ERROR;
 8004fac:	2001      	movs	r0, #1
}
 8004fae:	bd38      	pop	{r3, r4, r5, pc}
    USBx->GUSBCFG |= USB_OTG_GUSBCFG_FHMOD;
 8004fb0:	68c3      	ldr	r3, [r0, #12]
  uint32_t ms = 0U;
 8004fb2:	2400      	movs	r4, #0
    USBx->GUSBCFG |= USB_OTG_GUSBCFG_FHMOD;
 8004fb4:	f043 5300 	orr.w	r3, r3, #536870912	@ 0x20000000
 8004fb8:	60c3      	str	r3, [r0, #12]
 8004fba:	e001      	b.n	8004fc0 <USB_SetCurrentMode+0x50>
    } while ((USB_GetMode(USBx) != (uint32_t)USB_HOST_MODE) && (ms < HAL_USB_CURRENT_MODE_MAX_DELAY_MS));
 8004fbc:	2cc8      	cmp	r4, #200	@ 0xc8
 8004fbe:	d0f5      	beq.n	8004fac <USB_SetCurrentMode+0x3c>
      HAL_Delay(10U);
 8004fc0:	200a      	movs	r0, #10
      ms += 10U;
 8004fc2:	4404      	add	r4, r0
      HAL_Delay(10U);
 8004fc4:	f7fb ff68 	bl	8000e98 <HAL_Delay>
  return ((USBx->GINTSTS) & 0x1U);
 8004fc8:	696b      	ldr	r3, [r5, #20]
    } while ((USB_GetMode(USBx) != (uint32_t)USB_HOST_MODE) && (ms < HAL_USB_CURRENT_MODE_MAX_DELAY_MS));
 8004fca:	07da      	lsls	r2, r3, #31
 8004fcc:	d5f6      	bpl.n	8004fbc <USB_SetCurrentMode+0x4c>
  if (ms == HAL_USB_CURRENT_MODE_MAX_DELAY_MS)
 8004fce:	f1a4 00c8 	sub.w	r0, r4, #200	@ 0xc8
 8004fd2:	fab0 f080 	clz	r0, r0
 8004fd6:	0940      	lsrs	r0, r0, #5
 8004fd8:	e7e7      	b.n	8004faa <USB_SetCurrentMode+0x3a>
 8004fda:	bf00      	nop

08004fdc <USB_DevInit>:
{
 8004fdc:	b084      	sub	sp, #16
 8004fde:	4684      	mov	ip, r0
 8004fe0:	e92d 41f0 	stmdb	sp!, {r4, r5, r6, r7, r8, lr}
 8004fe4:	b082      	sub	sp, #8
    USBx_DEVICE->DCTL |= USB_OTG_DCTL_SDIS;
 8004fe6:	f500 6e00 	add.w	lr, r0, #2048	@ 0x800
{
 8004fea:	ac09      	add	r4, sp, #36	@ 0x24
 8004fec:	e884 000e 	stmia.w	r4, {r1, r2, r3}
    USBx->DIEPTXF[i] = 0U;
 8004ff0:	2300      	movs	r3, #0
 8004ff2:	f89d 402e 	ldrb.w	r4, [sp, #46]	@ 0x2e
 8004ff6:	f89d 5024 	ldrb.w	r5, [sp, #36]	@ 0x24
 8004ffa:	f8c0 3104 	str.w	r3, [r0, #260]	@ 0x104
 8004ffe:	f8c0 3108 	str.w	r3, [r0, #264]	@ 0x108
 8005002:	f8c0 310c 	str.w	r3, [r0, #268]	@ 0x10c
 8005006:	f8c0 3110 	str.w	r3, [r0, #272]	@ 0x110
 800500a:	f8c0 3114 	str.w	r3, [r0, #276]	@ 0x114
 800500e:	f8c0 3118 	str.w	r3, [r0, #280]	@ 0x118
 8005012:	f8c0 311c 	str.w	r3, [r0, #284]	@ 0x11c
 8005016:	f8c0 3120 	str.w	r3, [r0, #288]	@ 0x120
 800501a:	f8c0 3124 	str.w	r3, [r0, #292]	@ 0x124
 800501e:	f8c0 3128 	str.w	r3, [r0, #296]	@ 0x128
 8005022:	f8c0 312c 	str.w	r3, [r0, #300]	@ 0x12c
 8005026:	f8c0 3130 	str.w	r3, [r0, #304]	@ 0x130
 800502a:	f8c0 3134 	str.w	r3, [r0, #308]	@ 0x134
 800502e:	f8c0 3138 	str.w	r3, [r0, #312]	@ 0x138
 8005032:	f8c0 313c 	str.w	r3, [r0, #316]	@ 0x13c
  if (cfg.vbus_sensing_enable == 0U)
 8005036:	2c00      	cmp	r4, #0
 8005038:	f040 80bf 	bne.w	80051ba <USB_DevInit+0x1de>
    USBx_DEVICE->DCTL |= USB_OTG_DCTL_SDIS;
 800503c:	f8de 3004 	ldr.w	r3, [lr, #4]
 8005040:	f043 0302 	orr.w	r3, r3, #2
 8005044:	f8ce 3004 	str.w	r3, [lr, #4]
    USBx->GCCFG &= ~USB_OTG_GCCFG_VBDEN;
 8005048:	6b83      	ldr	r3, [r0, #56]	@ 0x38
 800504a:	f423 1300 	bic.w	r3, r3, #2097152	@ 0x200000
 800504e:	6383      	str	r3, [r0, #56]	@ 0x38
    USBx->GOTGCTL |= USB_OTG_GOTGCTL_BVALOEN;
 8005050:	6803      	ldr	r3, [r0, #0]
 8005052:	f043 0340 	orr.w	r3, r3, #64	@ 0x40
 8005056:	6003      	str	r3, [r0, #0]
    USBx->GOTGCTL |= USB_OTG_GOTGCTL_BVALOVAL;
 8005058:	6803      	ldr	r3, [r0, #0]
 800505a:	f043 0380 	orr.w	r3, r3, #128	@ 0x80
 800505e:	6003      	str	r3, [r0, #0]
  USBx_PCGCCTL = 0U;
 8005060:	2300      	movs	r3, #0
 8005062:	f8cc 3e00 	str.w	r3, [ip, #3584]	@ 0xe00
  if (cfg.phy_itface == USB_OTG_ULPI_PHY)
 8005066:	f89d 3029 	ldrb.w	r3, [sp, #41]	@ 0x29
 800506a:	2b01      	cmp	r3, #1
 800506c:	f000 80b1 	beq.w	80051d2 <USB_DevInit+0x1f6>
  USBx_DEVICE->DCFG |= speed;
 8005070:	f8dc 3800 	ldr.w	r3, [ip, #2048]	@ 0x800
 8005074:	f043 0303 	orr.w	r3, r3, #3
 8005078:	f8cc 3800 	str.w	r3, [ip, #2048]	@ 0x800
  __IO uint32_t count = 0U;
 800507c:	2300      	movs	r3, #0
 800507e:	9300      	str	r3, [sp, #0]
 8005080:	e004      	b.n	800508c <USB_DevInit+0xb0>
  } while ((USBx->GRSTCTL & USB_OTG_GRSTCTL_AHBIDL) == 0U);
 8005082:	f8dc 3010 	ldr.w	r3, [ip, #16]
 8005086:	2b00      	cmp	r3, #0
 8005088:	f2c0 80be 	blt.w	8005208 <USB_DevInit+0x22c>
    count++;
 800508c:	9b00      	ldr	r3, [sp, #0]
 800508e:	3301      	adds	r3, #1
 8005090:	9300      	str	r3, [sp, #0]
    if (count > HAL_USB_TIMEOUT)
 8005092:	9b00      	ldr	r3, [sp, #0]
 8005094:	f1b3 6f70 	cmp.w	r3, #251658240	@ 0xf000000
 8005098:	d9f3      	bls.n	8005082 <USB_DevInit+0xa6>
 800509a:	2001      	movs	r0, #1
  __IO uint32_t count = 0U;
 800509c:	2300      	movs	r3, #0
 800509e:	9301      	str	r3, [sp, #4]
 80050a0:	e004      	b.n	80050ac <USB_DevInit+0xd0>
  } while ((USBx->GRSTCTL & USB_OTG_GRSTCTL_AHBIDL) == 0U);
 80050a2:	f8dc 3010 	ldr.w	r3, [ip, #16]
 80050a6:	2b00      	cmp	r3, #0
 80050a8:	f2c0 809b 	blt.w	80051e2 <USB_DevInit+0x206>
    count++;
 80050ac:	9b01      	ldr	r3, [sp, #4]
 80050ae:	3301      	adds	r3, #1
 80050b0:	9301      	str	r3, [sp, #4]
    if (count > HAL_USB_TIMEOUT)
 80050b2:	9b01      	ldr	r3, [sp, #4]
 80050b4:	f1b3 6f70 	cmp.w	r3, #251658240	@ 0xf000000
 80050b8:	d9f3      	bls.n	80050a2 <USB_DevInit+0xc6>
    ret = HAL_ERROR;
 80050ba:	2001      	movs	r0, #1
  USBx_DEVICE->DIEPMSK = 0U;
 80050bc:	2200      	movs	r2, #0
 80050be:	f8ce 2010 	str.w	r2, [lr, #16]
  USBx_DEVICE->DOEPMSK = 0U;
 80050c2:	f8ce 2014 	str.w	r2, [lr, #20]
  USBx_DEVICE->DAINTMSK = 0U;
 80050c6:	f8ce 201c 	str.w	r2, [lr, #28]
  for (i = 0U; i < cfg.dev_endpoints; i++)
 80050ca:	b305      	cbz	r5, 800510e <USB_DevInit+0x132>
    if ((USBx_INEP(i)->DIEPCTL & USB_OTG_DIEPCTL_EPENA) == USB_OTG_DIEPCTL_EPENA)
 80050cc:	f8dc 1900 	ldr.w	r1, [ip, #2304]	@ 0x900
 80050d0:	f50c 6310 	add.w	r3, ip, #2304	@ 0x900
 80050d4:	2900      	cmp	r1, #0
 80050d6:	db14      	blt.n	8005102 <USB_DevInit+0x126>
      USBx_INEP(i)->DIEPCTL = 0U;
 80050d8:	2600      	movs	r6, #0
 80050da:	4611      	mov	r1, r2
 80050dc:	601e      	str	r6, [r3, #0]
    USBx_INEP(i)->DIEPTSIZ = 0U;
 80050de:	2700      	movs	r7, #0
    USBx_INEP(i)->DIEPINT  = 0xFB7FU;
 80050e0:	f64f 367f 	movw	r6, #64383	@ 0xfb7f
  for (i = 0U; i < cfg.dev_endpoints; i++)
 80050e4:	1c4a      	adds	r2, r1, #1
    USBx_INEP(i)->DIEPTSIZ = 0U;
 80050e6:	611f      	str	r7, [r3, #16]
    USBx_INEP(i)->DIEPINT  = 0xFB7FU;
 80050e8:	609e      	str	r6, [r3, #8]
  for (i = 0U; i < cfg.dev_endpoints; i++)
 80050ea:	3320      	adds	r3, #32
 80050ec:	4295      	cmp	r5, r2
 80050ee:	d040      	beq.n	8005172 <USB_DevInit+0x196>
    if ((USBx_INEP(i)->DIEPCTL & USB_OTG_DIEPCTL_EPENA) == USB_OTG_DIEPCTL_EPENA)
 80050f0:	6819      	ldr	r1, [r3, #0]
 80050f2:	2900      	cmp	r1, #0
 80050f4:	daf0      	bge.n	80050d8 <USB_DevInit+0xfc>
        USBx_INEP(i)->DIEPCTL = USB_OTG_DIEPCTL_EPDIS | USB_OTG_DIEPCTL_SNAK;
 80050f6:	f04f 4890 	mov.w	r8, #1207959552	@ 0x48000000
  for (i = 0U; i < cfg.dev_endpoints; i++)
 80050fa:	4611      	mov	r1, r2
        USBx_INEP(i)->DIEPCTL = USB_OTG_DIEPCTL_EPDIS | USB_OTG_DIEPCTL_SNAK;
 80050fc:	f8c3 8000 	str.w	r8, [r3]
 8005100:	e7f0      	b.n	80050e4 <USB_DevInit+0x108>
        USBx_INEP(i)->DIEPCTL = USB_OTG_DIEPCTL_SNAK;
 8005102:	f04f 6600 	mov.w	r6, #134217728	@ 0x8000000
  for (i = 0U; i < cfg.dev_endpoints; i++)
 8005106:	4611      	mov	r1, r2
        USBx_INEP(i)->DIEPCTL = USB_OTG_DIEPCTL_SNAK;
 8005108:	f8cc 6900 	str.w	r6, [ip, #2304]	@ 0x900
 800510c:	e7e7      	b.n	80050de <USB_DevInit+0x102>
  USBx_DEVICE->DIEPMSK &= ~(USB_OTG_DIEPMSK_TXFURM);
 800510e:	f8de 3010 	ldr.w	r3, [lr, #16]
  USBx->GINTMSK = 0U;
 8005112:	2200      	movs	r2, #0
  USBx_DEVICE->DIEPMSK &= ~(USB_OTG_DIEPMSK_TXFURM);
 8005114:	f423 7380 	bic.w	r3, r3, #256	@ 0x100
 8005118:	f8ce 3010 	str.w	r3, [lr, #16]
  USBx->GINTSTS = 0xBFFFFFFFU;
 800511c:	f06f 4380 	mvn.w	r3, #1073741824	@ 0x40000000
  USBx->GINTMSK = 0U;
 8005120:	f8cc 2018 	str.w	r2, [ip, #24]
  USBx->GINTSTS = 0xBFFFFFFFU;
 8005124:	f8cc 3014 	str.w	r3, [ip, #20]
  if (cfg.dma_enable == 0U)
 8005128:	f89d 3026 	ldrb.w	r3, [sp, #38]	@ 0x26
 800512c:	b92b      	cbnz	r3, 800513a <USB_DevInit+0x15e>
    USBx->GINTMSK |= USB_OTG_GINTMSK_RXFLVLM;
 800512e:	f8dc 3018 	ldr.w	r3, [ip, #24]
 8005132:	f043 0310 	orr.w	r3, r3, #16
 8005136:	f8cc 3018 	str.w	r3, [ip, #24]
  USBx->GINTMSK |= USB_OTG_GINTMSK_USBSUSPM | USB_OTG_GINTMSK_USBRST |
 800513a:	f8dc 2018 	ldr.w	r2, [ip, #24]
 800513e:	4b40      	ldr	r3, [pc, #256]	@ (8005240 <USB_DevInit+0x264>)
 8005140:	4313      	orrs	r3, r2
  if (cfg.Sof_enable != 0U)
 8005142:	f89d 202a 	ldrb.w	r2, [sp, #42]	@ 0x2a
  USBx->GINTMSK |= USB_OTG_GINTMSK_USBSUSPM | USB_OTG_GINTMSK_USBRST |
 8005146:	f8cc 3018 	str.w	r3, [ip, #24]
  if (cfg.Sof_enable != 0U)
 800514a:	b12a      	cbz	r2, 8005158 <USB_DevInit+0x17c>
    USBx->GINTMSK |= USB_OTG_GINTMSK_SOFM;
 800514c:	f8dc 3018 	ldr.w	r3, [ip, #24]
 8005150:	f043 0308 	orr.w	r3, r3, #8
 8005154:	f8cc 3018 	str.w	r3, [ip, #24]
  if (cfg.vbus_sensing_enable == 1U)
 8005158:	2c01      	cmp	r4, #1
 800515a:	d105      	bne.n	8005168 <USB_DevInit+0x18c>
    USBx->GINTMSK |= (USB_OTG_GINTMSK_SRQIM | USB_OTG_GINTMSK_OTGINT);
 800515c:	f8dc 2018 	ldr.w	r2, [ip, #24]
 8005160:	4b38      	ldr	r3, [pc, #224]	@ (8005244 <USB_DevInit+0x268>)
 8005162:	4313      	orrs	r3, r2
 8005164:	f8cc 3018 	str.w	r3, [ip, #24]
}
 8005168:	b002      	add	sp, #8
 800516a:	e8bd 41f0 	ldmia.w	sp!, {r4, r5, r6, r7, r8, lr}
 800516e:	b004      	add	sp, #16
 8005170:	4770      	bx	lr
    if ((USBx_OUTEP(i)->DOEPCTL & USB_OTG_DOEPCTL_EPENA) == USB_OTG_DOEPCTL_EPENA)
 8005172:	f8dc 2b00 	ldr.w	r2, [ip, #2816]	@ 0xb00
 8005176:	f50c 6330 	add.w	r3, ip, #2816	@ 0xb00
 800517a:	2a00      	cmp	r2, #0
 800517c:	db17      	blt.n	80051ae <USB_DevInit+0x1d2>
  for (i = 0U; i < cfg.dev_endpoints; i++)
 800517e:	2500      	movs	r5, #0
      USBx_OUTEP(i)->DOEPCTL = 0U;
 8005180:	2600      	movs	r6, #0
 8005182:	462a      	mov	r2, r5
 8005184:	601e      	str	r6, [r3, #0]
    USBx_OUTEP(i)->DOEPTSIZ = 0U;
 8005186:	2700      	movs	r7, #0
    USBx_OUTEP(i)->DOEPINT  = 0xFB7FU;
 8005188:	f64f 367f 	movw	r6, #64383	@ 0xfb7f
  for (i = 0U; i < cfg.dev_endpoints; i++)
 800518c:	4291      	cmp	r1, r2
    USBx_OUTEP(i)->DOEPTSIZ = 0U;
 800518e:	611f      	str	r7, [r3, #16]
  for (i = 0U; i < cfg.dev_endpoints; i++)
 8005190:	f102 0501 	add.w	r5, r2, #1
    USBx_OUTEP(i)->DOEPINT  = 0xFB7FU;
 8005194:	609e      	str	r6, [r3, #8]
  for (i = 0U; i < cfg.dev_endpoints; i++)
 8005196:	f103 0320 	add.w	r3, r3, #32
 800519a:	d0b8      	beq.n	800510e <USB_DevInit+0x132>
    if ((USBx_OUTEP(i)->DOEPCTL & USB_OTG_DOEPCTL_EPENA) == USB_OTG_DOEPCTL_EPENA)
 800519c:	681a      	ldr	r2, [r3, #0]
 800519e:	2a00      	cmp	r2, #0
 80051a0:	daee      	bge.n	8005180 <USB_DevInit+0x1a4>
        USBx_OUTEP(i)->DOEPCTL = USB_OTG_DOEPCTL_EPDIS | USB_OTG_DOEPCTL_SNAK;
 80051a2:	f04f 4890 	mov.w	r8, #1207959552	@ 0x48000000
 80051a6:	462a      	mov	r2, r5
 80051a8:	f8c3 8000 	str.w	r8, [r3]
 80051ac:	e7ee      	b.n	800518c <USB_DevInit+0x1b0>
        USBx_OUTEP(i)->DOEPCTL = USB_OTG_DOEPCTL_SNAK;
 80051ae:	f04f 6200 	mov.w	r2, #134217728	@ 0x8000000
 80051b2:	f8cc 2b00 	str.w	r2, [ip, #2816]	@ 0xb00
  for (i = 0U; i < cfg.dev_endpoints; i++)
 80051b6:	2200      	movs	r2, #0
 80051b8:	e7e5      	b.n	8005186 <USB_DevInit+0x1aa>
    USBx->GCCFG |= USB_OTG_GCCFG_VBDEN;
 80051ba:	6b83      	ldr	r3, [r0, #56]	@ 0x38
 80051bc:	f443 1300 	orr.w	r3, r3, #2097152	@ 0x200000
 80051c0:	6383      	str	r3, [r0, #56]	@ 0x38
  USBx_PCGCCTL = 0U;
 80051c2:	2300      	movs	r3, #0
 80051c4:	f8cc 3e00 	str.w	r3, [ip, #3584]	@ 0xe00
  if (cfg.phy_itface == USB_OTG_ULPI_PHY)
 80051c8:	f89d 3029 	ldrb.w	r3, [sp, #41]	@ 0x29
 80051cc:	2b01      	cmp	r3, #1
 80051ce:	f47f af4f 	bne.w	8005070 <USB_DevInit+0x94>
    if (cfg.speed == USBD_HS_SPEED)
 80051d2:	f89d 3027 	ldrb.w	r3, [sp, #39]	@ 0x27
 80051d6:	bb63      	cbnz	r3, 8005232 <USB_DevInit+0x256>
  USBx_DEVICE->DCFG |= speed;
 80051d8:	f8dc 3800 	ldr.w	r3, [ip, #2048]	@ 0x800
 80051dc:	f8cc 3800 	str.w	r3, [ip, #2048]	@ 0x800
  return HAL_OK;
 80051e0:	e74c      	b.n	800507c <USB_DevInit+0xa0>
  count = 0U;
 80051e2:	2300      	movs	r3, #0
 80051e4:	9301      	str	r3, [sp, #4]
  USBx->GRSTCTL = USB_OTG_GRSTCTL_RXFFLSH;
 80051e6:	2310      	movs	r3, #16
 80051e8:	f8cc 3010 	str.w	r3, [ip, #16]
 80051ec:	e004      	b.n	80051f8 <USB_DevInit+0x21c>
  } while ((USBx->GRSTCTL & USB_OTG_GRSTCTL_RXFFLSH) == USB_OTG_GRSTCTL_RXFFLSH);
 80051ee:	f8dc 3010 	ldr.w	r3, [ip, #16]
 80051f2:	06db      	lsls	r3, r3, #27
 80051f4:	f57f af62 	bpl.w	80050bc <USB_DevInit+0xe0>
    count++;
 80051f8:	9b01      	ldr	r3, [sp, #4]
 80051fa:	3301      	adds	r3, #1
 80051fc:	9301      	str	r3, [sp, #4]
    if (count > HAL_USB_TIMEOUT)
 80051fe:	9b01      	ldr	r3, [sp, #4]
 8005200:	f1b3 6f70 	cmp.w	r3, #251658240	@ 0xf000000
 8005204:	d9f3      	bls.n	80051ee <USB_DevInit+0x212>
 8005206:	e758      	b.n	80050ba <USB_DevInit+0xde>
  count = 0U;
 8005208:	2300      	movs	r3, #0
 800520a:	9300      	str	r3, [sp, #0]
  USBx->GRSTCTL = (USB_OTG_GRSTCTL_TXFFLSH | (num << 6));
 800520c:	f44f 6384 	mov.w	r3, #1056	@ 0x420
 8005210:	f8cc 3010 	str.w	r3, [ip, #16]
 8005214:	e005      	b.n	8005222 <USB_DevInit+0x246>
  } while ((USBx->GRSTCTL & USB_OTG_GRSTCTL_TXFFLSH) == USB_OTG_GRSTCTL_TXFFLSH);
 8005216:	f8dc 0010 	ldr.w	r0, [ip, #16]
 800521a:	f010 0020 	ands.w	r0, r0, #32
 800521e:	f43f af3d 	beq.w	800509c <USB_DevInit+0xc0>
    count++;
 8005222:	9b00      	ldr	r3, [sp, #0]
 8005224:	3301      	adds	r3, #1
 8005226:	9300      	str	r3, [sp, #0]
    if (count > HAL_USB_TIMEOUT)
 8005228:	9b00      	ldr	r3, [sp, #0]
 800522a:	f1b3 6f70 	cmp.w	r3, #251658240	@ 0xf000000
 800522e:	d9f2      	bls.n	8005216 <USB_DevInit+0x23a>
 8005230:	e733      	b.n	800509a <USB_DevInit+0xbe>
  USBx_DEVICE->DCFG |= speed;
 8005232:	f8dc 3800 	ldr.w	r3, [ip, #2048]	@ 0x800
 8005236:	f043 0301 	orr.w	r3, r3, #1
 800523a:	f8cc 3800 	str.w	r3, [ip, #2048]	@ 0x800
  return HAL_OK;
 800523e:	e71d      	b.n	800507c <USB_DevInit+0xa0>
 8005240:	803c3800 	.word	0x803c3800
 8005244:	40000004 	.word	0x40000004

08005248 <USB_FlushTxFifo>:
{
 8005248:	b082      	sub	sp, #8
  __IO uint32_t count = 0U;
 800524a:	2300      	movs	r3, #0
 800524c:	9301      	str	r3, [sp, #4]
 800524e:	e002      	b.n	8005256 <USB_FlushTxFifo+0xe>
  } while ((USBx->GRSTCTL & USB_OTG_GRSTCTL_AHBIDL) == 0U);
 8005250:	6903      	ldr	r3, [r0, #16]
 8005252:	2b00      	cmp	r3, #0
 8005254:	db09      	blt.n	800526a <USB_FlushTxFifo+0x22>
    count++;
 8005256:	9b01      	ldr	r3, [sp, #4]
 8005258:	3301      	adds	r3, #1
 800525a:	9301      	str	r3, [sp, #4]
    if (count > HAL_USB_TIMEOUT)
 800525c:	9b01      	ldr	r3, [sp, #4]
 800525e:	f1b3 6f70 	cmp.w	r3, #251658240	@ 0xf000000
 8005262:	d9f5      	bls.n	8005250 <USB_FlushTxFifo+0x8>
      return HAL_TIMEOUT;
 8005264:	2003      	movs	r0, #3
}
 8005266:	b002      	add	sp, #8
 8005268:	4770      	bx	lr
  USBx->GRSTCTL = (USB_OTG_GRSTCTL_TXFFLSH | (num << 6));
 800526a:	0189      	lsls	r1, r1, #6
  count = 0U;
 800526c:	2300      	movs	r3, #0
  USBx->GRSTCTL = (USB_OTG_GRSTCTL_TXFFLSH | (num << 6));
 800526e:	f041 0120 	orr.w	r1, r1, #32
  count = 0U;
 8005272:	9301      	str	r3, [sp, #4]
  USBx->GRSTCTL = (USB_OTG_GRSTCTL_TXFFLSH | (num << 6));
 8005274:	6101      	str	r1, [r0, #16]
 8005276:	e003      	b.n	8005280 <USB_FlushTxFifo+0x38>
  } while ((USBx->GRSTCTL & USB_OTG_GRSTCTL_TXFFLSH) == USB_OTG_GRSTCTL_TXFFLSH);
 8005278:	6903      	ldr	r3, [r0, #16]
 800527a:	f013 0320 	ands.w	r3, r3, #32
 800527e:	d007      	beq.n	8005290 <USB_FlushTxFifo+0x48>
    count++;
 8005280:	9b01      	ldr	r3, [sp, #4]
 8005282:	3301      	adds	r3, #1
 8005284:	9301      	str	r3, [sp, #4]
    if (count > HAL_USB_TIMEOUT)
 8005286:	9b01      	ldr	r3, [sp, #4]
 8005288:	f1b3 6f70 	cmp.w	r3, #251658240	@ 0xf000000
 800528c:	d9f4      	bls.n	8005278 <USB_FlushTxFifo+0x30>
 800528e:	e7e9      	b.n	8005264 <USB_FlushTxFifo+0x1c>
  return HAL_OK;
 8005290:	4618      	mov	r0, r3
}
 8005292:	b002      	add	sp, #8
 8005294:	4770      	bx	lr
 8005296:	bf00      	nop

08005298 <USB_GetDevSpeed>:
  uint32_t DevEnumSpeed = USBx_DEVICE->DSTS & USB_OTG_DSTS_ENUMSPD;
 8005298:	f8d0 3808 	ldr.w	r3, [r0, #2056]	@ 0x808
  if (DevEnumSpeed == DSTS_ENUMSPD_HS_PHY_30MHZ_OR_60MHZ)
 800529c:	f013 0006 	ands.w	r0, r3, #6
 80052a0:	d004      	beq.n	80052ac <USB_GetDevSpeed+0x14>
    speed = USBD_FS_SPEED;
 80052a2:	f013 0f02 	tst.w	r3, #2
 80052a6:	bf0c      	ite	eq
 80052a8:	200f      	moveq	r0, #15
 80052aa:	2002      	movne	r0, #2
}
 80052ac:	4770      	bx	lr
 80052ae:	bf00      	nop

080052b0 <USB_ActivateEndpoint>:
{
 80052b0:	b530      	push	{r4, r5, lr}
  uint32_t epnum = (uint32_t)ep->num;
 80052b2:	780a      	ldrb	r2, [r1, #0]
    USBx_DEVICE->DAINTMSK |= USB_OTG_DAINTMSK_IEPM & (uint32_t)(1UL << (ep->num & EP_ADDR_MSK));
 80052b4:	2301      	movs	r3, #1
 80052b6:	f500 6c00 	add.w	ip, r0, #2048	@ 0x800
 80052ba:	f002 0e0f 	and.w	lr, r2, #15
    if ((USBx_INEP(epnum)->DIEPCTL & USB_OTG_DIEPCTL_USBAEP) == 0U)
 80052be:	eb00 1042 	add.w	r0, r0, r2, lsl #5
    USBx_DEVICE->DAINTMSK |= USB_OTG_DAINTMSK_IEPM & (uint32_t)(1UL << (ep->num & EP_ADDR_MSK));
 80052c2:	fa03 f30e 	lsl.w	r3, r3, lr
  if (ep->is_in == 1U)
 80052c6:	f891 e001 	ldrb.w	lr, [r1, #1]
 80052ca:	f1be 0f01 	cmp.w	lr, #1
 80052ce:	d018      	beq.n	8005302 <USB_ActivateEndpoint+0x52>
    USBx_DEVICE->DAINTMSK |= USB_OTG_DAINTMSK_OEPM & ((uint32_t)(1UL << (ep->num & EP_ADDR_MSK)) << 16);
 80052d0:	f8dc 201c 	ldr.w	r2, [ip, #28]
 80052d4:	ea42 4303 	orr.w	r3, r2, r3, lsl #16
 80052d8:	f8cc 301c 	str.w	r3, [ip, #28]
    if (((USBx_OUTEP(epnum)->DOEPCTL) & USB_OTG_DOEPCTL_USBAEP) == 0U)
 80052dc:	f8d0 3b00 	ldr.w	r3, [r0, #2816]	@ 0xb00
 80052e0:	041b      	lsls	r3, r3, #16
 80052e2:	d40c      	bmi.n	80052fe <USB_ActivateEndpoint+0x4e>
      USBx_OUTEP(epnum)->DOEPCTL |= (ep->maxpacket & USB_OTG_DOEPCTL_MPSIZ) |
 80052e4:	688b      	ldr	r3, [r1, #8]
 80052e6:	f8d0 4b00 	ldr.w	r4, [r0, #2816]	@ 0xb00
 80052ea:	f3c3 030a 	ubfx	r3, r3, #0, #11
                                    ((uint32_t)ep->type << 18) |
 80052ee:	7909      	ldrb	r1, [r1, #4]
      USBx_OUTEP(epnum)->DOEPCTL |= (ep->maxpacket & USB_OTG_DOEPCTL_MPSIZ) |
 80052f0:	4a11      	ldr	r2, [pc, #68]	@ (8005338 <USB_ActivateEndpoint+0x88>)
 80052f2:	4323      	orrs	r3, r4
 80052f4:	ea43 4381 	orr.w	r3, r3, r1, lsl #18
 80052f8:	431a      	orrs	r2, r3
 80052fa:	f8c0 2b00 	str.w	r2, [r0, #2816]	@ 0xb00
}
 80052fe:	2000      	movs	r0, #0
 8005300:	bd30      	pop	{r4, r5, pc}
    USBx_DEVICE->DAINTMSK |= USB_OTG_DAINTMSK_IEPM & (uint32_t)(1UL << (ep->num & EP_ADDR_MSK));
 8005302:	f8dc 401c 	ldr.w	r4, [ip, #28]
 8005306:	4323      	orrs	r3, r4
 8005308:	f8cc 301c 	str.w	r3, [ip, #28]
    if ((USBx_INEP(epnum)->DIEPCTL & USB_OTG_DIEPCTL_USBAEP) == 0U)
 800530c:	f8d0 3900 	ldr.w	r3, [r0, #2304]	@ 0x900
 8005310:	041c      	lsls	r4, r3, #16
 8005312:	d4f4      	bmi.n	80052fe <USB_ActivateEndpoint+0x4e>
      USBx_INEP(epnum)->DIEPCTL |= (ep->maxpacket & USB_OTG_DIEPCTL_MPSIZ) |
 8005314:	688b      	ldr	r3, [r1, #8]
 8005316:	f8d0 5900 	ldr.w	r5, [r0, #2304]	@ 0x900
 800531a:	f3c3 030a 	ubfx	r3, r3, #0, #11
                                   ((uint32_t)ep->type << 18) | (epnum << 22) |
 800531e:	790c      	ldrb	r4, [r1, #4]
      USBx_INEP(epnum)->DIEPCTL |= (ep->maxpacket & USB_OTG_DIEPCTL_MPSIZ) |
 8005320:	4905      	ldr	r1, [pc, #20]	@ (8005338 <USB_ActivateEndpoint+0x88>)
 8005322:	432b      	orrs	r3, r5
 8005324:	ea43 4384 	orr.w	r3, r3, r4, lsl #18
 8005328:	ea43 5382 	orr.w	r3, r3, r2, lsl #22
 800532c:	4319      	orrs	r1, r3
 800532e:	f8c0 1900 	str.w	r1, [r0, #2304]	@ 0x900
}
 8005332:	2000      	movs	r0, #0
 8005334:	bd30      	pop	{r4, r5, pc}
 8005336:	bf00      	nop
 8005338:	10008000 	.word	0x10008000

0800533c <USB_DeactivateEndpoint>:
  if (ep->is_in == 1U)
 800533c:	784a      	ldrb	r2, [r1, #1]
  uint32_t epnum = (uint32_t)ep->num;
 800533e:	780b      	ldrb	r3, [r1, #0]
  if (ep->is_in == 1U)
 8005340:	2a01      	cmp	r2, #1
    if ((USBx_INEP(epnum)->DIEPCTL & USB_OTG_DIEPCTL_EPENA) == USB_OTG_DIEPCTL_EPENA)
 8005342:	eb00 1c43 	add.w	ip, r0, r3, lsl #5
  if (ep->is_in == 1U)
 8005346:	d02a      	beq.n	800539e <USB_DeactivateEndpoint+0x62>
    if ((USBx_OUTEP(epnum)->DOEPCTL & USB_OTG_DOEPCTL_EPENA) == USB_OTG_DOEPCTL_EPENA)
 8005348:	f8dc 2b00 	ldr.w	r2, [ip, #2816]	@ 0xb00
 800534c:	2a00      	cmp	r2, #0
 800534e:	db19      	blt.n	8005384 <USB_DeactivateEndpoint+0x48>
    USBx_DEVICE->DEACHMSK &= ~(USB_OTG_DAINTMSK_OEPM & ((uint32_t)(1UL << (ep->num & EP_ADDR_MSK)) << 16));
 8005350:	f44f 3280 	mov.w	r2, #65536	@ 0x10000
 8005354:	f003 030f 	and.w	r3, r3, #15
 8005358:	f8d0 183c 	ldr.w	r1, [r0, #2108]	@ 0x83c
 800535c:	fa02 f303 	lsl.w	r3, r2, r3
    USBx_OUTEP(epnum)->DOEPCTL &= ~(USB_OTG_DOEPCTL_USBAEP |
 8005360:	4a23      	ldr	r2, [pc, #140]	@ (80053f0 <USB_DeactivateEndpoint+0xb4>)
    USBx_DEVICE->DEACHMSK &= ~(USB_OTG_DAINTMSK_OEPM & ((uint32_t)(1UL << (ep->num & EP_ADDR_MSK)) << 16));
 8005362:	ea21 0103 	bic.w	r1, r1, r3
 8005366:	f8c0 183c 	str.w	r1, [r0, #2108]	@ 0x83c
    USBx_DEVICE->DAINTMSK &= ~(USB_OTG_DAINTMSK_OEPM & ((uint32_t)(1UL << (ep->num & EP_ADDR_MSK)) << 16));
 800536a:	f8d0 181c 	ldr.w	r1, [r0, #2076]	@ 0x81c
 800536e:	ea21 0303 	bic.w	r3, r1, r3
 8005372:	f8c0 381c 	str.w	r3, [r0, #2076]	@ 0x81c
}
 8005376:	2000      	movs	r0, #0
    USBx_OUTEP(epnum)->DOEPCTL &= ~(USB_OTG_DOEPCTL_USBAEP |
 8005378:	f8dc 3b00 	ldr.w	r3, [ip, #2816]	@ 0xb00
 800537c:	401a      	ands	r2, r3
 800537e:	f8cc 2b00 	str.w	r2, [ip, #2816]	@ 0xb00
}
 8005382:	4770      	bx	lr
      USBx_OUTEP(epnum)->DOEPCTL |= USB_OTG_DOEPCTL_SNAK;
 8005384:	f8dc 2b00 	ldr.w	r2, [ip, #2816]	@ 0xb00
 8005388:	f042 6200 	orr.w	r2, r2, #134217728	@ 0x8000000
 800538c:	f8cc 2b00 	str.w	r2, [ip, #2816]	@ 0xb00
      USBx_OUTEP(epnum)->DOEPCTL |= USB_OTG_DOEPCTL_EPDIS;
 8005390:	f8dc 2b00 	ldr.w	r2, [ip, #2816]	@ 0xb00
 8005394:	f042 4280 	orr.w	r2, r2, #1073741824	@ 0x40000000
 8005398:	f8cc 2b00 	str.w	r2, [ip, #2816]	@ 0xb00
 800539c:	e7d8      	b.n	8005350 <USB_DeactivateEndpoint+0x14>
    if ((USBx_INEP(epnum)->DIEPCTL & USB_OTG_DIEPCTL_EPENA) == USB_OTG_DIEPCTL_EPENA)
 800539e:	f8dc 2900 	ldr.w	r2, [ip, #2304]	@ 0x900
 80053a2:	2a00      	cmp	r2, #0
 80053a4:	da0b      	bge.n	80053be <USB_DeactivateEndpoint+0x82>
      USBx_INEP(epnum)->DIEPCTL |= USB_OTG_DIEPCTL_SNAK;
 80053a6:	f8dc 2900 	ldr.w	r2, [ip, #2304]	@ 0x900
 80053aa:	f042 6200 	orr.w	r2, r2, #134217728	@ 0x8000000
 80053ae:	f8cc 2900 	str.w	r2, [ip, #2304]	@ 0x900
      USBx_INEP(epnum)->DIEPCTL |= USB_OTG_DIEPCTL_EPDIS;
 80053b2:	f8dc 2900 	ldr.w	r2, [ip, #2304]	@ 0x900
 80053b6:	f042 4280 	orr.w	r2, r2, #1073741824	@ 0x40000000
 80053ba:	f8cc 2900 	str.w	r2, [ip, #2304]	@ 0x900
    USBx_DEVICE->DEACHMSK &= ~(USB_OTG_DAINTMSK_IEPM & (uint32_t)(1UL << (ep->num & EP_ADDR_MSK)));
 80053be:	f003 020f 	and.w	r2, r3, #15
 80053c2:	2301      	movs	r3, #1
 80053c4:	f8d0 183c 	ldr.w	r1, [r0, #2108]	@ 0x83c
 80053c8:	4093      	lsls	r3, r2
    USBx_INEP(epnum)->DIEPCTL &= ~(USB_OTG_DIEPCTL_USBAEP |
 80053ca:	4a0a      	ldr	r2, [pc, #40]	@ (80053f4 <USB_DeactivateEndpoint+0xb8>)
    USBx_DEVICE->DEACHMSK &= ~(USB_OTG_DAINTMSK_IEPM & (uint32_t)(1UL << (ep->num & EP_ADDR_MSK)));
 80053cc:	ea21 0103 	bic.w	r1, r1, r3
 80053d0:	f8c0 183c 	str.w	r1, [r0, #2108]	@ 0x83c
    USBx_DEVICE->DAINTMSK &= ~(USB_OTG_DAINTMSK_IEPM & (uint32_t)(1UL << (ep->num & EP_ADDR_MSK)));
 80053d4:	f8d0 181c 	ldr.w	r1, [r0, #2076]	@ 0x81c
 80053d8:	ea21 0303 	bic.w	r3, r1, r3
 80053dc:	f8c0 381c 	str.w	r3, [r0, #2076]	@ 0x81c
}
 80053e0:	2000      	movs	r0, #0
    USBx_INEP(epnum)->DIEPCTL &= ~(USB_OTG_DIEPCTL_USBAEP |
 80053e2:	f8dc 3900 	ldr.w	r3, [ip, #2304]	@ 0x900
 80053e6:	401a      	ands	r2, r3
 80053e8:	f8cc 2900 	str.w	r2, [ip, #2304]	@ 0x900
}
 80053ec:	4770      	bx	lr
 80053ee:	bf00      	nop
 80053f0:	eff37800 	.word	0xeff37800
 80053f4:	ec337800 	.word	0xec337800

080053f8 <USB_EPStartXfer>:
{
 80053f8:	e92d 41f0 	stmdb	sp!, {r4, r5, r6, r7, r8, lr}
  if (ep->is_in == 1U)
 80053fc:	784c      	ldrb	r4, [r1, #1]
  uint32_t epnum = (uint32_t)ep->num;
 80053fe:	780e      	ldrb	r6, [r1, #0]
  if (ep->is_in == 1U)
 8005400:	2c01      	cmp	r4, #1
    if (ep->xfer_len == 0U)
 8005402:	690d      	ldr	r5, [r1, #16]
      USBx_INEP(epnum)->DIEPTSIZ &= ~(USB_OTG_DIEPTSIZ_PKTCNT);
 8005404:	eb00 1346 	add.w	r3, r0, r6, lsl #5
        if (ep->type == EP_TYPE_ISOC)
 8005408:	f891 e004 	ldrb.w	lr, [r1, #4]
  if (ep->is_in == 1U)
 800540c:	d05f      	beq.n	80054ce <USB_EPStartXfer+0xd6>
    USBx_OUTEP(epnum)->DOEPTSIZ &= ~(USB_OTG_DOEPTSIZ_XFRSIZ);
 800540e:	f8d3 7b10 	ldr.w	r7, [r3, #2832]	@ 0xb10
 8005412:	f503 6c30 	add.w	ip, r3, #2816	@ 0xb00
 8005416:	4c88      	ldr	r4, [pc, #544]	@ (8005638 <USB_EPStartXfer+0x240>)
 8005418:	403c      	ands	r4, r7
 800541a:	f8c3 4b10 	str.w	r4, [r3, #2832]	@ 0xb10
    USBx_OUTEP(epnum)->DOEPTSIZ &= ~(USB_OTG_DOEPTSIZ_PKTCNT);
 800541e:	4c87      	ldr	r4, [pc, #540]	@ (800563c <USB_EPStartXfer+0x244>)
 8005420:	f8d3 7b10 	ldr.w	r7, [r3, #2832]	@ 0xb10
 8005424:	403c      	ands	r4, r7
 8005426:	f8c3 4b10 	str.w	r4, [r3, #2832]	@ 0xb10
        ep->xfer_len = ep->maxpacket;
 800542a:	688c      	ldr	r4, [r1, #8]
    if (epnum == 0U)
 800542c:	bb5e      	cbnz	r6, 8005486 <USB_EPStartXfer+0x8e>
      if (ep->xfer_len > 0U)
 800542e:	b105      	cbz	r5, 8005432 <USB_EPStartXfer+0x3a>
        ep->xfer_len = ep->maxpacket;
 8005430:	610c      	str	r4, [r1, #16]
      ep->xfer_size = ep->maxpacket;
 8005432:	620c      	str	r4, [r1, #32]
        USBx_OUTEP(epnum)->DOEPTSIZ |= (USB_OTG_DOEPTSIZ_XFRSIZ & ep->maxpacket);
 8005434:	f8dc 5010 	ldr.w	r5, [ip, #16]
 8005438:	f3c4 0412 	ubfx	r4, r4, #0, #19
    if (dma == 1U)
 800543c:	2a01      	cmp	r2, #1
        USBx_OUTEP(epnum)->DOEPTSIZ |= (USB_OTG_DOEPTSIZ_XFRSIZ & ep->maxpacket);
 800543e:	ea44 0405 	orr.w	r4, r4, r5
 8005442:	f8cc 4010 	str.w	r4, [ip, #16]
        USBx_OUTEP(epnum)->DOEPTSIZ |= (USB_OTG_DOEPTSIZ_PKTCNT & (1U << 19));
 8005446:	f8dc 4010 	ldr.w	r4, [ip, #16]
 800544a:	f444 2400 	orr.w	r4, r4, #524288	@ 0x80000
 800544e:	f8cc 4010 	str.w	r4, [ip, #16]
    if (dma == 1U)
 8005452:	d036      	beq.n	80054c2 <USB_EPStartXfer+0xca>
    if (ep->type == EP_TYPE_ISOC)
 8005454:	f1be 0f01 	cmp.w	lr, #1
 8005458:	d10c      	bne.n	8005474 <USB_EPStartXfer+0x7c>
      if ((USBx_DEVICE->DSTS & (1U << 8)) == 0U)
 800545a:	f8d0 2808 	ldr.w	r2, [r0, #2056]	@ 0x808
 800545e:	f412 7f80 	tst.w	r2, #256	@ 0x100
        USBx_OUTEP(epnum)->DOEPCTL |= USB_OTG_DOEPCTL_SODDFRM;
 8005462:	f8d3 2b00 	ldr.w	r2, [r3, #2816]	@ 0xb00
 8005466:	bf0c      	ite	eq
 8005468:	f042 5200 	orreq.w	r2, r2, #536870912	@ 0x20000000
        USBx_OUTEP(epnum)->DOEPCTL |= USB_OTG_DOEPCTL_SD0PID_SEVNFRM;
 800546c:	f042 5280 	orrne.w	r2, r2, #268435456	@ 0x10000000
 8005470:	f8c3 2b00 	str.w	r2, [r3, #2816]	@ 0xb00
    USBx_OUTEP(epnum)->DOEPCTL |= (USB_OTG_DOEPCTL_CNAK | USB_OTG_DOEPCTL_EPENA);
 8005474:	f8d3 2b00 	ldr.w	r2, [r3, #2816]	@ 0xb00
 8005478:	f042 4204 	orr.w	r2, r2, #2214592512	@ 0x84000000
 800547c:	f8c3 2b00 	str.w	r2, [r3, #2816]	@ 0xb00
}
 8005480:	2000      	movs	r0, #0
 8005482:	e8bd 81f0 	ldmia.w	sp!, {r4, r5, r6, r7, r8, pc}
      if (ep->xfer_len == 0U)
 8005486:	2d00      	cmp	r5, #0
 8005488:	d0d4      	beq.n	8005434 <USB_EPStartXfer+0x3c>
        pktcnt = (uint16_t)((ep->xfer_len + ep->maxpacket - 1U) / ep->maxpacket);
 800548a:	4425      	add	r5, r4
        USBx_OUTEP(epnum)->DOEPTSIZ |= USB_OTG_DOEPTSIZ_PKTCNT & ((uint32_t)pktcnt << 19);
 800548c:	4e6c      	ldr	r6, [pc, #432]	@ (8005640 <USB_EPStartXfer+0x248>)
    if (dma == 1U)
 800548e:	2a01      	cmp	r2, #1
        pktcnt = (uint16_t)((ep->xfer_len + ep->maxpacket - 1U) / ep->maxpacket);
 8005490:	f105 35ff 	add.w	r5, r5, #4294967295
 8005494:	fbb5 f5f4 	udiv	r5, r5, r4
 8005498:	b2ad      	uxth	r5, r5
        ep->xfer_size = ep->maxpacket * pktcnt;
 800549a:	fb05 f404 	mul.w	r4, r5, r4
        USBx_OUTEP(epnum)->DOEPTSIZ |= USB_OTG_DOEPTSIZ_PKTCNT & ((uint32_t)pktcnt << 19);
 800549e:	ea06 45c5 	and.w	r5, r6, r5, lsl #19
 80054a2:	f8dc 6010 	ldr.w	r6, [ip, #16]
        ep->xfer_size = ep->maxpacket * pktcnt;
 80054a6:	620c      	str	r4, [r1, #32]
        USBx_OUTEP(epnum)->DOEPTSIZ |= USB_OTG_DOEPTSIZ_XFRSIZ & ep->xfer_size;
 80054a8:	f3c4 0412 	ubfx	r4, r4, #0, #19
        USBx_OUTEP(epnum)->DOEPTSIZ |= USB_OTG_DOEPTSIZ_PKTCNT & ((uint32_t)pktcnt << 19);
 80054ac:	ea45 0506 	orr.w	r5, r5, r6
 80054b0:	f8cc 5010 	str.w	r5, [ip, #16]
        USBx_OUTEP(epnum)->DOEPTSIZ |= USB_OTG_DOEPTSIZ_XFRSIZ & ep->xfer_size;
 80054b4:	f8dc 5010 	ldr.w	r5, [ip, #16]
 80054b8:	ea44 0405 	orr.w	r4, r4, r5
 80054bc:	f8cc 4010 	str.w	r4, [ip, #16]
    if (dma == 1U)
 80054c0:	d1c8      	bne.n	8005454 <USB_EPStartXfer+0x5c>
      if ((uint32_t)ep->xfer_buff != 0U)
 80054c2:	68ca      	ldr	r2, [r1, #12]
 80054c4:	2a00      	cmp	r2, #0
 80054c6:	d0c5      	beq.n	8005454 <USB_EPStartXfer+0x5c>
        USBx_OUTEP(epnum)->DOEPDMA = (uint32_t)(ep->xfer_buff);
 80054c8:	f8cc 2014 	str.w	r2, [ip, #20]
 80054cc:	e7c2      	b.n	8005454 <USB_EPStartXfer+0x5c>
      USBx_INEP(epnum)->DIEPTSIZ &= ~(USB_OTG_DIEPTSIZ_PKTCNT);
 80054ce:	f503 6410 	add.w	r4, r3, #2304	@ 0x900
 80054d2:	f8d4 c010 	ldr.w	ip, [r4, #16]
    if (ep->xfer_len == 0U)
 80054d6:	2d00      	cmp	r5, #0
 80054d8:	d138      	bne.n	800554c <USB_EPStartXfer+0x154>
      USBx_INEP(epnum)->DIEPTSIZ &= ~(USB_OTG_DIEPTSIZ_PKTCNT);
 80054da:	4f58      	ldr	r7, [pc, #352]	@ (800563c <USB_EPStartXfer+0x244>)
    if (dma == 1U)
 80054dc:	2a01      	cmp	r2, #1
      USBx_INEP(epnum)->DIEPTSIZ &= ~(USB_OTG_DIEPTSIZ_PKTCNT);
 80054de:	ea0c 0707 	and.w	r7, ip, r7
 80054e2:	6127      	str	r7, [r4, #16]
      USBx_INEP(epnum)->DIEPTSIZ |= (USB_OTG_DIEPTSIZ_PKTCNT & (1U << 19));
 80054e4:	6927      	ldr	r7, [r4, #16]
 80054e6:	f447 2700 	orr.w	r7, r7, #524288	@ 0x80000
 80054ea:	6127      	str	r7, [r4, #16]
      USBx_INEP(epnum)->DIEPTSIZ &= ~(USB_OTG_DIEPTSIZ_XFRSIZ);
 80054ec:	4f52      	ldr	r7, [pc, #328]	@ (8005638 <USB_EPStartXfer+0x240>)
 80054ee:	f8d4 c010 	ldr.w	ip, [r4, #16]
 80054f2:	ea0c 0707 	and.w	r7, ip, r7
 80054f6:	6127      	str	r7, [r4, #16]
    if (dma == 1U)
 80054f8:	d05b      	beq.n	80055b2 <USB_EPStartXfer+0x1ba>
      USBx_INEP(epnum)->DIEPCTL |= (USB_OTG_DIEPCTL_CNAK | USB_OTG_DIEPCTL_EPENA);
 80054fa:	f8d3 4900 	ldr.w	r4, [r3, #2304]	@ 0x900
      if (ep->type != EP_TYPE_ISOC)
 80054fe:	f1be 0f01 	cmp.w	lr, #1
      USBx_INEP(epnum)->DIEPCTL |= (USB_OTG_DIEPCTL_CNAK | USB_OTG_DIEPCTL_EPENA);
 8005502:	f044 4404 	orr.w	r4, r4, #2214592512	@ 0x84000000
 8005506:	f8c3 4900 	str.w	r4, [r3, #2304]	@ 0x900
      if (ep->type != EP_TYPE_ISOC)
 800550a:	d1b9      	bne.n	8005480 <USB_EPStartXfer+0x88>
        if ((USBx_DEVICE->DSTS & (1U << 8)) == 0U)
 800550c:	f8d0 4808 	ldr.w	r4, [r0, #2056]	@ 0x808
 8005510:	f414 7f80 	tst.w	r4, #256	@ 0x100
          USBx_INEP(epnum)->DIEPCTL |= USB_OTG_DIEPCTL_SODDFRM;
 8005514:	f8d3 4900 	ldr.w	r4, [r3, #2304]	@ 0x900
 8005518:	bf0c      	ite	eq
 800551a:	f044 5400 	orreq.w	r4, r4, #536870912	@ 0x20000000
          USBx_INEP(epnum)->DIEPCTL |= USB_OTG_DIEPCTL_SD0PID_SEVNFRM;
 800551e:	f044 5480 	orrne.w	r4, r4, #268435456	@ 0x10000000
 8005522:	f8c3 4900 	str.w	r4, [r3, #2304]	@ 0x900
  if (dma == 0U)
 8005526:	2a00      	cmp	r2, #0
 8005528:	d1aa      	bne.n	8005480 <USB_EPStartXfer+0x88>
    count32b = ((uint32_t)len + 3U) / 4U;
 800552a:	b2ad      	uxth	r5, r5
 800552c:	3503      	adds	r5, #3
    for (i = 0U; i < count32b; i++)
 800552e:	08ad      	lsrs	r5, r5, #2
 8005530:	d0a6      	beq.n	8005480 <USB_EPStartXfer+0x88>
        (void)USB_WritePacket(USBx, ep->xfer_buff, ep->num, (uint16_t)ep->xfer_len, dma);
 8005532:	68cb      	ldr	r3, [r1, #12]
      USBx_DFIFO((uint32_t)ch_ep_num) = __UNALIGNED_UINT32_READ(pSrc);
 8005534:	eb00 3606 	add.w	r6, r0, r6, lsl #12
 8005538:	eb03 0185 	add.w	r1, r3, r5, lsl #2
 800553c:	f506 5680 	add.w	r6, r6, #4096	@ 0x1000
 8005540:	f853 2b04 	ldr.w	r2, [r3], #4
    for (i = 0U; i < count32b; i++)
 8005544:	4299      	cmp	r1, r3
      USBx_DFIFO((uint32_t)ch_ep_num) = __UNALIGNED_UINT32_READ(pSrc);
 8005546:	6032      	str	r2, [r6, #0]
    for (i = 0U; i < count32b; i++)
 8005548:	d1fa      	bne.n	8005540 <USB_EPStartXfer+0x148>
 800554a:	e799      	b.n	8005480 <USB_EPStartXfer+0x88>
      USBx_INEP(epnum)->DIEPTSIZ &= ~(USB_OTG_DIEPTSIZ_XFRSIZ);
 800554c:	4f3a      	ldr	r7, [pc, #232]	@ (8005638 <USB_EPStartXfer+0x240>)
 800554e:	ea0c 0707 	and.w	r7, ip, r7
 8005552:	6127      	str	r7, [r4, #16]
      USBx_INEP(epnum)->DIEPTSIZ &= ~(USB_OTG_DIEPTSIZ_PKTCNT);
 8005554:	4f39      	ldr	r7, [pc, #228]	@ (800563c <USB_EPStartXfer+0x244>)
 8005556:	f8d4 c010 	ldr.w	ip, [r4, #16]
 800555a:	ea0c 0707 	and.w	r7, ip, r7
        if (ep->xfer_len > ep->maxpacket)
 800555e:	f8d1 c008 	ldr.w	ip, [r1, #8]
      USBx_INEP(epnum)->DIEPTSIZ &= ~(USB_OTG_DIEPTSIZ_PKTCNT);
 8005562:	6127      	str	r7, [r4, #16]
      if (epnum == 0U)
 8005564:	2e00      	cmp	r6, #0
 8005566:	d140      	bne.n	80055ea <USB_EPStartXfer+0x1f2>
        if (ep->xfer_len > ep->maxpacket)
 8005568:	45ac      	cmp	ip, r5
 800556a:	d361      	bcc.n	8005630 <USB_EPStartXfer+0x238>
        USBx_INEP(epnum)->DIEPTSIZ |= (USB_OTG_DIEPTSIZ_PKTCNT & (1U << 19));
 800556c:	6927      	ldr	r7, [r4, #16]
 800556e:	f447 2700 	orr.w	r7, r7, #524288	@ 0x80000
 8005572:	6127      	str	r7, [r4, #16]
      USBx_INEP(epnum)->DIEPTSIZ |= (USB_OTG_DIEPTSIZ_XFRSIZ & ep->xfer_len);
 8005574:	f8d4 c010 	ldr.w	ip, [r4, #16]
 8005578:	f3c5 0712 	ubfx	r7, r5, #0, #19
    if (dma == 1U)
 800557c:	2a01      	cmp	r2, #1
      USBx_INEP(epnum)->DIEPTSIZ |= (USB_OTG_DIEPTSIZ_XFRSIZ & ep->xfer_len);
 800557e:	ea47 070c 	orr.w	r7, r7, ip
 8005582:	6127      	str	r7, [r4, #16]
    if (dma == 1U)
 8005584:	d015      	beq.n	80055b2 <USB_EPStartXfer+0x1ba>
      USBx_INEP(epnum)->DIEPCTL |= (USB_OTG_DIEPCTL_CNAK | USB_OTG_DIEPCTL_EPENA);
 8005586:	f8d3 4900 	ldr.w	r4, [r3, #2304]	@ 0x900
      if (ep->type != EP_TYPE_ISOC)
 800558a:	f1be 0f01 	cmp.w	lr, #1
      USBx_INEP(epnum)->DIEPCTL |= (USB_OTG_DIEPCTL_CNAK | USB_OTG_DIEPCTL_EPENA);
 800558e:	f044 4404 	orr.w	r4, r4, #2214592512	@ 0x84000000
 8005592:	f8c3 4900 	str.w	r4, [r3, #2304]	@ 0x900
      if (ep->type != EP_TYPE_ISOC)
 8005596:	d0b9      	beq.n	800550c <USB_EPStartXfer+0x114>
        if (ep->xfer_len > 0U)
 8005598:	2d00      	cmp	r5, #0
 800559a:	f43f af71 	beq.w	8005480 <USB_EPStartXfer+0x88>
          USBx_DEVICE->DIEPEMPMSK |= 1UL << (ep->num & EP_ADDR_MSK);
 800559e:	f006 060f 	and.w	r6, r6, #15
 80055a2:	2301      	movs	r3, #1
 80055a4:	f8d0 2834 	ldr.w	r2, [r0, #2100]	@ 0x834
 80055a8:	40b3      	lsls	r3, r6
 80055aa:	4313      	orrs	r3, r2
 80055ac:	f8c0 3834 	str.w	r3, [r0, #2100]	@ 0x834
 80055b0:	e766      	b.n	8005480 <USB_EPStartXfer+0x88>
      if ((uint32_t)ep->dma_addr != 0U)
 80055b2:	69ca      	ldr	r2, [r1, #28]
 80055b4:	b102      	cbz	r2, 80055b8 <USB_EPStartXfer+0x1c0>
        USBx_INEP(epnum)->DIEPDMA = (uint32_t)(ep->dma_addr);
 80055b6:	6162      	str	r2, [r4, #20]
      if (ep->type == EP_TYPE_ISOC)
 80055b8:	f1be 0f01 	cmp.w	lr, #1
 80055bc:	d10c      	bne.n	80055d8 <USB_EPStartXfer+0x1e0>
        if ((USBx_DEVICE->DSTS & (1U << 8)) == 0U)
 80055be:	f8d0 2808 	ldr.w	r2, [r0, #2056]	@ 0x808
 80055c2:	f412 7f80 	tst.w	r2, #256	@ 0x100
          USBx_INEP(epnum)->DIEPCTL |= USB_OTG_DIEPCTL_SODDFRM;
 80055c6:	f8d3 2900 	ldr.w	r2, [r3, #2304]	@ 0x900
 80055ca:	bf0c      	ite	eq
 80055cc:	f042 5200 	orreq.w	r2, r2, #536870912	@ 0x20000000
          USBx_INEP(epnum)->DIEPCTL |= USB_OTG_DIEPCTL_SD0PID_SEVNFRM;
 80055d0:	f042 5280 	orrne.w	r2, r2, #268435456	@ 0x10000000
 80055d4:	f8c3 2900 	str.w	r2, [r3, #2304]	@ 0x900
      USBx_INEP(epnum)->DIEPCTL |= (USB_OTG_DIEPCTL_CNAK | USB_OTG_DIEPCTL_EPENA);
 80055d8:	f8d3 2900 	ldr.w	r2, [r3, #2304]	@ 0x900
}
 80055dc:	2000      	movs	r0, #0
      USBx_INEP(epnum)->DIEPCTL |= (USB_OTG_DIEPCTL_CNAK | USB_OTG_DIEPCTL_EPENA);
 80055de:	f042 4204 	orr.w	r2, r2, #2214592512	@ 0x84000000
 80055e2:	f8c3 2900 	str.w	r2, [r3, #2304]	@ 0x900
}
 80055e6:	e8bd 81f0 	ldmia.w	sp!, {r4, r5, r6, r7, r8, pc}
        pktcnt = (uint16_t)((ep->xfer_len + ep->maxpacket - 1U) / ep->maxpacket);
 80055ea:	eb0c 0705 	add.w	r7, ip, r5
        USBx_INEP(epnum)->DIEPTSIZ |= (USB_OTG_DIEPTSIZ_PKTCNT & ((uint32_t)pktcnt << 19));
 80055ee:	f8d4 8010 	ldr.w	r8, [r4, #16]
        if (ep->type == EP_TYPE_ISOC)
 80055f2:	f1be 0f01 	cmp.w	lr, #1
        pktcnt = (uint16_t)((ep->xfer_len + ep->maxpacket - 1U) / ep->maxpacket);
 80055f6:	f107 37ff 	add.w	r7, r7, #4294967295
 80055fa:	fbb7 f7fc 	udiv	r7, r7, ip
        USBx_INEP(epnum)->DIEPTSIZ |= (USB_OTG_DIEPTSIZ_PKTCNT & ((uint32_t)pktcnt << 19));
 80055fe:	f8df c040 	ldr.w	ip, [pc, #64]	@ 8005640 <USB_EPStartXfer+0x248>
 8005602:	ea0c 4cc7 	and.w	ip, ip, r7, lsl #19
 8005606:	b2bf      	uxth	r7, r7
 8005608:	ea4c 0c08 	orr.w	ip, ip, r8
 800560c:	f8c4 c010 	str.w	ip, [r4, #16]
        if (ep->type == EP_TYPE_ISOC)
 8005610:	d1b0      	bne.n	8005574 <USB_EPStartXfer+0x17c>
          USBx_INEP(epnum)->DIEPTSIZ &= ~(USB_OTG_DIEPTSIZ_MULCNT);
 8005612:	f8d4 c010 	ldr.w	ip, [r4, #16]
          USBx_INEP(epnum)->DIEPTSIZ |= (USB_OTG_DIEPTSIZ_MULCNT & ((uint32_t)pktcnt << 29));
 8005616:	077f      	lsls	r7, r7, #29
          USBx_INEP(epnum)->DIEPTSIZ &= ~(USB_OTG_DIEPTSIZ_MULCNT);
 8005618:	f02c 4cc0 	bic.w	ip, ip, #1610612736	@ 0x60000000
          USBx_INEP(epnum)->DIEPTSIZ |= (USB_OTG_DIEPTSIZ_MULCNT & ((uint32_t)pktcnt << 29));
 800561c:	f007 47c0 	and.w	r7, r7, #1610612736	@ 0x60000000
          USBx_INEP(epnum)->DIEPTSIZ &= ~(USB_OTG_DIEPTSIZ_MULCNT);
 8005620:	f8c4 c010 	str.w	ip, [r4, #16]
          USBx_INEP(epnum)->DIEPTSIZ |= (USB_OTG_DIEPTSIZ_MULCNT & ((uint32_t)pktcnt << 29));
 8005624:	f8d4 c010 	ldr.w	ip, [r4, #16]
 8005628:	ea47 070c 	orr.w	r7, r7, ip
 800562c:	6127      	str	r7, [r4, #16]
 800562e:	e7a1      	b.n	8005574 <USB_EPStartXfer+0x17c>
          ep->xfer_len = ep->maxpacket;
 8005630:	4665      	mov	r5, ip
 8005632:	f8c1 c010 	str.w	ip, [r1, #16]
 8005636:	e799      	b.n	800556c <USB_EPStartXfer+0x174>
 8005638:	fff80000 	.word	0xfff80000
 800563c:	e007ffff 	.word	0xe007ffff
 8005640:	1ff80000 	.word	0x1ff80000

08005644 <USB_EPStopXfer>:
{
 8005644:	b410      	push	{r4}
  __IO uint32_t count = 0U;
 8005646:	2300      	movs	r3, #0
{
 8005648:	b083      	sub	sp, #12
  if (ep->is_in == 1U)
 800564a:	784a      	ldrb	r2, [r1, #1]
  __IO uint32_t count = 0U;
 800564c:	9301      	str	r3, [sp, #4]
  if (ep->is_in == 1U)
 800564e:	2a01      	cmp	r2, #1
    if (((USBx_INEP(ep->num)->DIEPCTL) & USB_OTG_DIEPCTL_EPENA) == USB_OTG_DIEPCTL_EPENA)
 8005650:	780b      	ldrb	r3, [r1, #0]
 8005652:	ea4f 1343 	mov.w	r3, r3, lsl #5
  if (ep->is_in == 1U)
 8005656:	d023      	beq.n	80056a0 <USB_EPStopXfer+0x5c>
    if (((USBx_OUTEP(ep->num)->DOEPCTL) & USB_OTG_DOEPCTL_EPENA) == USB_OTG_DOEPCTL_EPENA)
 8005658:	f500 6030 	add.w	r0, r0, #2816	@ 0xb00
 800565c:	58c1      	ldr	r1, [r0, r3]
 800565e:	18c2      	adds	r2, r0, r3
 8005660:	2900      	cmp	r1, #0
 8005662:	db04      	blt.n	800566e <USB_EPStopXfer+0x2a>
  HAL_StatusTypeDef ret = HAL_OK;
 8005664:	2000      	movs	r0, #0
}
 8005666:	b003      	add	sp, #12
 8005668:	f85d 4b04 	ldr.w	r4, [sp], #4
 800566c:	4770      	bx	lr
      USBx_OUTEP(ep->num)->DOEPCTL |= (USB_OTG_DOEPCTL_SNAK);
 800566e:	58c4      	ldr	r4, [r0, r3]
        if (count > 10000U)
 8005670:	f242 7110 	movw	r1, #10000	@ 0x2710
      USBx_OUTEP(ep->num)->DOEPCTL |= (USB_OTG_DOEPCTL_SNAK);
 8005674:	f044 6400 	orr.w	r4, r4, #134217728	@ 0x8000000
 8005678:	50c4      	str	r4, [r0, r3]
      USBx_OUTEP(ep->num)->DOEPCTL |= (USB_OTG_DOEPCTL_EPDIS);
 800567a:	58c4      	ldr	r4, [r0, r3]
 800567c:	f044 4480 	orr.w	r4, r4, #1073741824	@ 0x40000000
 8005680:	50c4      	str	r4, [r0, r3]
 8005682:	e002      	b.n	800568a <USB_EPStopXfer+0x46>
      } while (((USBx_OUTEP(ep->num)->DOEPCTL) & USB_OTG_DOEPCTL_EPENA) ==  USB_OTG_DOEPCTL_EPENA);
 8005684:	6813      	ldr	r3, [r2, #0]
 8005686:	2b00      	cmp	r3, #0
 8005688:	daec      	bge.n	8005664 <USB_EPStopXfer+0x20>
        count++;
 800568a:	9b01      	ldr	r3, [sp, #4]
 800568c:	3301      	adds	r3, #1
 800568e:	9301      	str	r3, [sp, #4]
        if (count > 10000U)
 8005690:	9b01      	ldr	r3, [sp, #4]
 8005692:	428b      	cmp	r3, r1
 8005694:	d9f6      	bls.n	8005684 <USB_EPStopXfer+0x40>
          ret = HAL_ERROR;
 8005696:	2001      	movs	r0, #1
}
 8005698:	b003      	add	sp, #12
 800569a:	f85d 4b04 	ldr.w	r4, [sp], #4
 800569e:	4770      	bx	lr
    if (((USBx_INEP(ep->num)->DIEPCTL) & USB_OTG_DIEPCTL_EPENA) == USB_OTG_DIEPCTL_EPENA)
 80056a0:	f500 6010 	add.w	r0, r0, #2304	@ 0x900
 80056a4:	58c1      	ldr	r1, [r0, r3]
 80056a6:	18c2      	adds	r2, r0, r3
 80056a8:	2900      	cmp	r1, #0
 80056aa:	dadb      	bge.n	8005664 <USB_EPStopXfer+0x20>
      USBx_INEP(ep->num)->DIEPCTL |= (USB_OTG_DIEPCTL_SNAK);
 80056ac:	58c4      	ldr	r4, [r0, r3]
        if (count > 10000U)
 80056ae:	f242 7110 	movw	r1, #10000	@ 0x2710
      USBx_INEP(ep->num)->DIEPCTL |= (USB_OTG_DIEPCTL_SNAK);
 80056b2:	f044 6400 	orr.w	r4, r4, #134217728	@ 0x8000000
 80056b6:	50c4      	str	r4, [r0, r3]
      USBx_INEP(ep->num)->DIEPCTL |= (USB_OTG_DIEPCTL_EPDIS);
 80056b8:	58c4      	ldr	r4, [r0, r3]
 80056ba:	f044 4480 	orr.w	r4, r4, #1073741824	@ 0x40000000
 80056be:	50c4      	str	r4, [r0, r3]
 80056c0:	e002      	b.n	80056c8 <USB_EPStopXfer+0x84>
      } while (((USBx_INEP(ep->num)->DIEPCTL) & USB_OTG_DIEPCTL_EPENA) ==  USB_OTG_DIEPCTL_EPENA);
 80056c2:	6813      	ldr	r3, [r2, #0]
 80056c4:	2b00      	cmp	r3, #0
 80056c6:	dacd      	bge.n	8005664 <USB_EPStopXfer+0x20>
        count++;
 80056c8:	9b01      	ldr	r3, [sp, #4]
 80056ca:	3301      	adds	r3, #1
 80056cc:	9301      	str	r3, [sp, #4]
        if (count > 10000U)
 80056ce:	9b01      	ldr	r3, [sp, #4]
 80056d0:	428b      	cmp	r3, r1
 80056d2:	d9f6      	bls.n	80056c2 <USB_EPStopXfer+0x7e>
 80056d4:	e7df      	b.n	8005696 <USB_EPStopXfer+0x52>
 80056d6:	bf00      	nop

080056d8 <USB_WritePacket>:
{
 80056d8:	b410      	push	{r4}
 80056da:	f89d 4004 	ldrb.w	r4, [sp, #4]
  if (dma == 0U)
 80056de:	b964      	cbnz	r4, 80056fa <USB_WritePacket+0x22>
    count32b = ((uint32_t)len + 3U) / 4U;
 80056e0:	3303      	adds	r3, #3
    for (i = 0U; i < count32b; i++)
 80056e2:	089b      	lsrs	r3, r3, #2
 80056e4:	d009      	beq.n	80056fa <USB_WritePacket+0x22>
      USBx_DFIFO((uint32_t)ch_ep_num) = __UNALIGNED_UINT32_READ(pSrc);
 80056e6:	3201      	adds	r2, #1
 80056e8:	eb01 0383 	add.w	r3, r1, r3, lsl #2
 80056ec:	eb00 3002 	add.w	r0, r0, r2, lsl #12
 80056f0:	f851 2b04 	ldr.w	r2, [r1], #4
    for (i = 0U; i < count32b; i++)
 80056f4:	428b      	cmp	r3, r1
      USBx_DFIFO((uint32_t)ch_ep_num) = __UNALIGNED_UINT32_READ(pSrc);
 80056f6:	6002      	str	r2, [r0, #0]
    for (i = 0U; i < count32b; i++)
 80056f8:	d1fa      	bne.n	80056f0 <USB_WritePacket+0x18>
}
 80056fa:	2000      	movs	r0, #0
 80056fc:	f85d 4b04 	ldr.w	r4, [sp], #4
 8005700:	4770      	bx	lr
 8005702:	bf00      	nop

08005704 <USB_ReadPacket>:
{
 8005704:	b570      	push	{r4, r5, r6, lr}
  for (i = 0U; i < count32b; i++)
 8005706:	ea5f 0e92 	movs.w	lr, r2, lsr #2
{
 800570a:	4605      	mov	r5, r0
  uint16_t remaining_bytes = len % 4U;
 800570c:	f002 0603 	and.w	r6, r2, #3
  for (i = 0U; i < count32b; i++)
 8005710:	d01a      	beq.n	8005748 <USB_ReadPacket+0x44>
    __UNALIGNED_UINT32_WRITE(&pData, USBx_DFIFO(0U));
 8005712:	f500 5480 	add.w	r4, r0, #4096	@ 0x1000
  uint8_t *pDest = dest;
 8005716:	468c      	mov	ip, r1
  for (i = 0U; i < count32b; i++)
 8005718:	2300      	movs	r3, #0
 800571a:	3301      	adds	r3, #1
    __UNALIGNED_UINT32_WRITE(pDest, USBx_DFIFO(0U));
 800571c:	6822      	ldr	r2, [r4, #0]
  for (i = 0U; i < count32b; i++)
 800571e:	459e      	cmp	lr, r3
    __UNALIGNED_UINT32_WRITE(pDest, USBx_DFIFO(0U));
 8005720:	f84c 2b04 	str.w	r2, [ip], #4
  for (i = 0U; i < count32b; i++)
 8005724:	d1f9      	bne.n	800571a <USB_ReadPacket+0x16>
    pDest++;
 8005726:	eb01 008e 	add.w	r0, r1, lr, lsl #2
  if (remaining_bytes != 0U)
 800572a:	b166      	cbz	r6, 8005746 <USB_ReadPacket+0x42>
    __UNALIGNED_UINT32_WRITE(&pData, USBx_DFIFO(0U));
 800572c:	f505 5580 	add.w	r5, r5, #4096	@ 0x1000
    } while (remaining_bytes != 0U);
 8005730:	2e01      	cmp	r6, #1
    __UNALIGNED_UINT32_WRITE(&pData, USBx_DFIFO(0U));
 8005732:	682b      	ldr	r3, [r5, #0]
      *(uint8_t *)pDest = (uint8_t)(pData >> (8U * (uint8_t)(i)));
 8005734:	7003      	strb	r3, [r0, #0]
    } while (remaining_bytes != 0U);
 8005736:	d005      	beq.n	8005744 <USB_ReadPacket+0x40>
      *(uint8_t *)pDest = (uint8_t)(pData >> (8U * (uint8_t)(i)));
 8005738:	0a1a      	lsrs	r2, r3, #8
    } while (remaining_bytes != 0U);
 800573a:	2e02      	cmp	r6, #2
      *(uint8_t *)pDest = (uint8_t)(pData >> (8U * (uint8_t)(i)));
 800573c:	7042      	strb	r2, [r0, #1]
    } while (remaining_bytes != 0U);
 800573e:	d001      	beq.n	8005744 <USB_ReadPacket+0x40>
      *(uint8_t *)pDest = (uint8_t)(pData >> (8U * (uint8_t)(i)));
 8005740:	0c1b      	lsrs	r3, r3, #16
 8005742:	7083      	strb	r3, [r0, #2]
      pDest++;
 8005744:	4430      	add	r0, r6
}
 8005746:	bd70      	pop	{r4, r5, r6, pc}
  uint8_t *pDest = dest;
 8005748:	4608      	mov	r0, r1
 800574a:	e7ee      	b.n	800572a <USB_ReadPacket+0x26>

0800574c <USB_EPSetStall>:
  uint32_t epnum = (uint32_t)ep->num;
 800574c:	780b      	ldrb	r3, [r1, #0]
  if (ep->is_in == 1U)
 800574e:	784a      	ldrb	r2, [r1, #1]
    if (((USBx_INEP(epnum)->DIEPCTL & USB_OTG_DIEPCTL_EPENA) == 0U) && (epnum != 0U))
 8005750:	eb00 1043 	add.w	r0, r0, r3, lsl #5
 8005754:	3b00      	subs	r3, #0
 8005756:	bf18      	it	ne
 8005758:	2301      	movne	r3, #1
  if (ep->is_in == 1U)
 800575a:	2a01      	cmp	r2, #1
 800575c:	d00c      	beq.n	8005778 <USB_EPSetStall+0x2c>
    if (((USBx_OUTEP(epnum)->DOEPCTL & USB_OTG_DOEPCTL_EPENA) == 0U) && (epnum != 0U))
 800575e:	f8d0 2b00 	ldr.w	r2, [r0, #2816]	@ 0xb00
 8005762:	2a00      	cmp	r2, #0
 8005764:	db00      	blt.n	8005768 <USB_EPSetStall+0x1c>
 8005766:	b9a3      	cbnz	r3, 8005792 <USB_EPSetStall+0x46>
    USBx_OUTEP(epnum)->DOEPCTL |= USB_OTG_DOEPCTL_STALL;
 8005768:	f8d0 3b00 	ldr.w	r3, [r0, #2816]	@ 0xb00
 800576c:	f443 1300 	orr.w	r3, r3, #2097152	@ 0x200000
 8005770:	f8c0 3b00 	str.w	r3, [r0, #2816]	@ 0xb00
}
 8005774:	2000      	movs	r0, #0
 8005776:	4770      	bx	lr
    if (((USBx_INEP(epnum)->DIEPCTL & USB_OTG_DIEPCTL_EPENA) == 0U) && (epnum != 0U))
 8005778:	f8d0 2900 	ldr.w	r2, [r0, #2304]	@ 0x900
 800577c:	2a00      	cmp	r2, #0
 800577e:	db00      	blt.n	8005782 <USB_EPSetStall+0x36>
 8005780:	b973      	cbnz	r3, 80057a0 <USB_EPSetStall+0x54>
    USBx_INEP(epnum)->DIEPCTL |= USB_OTG_DIEPCTL_STALL;
 8005782:	f8d0 3900 	ldr.w	r3, [r0, #2304]	@ 0x900
 8005786:	f443 1300 	orr.w	r3, r3, #2097152	@ 0x200000
 800578a:	f8c0 3900 	str.w	r3, [r0, #2304]	@ 0x900
}
 800578e:	2000      	movs	r0, #0
 8005790:	4770      	bx	lr
      USBx_OUTEP(epnum)->DOEPCTL &= ~(USB_OTG_DOEPCTL_EPDIS);
 8005792:	f8d0 3b00 	ldr.w	r3, [r0, #2816]	@ 0xb00
 8005796:	f023 4380 	bic.w	r3, r3, #1073741824	@ 0x40000000
 800579a:	f8c0 3b00 	str.w	r3, [r0, #2816]	@ 0xb00
 800579e:	e7e3      	b.n	8005768 <USB_EPSetStall+0x1c>
      USBx_INEP(epnum)->DIEPCTL &= ~(USB_OTG_DIEPCTL_EPDIS);
 80057a0:	f8d0 3900 	ldr.w	r3, [r0, #2304]	@ 0x900
 80057a4:	f023 4380 	bic.w	r3, r3, #1073741824	@ 0x40000000
 80057a8:	f8c0 3900 	str.w	r3, [r0, #2304]	@ 0x900
    USBx_INEP(epnum)->DIEPCTL |= USB_OTG_DIEPCTL_STALL;
 80057ac:	f8d0 3900 	ldr.w	r3, [r0, #2304]	@ 0x900
 80057b0:	f443 1300 	orr.w	r3, r3, #2097152	@ 0x200000
 80057b4:	f8c0 3900 	str.w	r3, [r0, #2304]	@ 0x900
 80057b8:	e7e9      	b.n	800578e <USB_EPSetStall+0x42>
 80057ba:	bf00      	nop

080057bc <USB_EPClearStall>:
    if ((ep->type == EP_TYPE_INTR) || (ep->type == EP_TYPE_BULK))
 80057bc:	790b      	ldrb	r3, [r1, #4]
  if (ep->is_in == 1U)
 80057be:	784a      	ldrb	r2, [r1, #1]
    USBx_INEP(epnum)->DIEPCTL &= ~USB_OTG_DIEPCTL_STALL;
 80057c0:	f891 c000 	ldrb.w	ip, [r1]
    if ((ep->type == EP_TYPE_INTR) || (ep->type == EP_TYPE_BULK))
 80057c4:	3b02      	subs	r3, #2
  if (ep->is_in == 1U)
 80057c6:	2a01      	cmp	r2, #1
    USBx_INEP(epnum)->DIEPCTL &= ~USB_OTG_DIEPCTL_STALL;
 80057c8:	eb00 104c 	add.w	r0, r0, ip, lsl #5
    if ((ep->type == EP_TYPE_INTR) || (ep->type == EP_TYPE_BULK))
 80057cc:	b2db      	uxtb	r3, r3
  if (ep->is_in == 1U)
 80057ce:	d011      	beq.n	80057f4 <USB_EPClearStall+0x38>
    USBx_OUTEP(epnum)->DOEPCTL &= ~USB_OTG_DOEPCTL_STALL;
 80057d0:	f8d0 2b00 	ldr.w	r2, [r0, #2816]	@ 0xb00
    if ((ep->type == EP_TYPE_INTR) || (ep->type == EP_TYPE_BULK))
 80057d4:	2b01      	cmp	r3, #1
    USBx_OUTEP(epnum)->DOEPCTL &= ~USB_OTG_DOEPCTL_STALL;
 80057d6:	f422 1200 	bic.w	r2, r2, #2097152	@ 0x200000
 80057da:	f8c0 2b00 	str.w	r2, [r0, #2816]	@ 0xb00
    if ((ep->type == EP_TYPE_INTR) || (ep->type == EP_TYPE_BULK))
 80057de:	d901      	bls.n	80057e4 <USB_EPClearStall+0x28>
}
 80057e0:	2000      	movs	r0, #0
 80057e2:	4770      	bx	lr
      USBx_OUTEP(epnum)->DOEPCTL |= USB_OTG_DOEPCTL_SD0PID_SEVNFRM; /* DATA0 */
 80057e4:	f8d0 3b00 	ldr.w	r3, [r0, #2816]	@ 0xb00
 80057e8:	f043 5380 	orr.w	r3, r3, #268435456	@ 0x10000000
 80057ec:	f8c0 3b00 	str.w	r3, [r0, #2816]	@ 0xb00
}
 80057f0:	2000      	movs	r0, #0
 80057f2:	4770      	bx	lr
    USBx_INEP(epnum)->DIEPCTL &= ~USB_OTG_DIEPCTL_STALL;
 80057f4:	f8d0 2900 	ldr.w	r2, [r0, #2304]	@ 0x900
    if ((ep->type == EP_TYPE_INTR) || (ep->type == EP_TYPE_BULK))
 80057f8:	2b01      	cmp	r3, #1
    USBx_INEP(epnum)->DIEPCTL &= ~USB_OTG_DIEPCTL_STALL;
 80057fa:	f422 1200 	bic.w	r2, r2, #2097152	@ 0x200000
 80057fe:	f8c0 2900 	str.w	r2, [r0, #2304]	@ 0x900
    if ((ep->type == EP_TYPE_INTR) || (ep->type == EP_TYPE_BULK))
 8005802:	d8ed      	bhi.n	80057e0 <USB_EPClearStall+0x24>
      USBx_INEP(epnum)->DIEPCTL |= USB_OTG_DIEPCTL_SD0PID_SEVNFRM; /* DATA0 */
 8005804:	f8d0 3900 	ldr.w	r3, [r0, #2304]	@ 0x900
 8005808:	f043 5380 	orr.w	r3, r3, #268435456	@ 0x10000000
 800580c:	f8c0 3900 	str.w	r3, [r0, #2304]	@ 0x900
}
 8005810:	2000      	movs	r0, #0
 8005812:	4770      	bx	lr

08005814 <USB_SetDevAddress>:
{
 8005814:	4603      	mov	r3, r0
  USBx_DEVICE->DCFG |= ((uint32_t)address << 4) & USB_OTG_DCFG_DAD;
 8005816:	0109      	lsls	r1, r1, #4
}
 8005818:	2000      	movs	r0, #0
  USBx_DEVICE->DCFG &= ~(USB_OTG_DCFG_DAD);
 800581a:	f8d3 2800 	ldr.w	r2, [r3, #2048]	@ 0x800
  USBx_DEVICE->DCFG |= ((uint32_t)address << 4) & USB_OTG_DCFG_DAD;
 800581e:	f401 61fe 	and.w	r1, r1, #2032	@ 0x7f0
  USBx_DEVICE->DCFG &= ~(USB_OTG_DCFG_DAD);
 8005822:	f422 62fe 	bic.w	r2, r2, #2032	@ 0x7f0
 8005826:	f8c3 2800 	str.w	r2, [r3, #2048]	@ 0x800
  USBx_DEVICE->DCFG |= ((uint32_t)address << 4) & USB_OTG_DCFG_DAD;
 800582a:	f8d3 2800 	ldr.w	r2, [r3, #2048]	@ 0x800
 800582e:	4311      	orrs	r1, r2
 8005830:	f8c3 1800 	str.w	r1, [r3, #2048]	@ 0x800
}
 8005834:	4770      	bx	lr
 8005836:	bf00      	nop

08005838 <USB_DevConnect>:
{
 8005838:	4603      	mov	r3, r0
}
 800583a:	2000      	movs	r0, #0
  USBx_PCGCCTL &= ~(USB_OTG_PCGCCTL_STOPCLK | USB_OTG_PCGCCTL_GATECLK);
 800583c:	f8d3 2e00 	ldr.w	r2, [r3, #3584]	@ 0xe00
  USBx_DEVICE->DCTL &= ~USB_OTG_DCTL_SDIS;
 8005840:	f503 6100 	add.w	r1, r3, #2048	@ 0x800
  USBx_PCGCCTL &= ~(USB_OTG_PCGCCTL_STOPCLK | USB_OTG_PCGCCTL_GATECLK);
 8005844:	f022 0203 	bic.w	r2, r2, #3
 8005848:	f8c3 2e00 	str.w	r2, [r3, #3584]	@ 0xe00
  USBx_DEVICE->DCTL &= ~USB_OTG_DCTL_SDIS;
 800584c:	f8d3 3804 	ldr.w	r3, [r3, #2052]	@ 0x804
 8005850:	f023 0302 	bic.w	r3, r3, #2
 8005854:	604b      	str	r3, [r1, #4]
}
 8005856:	4770      	bx	lr

08005858 <USB_DevDisconnect>:
{
 8005858:	4603      	mov	r3, r0
}
 800585a:	2000      	movs	r0, #0
  USBx_PCGCCTL &= ~(USB_OTG_PCGCCTL_STOPCLK | USB_OTG_PCGCCTL_GATECLK);
 800585c:	f8d3 2e00 	ldr.w	r2, [r3, #3584]	@ 0xe00
  USBx_DEVICE->DCTL |= USB_OTG_DCTL_SDIS;
 8005860:	f503 6100 	add.w	r1, r3, #2048	@ 0x800
  USBx_PCGCCTL &= ~(USB_OTG_PCGCCTL_STOPCLK | USB_OTG_PCGCCTL_GATECLK);
 8005864:	f022 0203 	bic.w	r2, r2, #3
 8005868:	f8c3 2e00 	str.w	r2, [r3, #3584]	@ 0xe00
  USBx_DEVICE->DCTL |= USB_OTG_DCTL_SDIS;
 800586c:	f8d3 3804 	ldr.w	r3, [r3, #2052]	@ 0x804
 8005870:	f043 0302 	orr.w	r3, r3, #2
 8005874:	604b      	str	r3, [r1, #4]
}
 8005876:	4770      	bx	lr

08005878 <USB_ReadInterrupts>:
  tmpreg = USBx->GINTSTS;
 8005878:	6942      	ldr	r2, [r0, #20]
  tmpreg &= USBx->GINTMSK;
 800587a:	6980      	ldr	r0, [r0, #24]
}
 800587c:	4010      	ands	r0, r2
 800587e:	4770      	bx	lr

08005880 <USB_ReadDevAllOutEpInterrupt>:
  tmpreg  = USBx_DEVICE->DAINT;
 8005880:	f8d0 3818 	ldr.w	r3, [r0, #2072]	@ 0x818
  tmpreg &= USBx_DEVICE->DAINTMSK;
 8005884:	f8d0 081c 	ldr.w	r0, [r0, #2076]	@ 0x81c
 8005888:	4018      	ands	r0, r3
}
 800588a:	0c00      	lsrs	r0, r0, #16
 800588c:	4770      	bx	lr
 800588e:	bf00      	nop

08005890 <USB_ReadDevAllInEpInterrupt>:
  tmpreg  = USBx_DEVICE->DAINT;
 8005890:	f8d0 3818 	ldr.w	r3, [r0, #2072]	@ 0x818
  tmpreg &= USBx_DEVICE->DAINTMSK;
 8005894:	f8d0 081c 	ldr.w	r0, [r0, #2076]	@ 0x81c
 8005898:	4018      	ands	r0, r3
}
 800589a:	b280      	uxth	r0, r0
 800589c:	4770      	bx	lr
 800589e:	bf00      	nop

080058a0 <USB_ReadDevOutEPInterrupt>:
  tmpreg  = USBx_OUTEP((uint32_t)epnum)->DOEPINT;
 80058a0:	eb00 1141 	add.w	r1, r0, r1, lsl #5
  tmpreg &= USBx_DEVICE->DOEPMSK;
 80058a4:	f500 6000 	add.w	r0, r0, #2048	@ 0x800
  tmpreg  = USBx_OUTEP((uint32_t)epnum)->DOEPINT;
 80058a8:	f8d1 2b08 	ldr.w	r2, [r1, #2824]	@ 0xb08
  tmpreg &= USBx_DEVICE->DOEPMSK;
 80058ac:	6940      	ldr	r0, [r0, #20]
}
 80058ae:	4010      	ands	r0, r2
 80058b0:	4770      	bx	lr
 80058b2:	bf00      	nop

080058b4 <USB_ReadDevInEPInterrupt>:
  msk = USBx_DEVICE->DIEPMSK;
 80058b4:	f8d0 2810 	ldr.w	r2, [r0, #2064]	@ 0x810
  emp = USBx_DEVICE->DIEPEMPMSK;
 80058b8:	f8d0 3834 	ldr.w	r3, [r0, #2100]	@ 0x834
  tmpreg = USBx_INEP((uint32_t)epnum)->DIEPINT & msk;
 80058bc:	eb00 1041 	add.w	r0, r0, r1, lsl #5
  msk |= ((emp >> (epnum & EP_ADDR_MSK)) & 0x1U) << 7;
 80058c0:	f001 010f 	and.w	r1, r1, #15
  tmpreg = USBx_INEP((uint32_t)epnum)->DIEPINT & msk;
 80058c4:	f8d0 0908 	ldr.w	r0, [r0, #2312]	@ 0x908
  msk |= ((emp >> (epnum & EP_ADDR_MSK)) & 0x1U) << 7;
 80058c8:	40cb      	lsrs	r3, r1
 80058ca:	01db      	lsls	r3, r3, #7
 80058cc:	b2db      	uxtb	r3, r3
 80058ce:	4313      	orrs	r3, r2
}
 80058d0:	4018      	ands	r0, r3
 80058d2:	4770      	bx	lr

080058d4 <USB_GetMode>:
  return ((USBx->GINTSTS) & 0x1U);
 80058d4:	6940      	ldr	r0, [r0, #20]
}
 80058d6:	f000 0001 	and.w	r0, r0, #1
 80058da:	4770      	bx	lr

080058dc <USB_ActivateSetup>:
{
 80058dc:	4603      	mov	r3, r0
  USBx_INEP(0U)->DIEPCTL &= ~USB_OTG_DIEPCTL_MPSIZ;
 80058de:	4a09      	ldr	r2, [pc, #36]	@ (8005904 <USB_ActivateSetup+0x28>)
}
 80058e0:	2000      	movs	r0, #0
  USBx_DEVICE->DCTL |= USB_OTG_DCTL_CGINAK;
 80058e2:	f503 6100 	add.w	r1, r3, #2048	@ 0x800
{
 80058e6:	b410      	push	{r4}
  USBx_INEP(0U)->DIEPCTL &= ~USB_OTG_DIEPCTL_MPSIZ;
 80058e8:	f8d3 4900 	ldr.w	r4, [r3, #2304]	@ 0x900
 80058ec:	4022      	ands	r2, r4
}
 80058ee:	f85d 4b04 	ldr.w	r4, [sp], #4
  USBx_INEP(0U)->DIEPCTL &= ~USB_OTG_DIEPCTL_MPSIZ;
 80058f2:	f8c3 2900 	str.w	r2, [r3, #2304]	@ 0x900
  USBx_DEVICE->DCTL |= USB_OTG_DCTL_CGINAK;
 80058f6:	f8d3 3804 	ldr.w	r3, [r3, #2052]	@ 0x804
 80058fa:	f443 7380 	orr.w	r3, r3, #256	@ 0x100
 80058fe:	604b      	str	r3, [r1, #4]
}
 8005900:	4770      	bx	lr
 8005902:	bf00      	nop
 8005904:	fffff800 	.word	0xfffff800

08005908 <USB_EP0_OutStart>:
{
 8005908:	b430      	push	{r4, r5}
  uint32_t gSNPSiD = *(__IO const uint32_t *)(&USBx->CID + 0x1U);
 800590a:	6c05      	ldr	r5, [r0, #64]	@ 0x40
    if ((USBx_OUTEP(0U)->DOEPCTL & USB_OTG_DOEPCTL_EPENA) == USB_OTG_DOEPCTL_EPENA)
 800590c:	f500 6330 	add.w	r3, r0, #2816	@ 0xb00
  if (gSNPSiD > USB_OTG_CORE_ID_300A)
 8005910:	4c10      	ldr	r4, [pc, #64]	@ (8005954 <USB_EP0_OutStart+0x4c>)
 8005912:	42a5      	cmp	r5, r4
 8005914:	d903      	bls.n	800591e <USB_EP0_OutStart+0x16>
    if ((USBx_OUTEP(0U)->DOEPCTL & USB_OTG_DOEPCTL_EPENA) == USB_OTG_DOEPCTL_EPENA)
 8005916:	f8d0 4b00 	ldr.w	r4, [r0, #2816]	@ 0xb00
 800591a:	2c00      	cmp	r4, #0
 800591c:	db16      	blt.n	800594c <USB_EP0_OutStart+0x44>
  USBx_OUTEP(0U)->DOEPTSIZ = 0U;
 800591e:	2400      	movs	r4, #0
  if (dma == 1U)
 8005920:	2901      	cmp	r1, #1
  USBx_OUTEP(0U)->DOEPTSIZ = 0U;
 8005922:	611c      	str	r4, [r3, #16]
  USBx_OUTEP(0U)->DOEPTSIZ |= (USB_OTG_DOEPTSIZ_PKTCNT & (1U << 19));
 8005924:	691c      	ldr	r4, [r3, #16]
 8005926:	f444 2400 	orr.w	r4, r4, #524288	@ 0x80000
 800592a:	611c      	str	r4, [r3, #16]
  USBx_OUTEP(0U)->DOEPTSIZ |= (3U * 8U);
 800592c:	691c      	ldr	r4, [r3, #16]
 800592e:	f044 0418 	orr.w	r4, r4, #24
 8005932:	611c      	str	r4, [r3, #16]
  USBx_OUTEP(0U)->DOEPTSIZ |=  USB_OTG_DOEPTSIZ_STUPCNT;
 8005934:	691c      	ldr	r4, [r3, #16]
 8005936:	f044 44c0 	orr.w	r4, r4, #1610612736	@ 0x60000000
 800593a:	611c      	str	r4, [r3, #16]
  if (dma == 1U)
 800593c:	d106      	bne.n	800594c <USB_EP0_OutStart+0x44>
    USBx_OUTEP(0U)->DOEPDMA = (uint32_t)psetup;
 800593e:	615a      	str	r2, [r3, #20]
    USBx_OUTEP(0U)->DOEPCTL |= USB_OTG_DOEPCTL_EPENA | USB_OTG_DOEPCTL_USBAEP;
 8005940:	f8d0 3b00 	ldr.w	r3, [r0, #2816]	@ 0xb00
 8005944:	f043 2380 	orr.w	r3, r3, #2147516416	@ 0x80008000
 8005948:	f8c0 3b00 	str.w	r3, [r0, #2816]	@ 0xb00
}
 800594c:	2000      	movs	r0, #0
 800594e:	bc30      	pop	{r4, r5}
 8005950:	4770      	bx	lr
 8005952:	bf00      	nop
 8005954:	4f54300a 	.word	0x4f54300a

08005958 <USBD_HID_DataIn>:
  * @param  pdev: device instance
  * @param  epnum: endpoint index
  * @retval status
  */
static uint8_t USBD_HID_DataIn(USBD_HandleTypeDef *pdev, uint8_t epnum)
{
 8005958:	4603      	mov	r3, r0
  UNUSED(epnum);
  /* Ensure that the FIFO is empty before a new transfer, this condition could
  be caused by  a new transfer before the end of the previous transfer */
  ((USBD_HID_HandleTypeDef *)pdev->pClassDataCmsit[pdev->classId])->state = USBD_HID_IDLE;
 800595a:	2100      	movs	r1, #0
 800595c:	f8d3 22d4 	ldr.w	r2, [r3, #724]	@ 0x2d4

  return (uint8_t)USBD_OK;
}
 8005960:	4608      	mov	r0, r1
  ((USBD_HID_HandleTypeDef *)pdev->pClassDataCmsit[pdev->classId])->state = USBD_HID_IDLE;
 8005962:	32b0      	adds	r2, #176	@ 0xb0
 8005964:	f853 3022 	ldr.w	r3, [r3, r2, lsl #2]
 8005968:	7319      	strb	r1, [r3, #12]
}
 800596a:	4770      	bx	lr

0800596c <USBD_HID_GetDeviceQualifierDesc>:
  *         return Device Qualifier descriptor
  * @param  length : pointer data length
  * @retval pointer to descriptor buffer
  */
static uint8_t *USBD_HID_GetDeviceQualifierDesc(uint16_t *length)
{
 800596c:	4603      	mov	r3, r0
  *length = (uint16_t)sizeof(USBD_HID_DeviceQualifierDesc);
 800596e:	220a      	movs	r2, #10

  return USBD_HID_DeviceQualifierDesc;
}
 8005970:	4801      	ldr	r0, [pc, #4]	@ (8005978 <USBD_HID_GetDeviceQualifierDesc+0xc>)
  *length = (uint16_t)sizeof(USBD_HID_DeviceQualifierDesc);
 8005972:	801a      	strh	r2, [r3, #0]
}
 8005974:	4770      	bx	lr
 8005976:	bf00      	nop
 8005978:	24000050 	.word	0x24000050

0800597c <USBD_HID_GetFSCfgDesc>:
{
 800597c:	b510      	push	{r4, lr}
  USBD_EpDescTypeDef *pEpDesc = USBD_GetEpDesc(USBD_HID_CfgDesc, HID_EPIN_ADDR);
 800597e:	2181      	movs	r1, #129	@ 0x81
{
 8005980:	4604      	mov	r4, r0
  USBD_EpDescTypeDef *pEpDesc = USBD_GetEpDesc(USBD_HID_CfgDesc, HID_EPIN_ADDR);
 8005982:	4805      	ldr	r0, [pc, #20]	@ (8005998 <USBD_HID_GetFSCfgDesc+0x1c>)
 8005984:	f000 faae 	bl	8005ee4 <USBD_GetEpDesc>
  if (pEpDesc != NULL)
 8005988:	b108      	cbz	r0, 800598e <USBD_HID_GetFSCfgDesc+0x12>
    pEpDesc->bInterval = HID_FS_BINTERVAL;
 800598a:	230a      	movs	r3, #10
 800598c:	7183      	strb	r3, [r0, #6]
  *length = (uint16_t)sizeof(USBD_HID_CfgDesc);
 800598e:	2322      	movs	r3, #34	@ 0x22
}
 8005990:	4801      	ldr	r0, [pc, #4]	@ (8005998 <USBD_HID_GetFSCfgDesc+0x1c>)
  *length = (uint16_t)sizeof(USBD_HID_CfgDesc);
 8005992:	8023      	strh	r3, [r4, #0]
}
 8005994:	bd10      	pop	{r4, pc}
 8005996:	bf00      	nop
 8005998:	24000068 	.word	0x24000068

0800599c <USBD_HID_GetHSCfgDesc>:
{
 800599c:	b510      	push	{r4, lr}
  USBD_EpDescTypeDef *pEpDesc = USBD_GetEpDesc(USBD_HID_CfgDesc, HID_EPIN_ADDR);
 800599e:	2181      	movs	r1, #129	@ 0x81
{
 80059a0:	4604      	mov	r4, r0
  USBD_EpDescTypeDef *pEpDesc = USBD_GetEpDesc(USBD_HID_CfgDesc, HID_EPIN_ADDR);
 80059a2:	4805      	ldr	r0, [pc, #20]	@ (80059b8 <USBD_HID_GetHSCfgDesc+0x1c>)
 80059a4:	f000 fa9e 	bl	8005ee4 <USBD_GetEpDesc>
  if (pEpDesc != NULL)
 80059a8:	b108      	cbz	r0, 80059ae <USBD_HID_GetHSCfgDesc+0x12>
    pEpDesc->bInterval = HID_HS_BINTERVAL;
 80059aa:	2307      	movs	r3, #7
 80059ac:	7183      	strb	r3, [r0, #6]
  *length = (uint16_t)sizeof(USBD_HID_CfgDesc);
 80059ae:	2322      	movs	r3, #34	@ 0x22
}
 80059b0:	4801      	ldr	r0, [pc, #4]	@ (80059b8 <USBD_HID_GetHSCfgDesc+0x1c>)
  *length = (uint16_t)sizeof(USBD_HID_CfgDesc);
 80059b2:	8023      	strh	r3, [r4, #0]
}
 80059b4:	bd10      	pop	{r4, pc}
 80059b6:	bf00      	nop
 80059b8:	24000068 	.word	0x24000068

080059bc <USBD_HID_Setup>:
{
 80059bc:	b510      	push	{r4, lr}
  uint16_t status_info = 0U;
 80059be:	2300      	movs	r3, #0
{
 80059c0:	b082      	sub	sp, #8
  uint16_t status_info = 0U;
 80059c2:	f8ad 3006 	strh.w	r3, [sp, #6]
  USBD_HID_HandleTypeDef *hhid = (USBD_HID_HandleTypeDef *)pdev->pClassDataCmsit[pdev->classId];
 80059c6:	f8d0 32d4 	ldr.w	r3, [r0, #724]	@ 0x2d4
 80059ca:	33b0      	adds	r3, #176	@ 0xb0
 80059cc:	f850 4023 	ldr.w	r4, [r0, r3, lsl #2]
  if (hhid == NULL)
 80059d0:	b13c      	cbz	r4, 80059e2 <USBD_HID_Setup+0x26>
  switch (req->bmRequest & USB_REQ_TYPE_MASK)
 80059d2:	780b      	ldrb	r3, [r1, #0]
 80059d4:	f013 0360 	ands.w	r3, r3, #96	@ 0x60
 80059d8:	d022      	beq.n	8005a20 <USBD_HID_Setup+0x64>
 80059da:	2b20      	cmp	r3, #32
 80059dc:	d004      	beq.n	80059e8 <USBD_HID_Setup+0x2c>
            USBD_CtlError(pdev, req);
 80059de:	f000 fd4d 	bl	800647c <USBD_CtlError>
    return (uint8_t)USBD_FAIL;
 80059e2:	2003      	movs	r0, #3
}
 80059e4:	b002      	add	sp, #8
 80059e6:	bd10      	pop	{r4, pc}
      switch (req->bRequest)
 80059e8:	784b      	ldrb	r3, [r1, #1]
 80059ea:	3b02      	subs	r3, #2
 80059ec:	2b09      	cmp	r3, #9
 80059ee:	d8f6      	bhi.n	80059de <USBD_HID_Setup+0x22>
 80059f0:	a201      	add	r2, pc, #4	@ (adr r2, 80059f8 <USBD_HID_Setup+0x3c>)
 80059f2:	f852 f023 	ldr.w	pc, [r2, r3, lsl #2]
 80059f6:	bf00      	nop
 80059f8:	08005a77 	.word	0x08005a77
 80059fc:	08005a6d 	.word	0x08005a6d
 8005a00:	080059df 	.word	0x080059df
 8005a04:	080059df 	.word	0x080059df
 8005a08:	080059df 	.word	0x080059df
 8005a0c:	080059df 	.word	0x080059df
 8005a10:	080059df 	.word	0x080059df
 8005a14:	080059df 	.word	0x080059df
 8005a18:	08005a65 	.word	0x08005a65
 8005a1c:	08005a5d 	.word	0x08005a5d
      switch (req->bRequest)
 8005a20:	784b      	ldrb	r3, [r1, #1]
 8005a22:	2b0b      	cmp	r3, #11
 8005a24:	d8db      	bhi.n	80059de <USBD_HID_Setup+0x22>
 8005a26:	a201      	add	r2, pc, #4	@ (adr r2, 8005a2c <USBD_HID_Setup+0x70>)
 8005a28:	f852 f023 	ldr.w	pc, [r2, r3, lsl #2]
 8005a2c:	08005aab 	.word	0x08005aab
 8005a30:	08005a61 	.word	0x08005a61
 8005a34:	080059df 	.word	0x080059df
 8005a38:	080059df 	.word	0x080059df
 8005a3c:	080059df 	.word	0x080059df
 8005a40:	080059df 	.word	0x080059df
 8005a44:	08005a8f 	.word	0x08005a8f
 8005a48:	080059df 	.word	0x080059df
 8005a4c:	080059df 	.word	0x080059df
 8005a50:	080059df 	.word	0x080059df
 8005a54:	08005abf 	.word	0x08005abf
 8005a58:	08005a81 	.word	0x08005a81
          hhid->Protocol = (uint8_t)(req->wValue);
 8005a5c:	788b      	ldrb	r3, [r1, #2]
 8005a5e:	6023      	str	r3, [r4, #0]
  USBD_StatusTypeDef ret = USBD_OK;
 8005a60:	2000      	movs	r0, #0
 8005a62:	e7bf      	b.n	80059e4 <USBD_HID_Setup+0x28>
          hhid->IdleState = (uint8_t)(req->wValue >> 8);
 8005a64:	884b      	ldrh	r3, [r1, #2]
 8005a66:	0a1b      	lsrs	r3, r3, #8
 8005a68:	6063      	str	r3, [r4, #4]
          break;
 8005a6a:	e7f9      	b.n	8005a60 <USBD_HID_Setup+0xa4>
          (void)USBD_CtlSendData(pdev, (uint8_t *)&hhid->Protocol, 1U);
 8005a6c:	2201      	movs	r2, #1
 8005a6e:	4621      	mov	r1, r4
 8005a70:	f000 fd3c 	bl	80064ec <USBD_CtlSendData>
          break;
 8005a74:	e7f4      	b.n	8005a60 <USBD_HID_Setup+0xa4>
          (void)USBD_CtlSendData(pdev, (uint8_t *)&hhid->IdleState, 1U);
 8005a76:	2201      	movs	r2, #1
 8005a78:	1d21      	adds	r1, r4, #4
 8005a7a:	f000 fd37 	bl	80064ec <USBD_CtlSendData>
          break;
 8005a7e:	e7ef      	b.n	8005a60 <USBD_HID_Setup+0xa4>
          if (pdev->dev_state == USBD_STATE_CONFIGURED)
 8005a80:	f890 329c 	ldrb.w	r3, [r0, #668]	@ 0x29c
 8005a84:	2b03      	cmp	r3, #3
 8005a86:	d1aa      	bne.n	80059de <USBD_HID_Setup+0x22>
            hhid->AltSetting = (uint8_t)(req->wValue);
 8005a88:	788b      	ldrb	r3, [r1, #2]
 8005a8a:	60a3      	str	r3, [r4, #8]
 8005a8c:	e7e8      	b.n	8005a60 <USBD_HID_Setup+0xa4>
          if ((req->wValue >> 8) == HID_REPORT_DESC)
 8005a8e:	884b      	ldrh	r3, [r1, #2]
 8005a90:	0a1b      	lsrs	r3, r3, #8
 8005a92:	2b22      	cmp	r3, #34	@ 0x22
 8005a94:	d01d      	beq.n	8005ad2 <USBD_HID_Setup+0x116>
          else if ((req->wValue >> 8) == HID_DESCRIPTOR_TYPE)
 8005a96:	2b21      	cmp	r3, #33	@ 0x21
 8005a98:	d1a1      	bne.n	80059de <USBD_HID_Setup+0x22>
            len = MIN(USB_HID_DESC_SIZ, req->wLength);
 8005a9a:	88ca      	ldrh	r2, [r1, #6]
            pbuf = USBD_HID_Desc;
 8005a9c:	4910      	ldr	r1, [pc, #64]	@ (8005ae0 <USBD_HID_Setup+0x124>)
            len = MIN(USB_HID_DESC_SIZ, req->wLength);
 8005a9e:	2a09      	cmp	r2, #9
 8005aa0:	bf28      	it	cs
 8005aa2:	2209      	movcs	r2, #9
          (void)USBD_CtlSendData(pdev, pbuf, len);
 8005aa4:	f000 fd22 	bl	80064ec <USBD_CtlSendData>
          break;
 8005aa8:	e7da      	b.n	8005a60 <USBD_HID_Setup+0xa4>
          if (pdev->dev_state == USBD_STATE_CONFIGURED)
 8005aaa:	f890 329c 	ldrb.w	r3, [r0, #668]	@ 0x29c
 8005aae:	2b03      	cmp	r3, #3
 8005ab0:	d195      	bne.n	80059de <USBD_HID_Setup+0x22>
            (void)USBD_CtlSendData(pdev, (uint8_t *)&status_info, 2U);
 8005ab2:	2202      	movs	r2, #2
 8005ab4:	f10d 0106 	add.w	r1, sp, #6
 8005ab8:	f000 fd18 	bl	80064ec <USBD_CtlSendData>
 8005abc:	e7d0      	b.n	8005a60 <USBD_HID_Setup+0xa4>
          if (pdev->dev_state == USBD_STATE_CONFIGURED)
 8005abe:	f890 329c 	ldrb.w	r3, [r0, #668]	@ 0x29c
 8005ac2:	2b03      	cmp	r3, #3
 8005ac4:	d18b      	bne.n	80059de <USBD_HID_Setup+0x22>
            (void)USBD_CtlSendData(pdev, (uint8_t *)&hhid->AltSetting, 1U);
 8005ac6:	2201      	movs	r2, #1
 8005ac8:	f104 0108 	add.w	r1, r4, #8
 8005acc:	f000 fd0e 	bl	80064ec <USBD_CtlSendData>
 8005ad0:	e7c6      	b.n	8005a60 <USBD_HID_Setup+0xa4>
            len = MIN(HID_MOUSE_REPORT_DESC_SIZE, req->wLength);
 8005ad2:	88ca      	ldrh	r2, [r1, #6]
            pbuf = HID_MOUSE_ReportDesc;
 8005ad4:	4903      	ldr	r1, [pc, #12]	@ (8005ae4 <USBD_HID_Setup+0x128>)
            len = MIN(HID_MOUSE_REPORT_DESC_SIZE, req->wLength);
 8005ad6:	2a3f      	cmp	r2, #63	@ 0x3f
 8005ad8:	bf28      	it	cs
 8005ada:	223f      	movcs	r2, #63	@ 0x3f
            pbuf = HID_MOUSE_ReportDesc;
 8005adc:	e7e2      	b.n	8005aa4 <USBD_HID_Setup+0xe8>
 8005ade:	bf00      	nop
 8005ae0:	2400005c 	.word	0x2400005c
 8005ae4:	24000010 	.word	0x24000010

08005ae8 <USBD_HID_DeInit>:
{
 8005ae8:	b538      	push	{r3, r4, r5, lr}
 8005aea:	4604      	mov	r4, r0
  (void)USBD_LL_CloseEP(pdev, HIDInEpAdd);
 8005aec:	2181      	movs	r1, #129	@ 0x81
 8005aee:	f000 ff9f 	bl	8006a30 <USBD_LL_CloseEP>
  pdev->ep_in[HIDInEpAdd & 0xFU].is_used = 0U;
 8005af2:	2500      	movs	r5, #0
  if (pdev->pClassDataCmsit[pdev->classId] != NULL)
 8005af4:	f8d4 32d4 	ldr.w	r3, [r4, #724]	@ 0x2d4
  pdev->ep_in[HIDInEpAdd & 0xFU].is_used = 0U;
 8005af8:	63a5      	str	r5, [r4, #56]	@ 0x38
  if (pdev->pClassDataCmsit[pdev->classId] != NULL)
 8005afa:	33b0      	adds	r3, #176	@ 0xb0
 8005afc:	f854 0023 	ldr.w	r0, [r4, r3, lsl #2]
 8005b00:	b130      	cbz	r0, 8005b10 <USBD_HID_DeInit+0x28>
    (void)USBD_free(pdev->pClassDataCmsit[pdev->classId]);
 8005b02:	f000 fff5 	bl	8006af0 <USBD_static_free>
    pdev->pClassDataCmsit[pdev->classId] = NULL;
 8005b06:	f8d4 32d4 	ldr.w	r3, [r4, #724]	@ 0x2d4
 8005b0a:	33b0      	adds	r3, #176	@ 0xb0
 8005b0c:	f844 5023 	str.w	r5, [r4, r3, lsl #2]
}
 8005b10:	2000      	movs	r0, #0
 8005b12:	bd38      	pop	{r3, r4, r5, pc}

08005b14 <USBD_HID_Init>:
{
 8005b14:	b538      	push	{r3, r4, r5, lr}
 8005b16:	4604      	mov	r4, r0
  hhid = (USBD_HID_HandleTypeDef *)USBD_malloc(sizeof(USBD_HID_HandleTypeDef));
 8005b18:	2010      	movs	r0, #16
 8005b1a:	f000 ffe5 	bl	8006ae8 <USBD_static_malloc>
  if (hhid == NULL)
 8005b1e:	4605      	mov	r5, r0
 8005b20:	b1c0      	cbz	r0, 8005b54 <USBD_HID_Init+0x40>
  pdev->pClassDataCmsit[pdev->classId] = (void *)hhid;
 8005b22:	f8d4 12d4 	ldr.w	r1, [r4, #724]	@ 0x2d4
  (void)USBD_LL_OpenEP(pdev, HIDInEpAdd, USBD_EP_TYPE_INTR, HID_EPIN_SIZE);
 8005b26:	2304      	movs	r3, #4
 8005b28:	2203      	movs	r2, #3
  pdev->pClassDataCmsit[pdev->classId] = (void *)hhid;
 8005b2a:	31b0      	adds	r1, #176	@ 0xb0
 8005b2c:	f844 0021 	str.w	r0, [r4, r1, lsl #2]
  if (pdev->dev_speed == USBD_SPEED_HIGH)
 8005b30:	7c21      	ldrb	r1, [r4, #16]
  pdev->pClassData = pdev->pClassDataCmsit[pdev->classId];
 8005b32:	f8c4 02bc 	str.w	r0, [r4, #700]	@ 0x2bc
  (void)USBD_LL_OpenEP(pdev, HIDInEpAdd, USBD_EP_TYPE_INTR, HID_EPIN_SIZE);
 8005b36:	4620      	mov	r0, r4
    pdev->ep_in[HIDInEpAdd & 0xFU].bInterval = HID_HS_BINTERVAL;
 8005b38:	2900      	cmp	r1, #0
 8005b3a:	bf14      	ite	ne
 8005b3c:	210a      	movne	r1, #10
 8005b3e:	2107      	moveq	r1, #7
 8005b40:	8761      	strh	r1, [r4, #58]	@ 0x3a
  (void)USBD_LL_OpenEP(pdev, HIDInEpAdd, USBD_EP_TYPE_INTR, HID_EPIN_SIZE);
 8005b42:	2181      	movs	r1, #129	@ 0x81
 8005b44:	f000 ff66 	bl	8006a14 <USBD_LL_OpenEP>
  hhid->state = USBD_HID_IDLE;
 8005b48:	2300      	movs	r3, #0
  pdev->ep_in[HIDInEpAdd & 0xFU].is_used = 1U;
 8005b4a:	2201      	movs	r2, #1
  return (uint8_t)USBD_OK;
 8005b4c:	4618      	mov	r0, r3
  pdev->ep_in[HIDInEpAdd & 0xFU].is_used = 1U;
 8005b4e:	8722      	strh	r2, [r4, #56]	@ 0x38
  hhid->state = USBD_HID_IDLE;
 8005b50:	732b      	strb	r3, [r5, #12]
}
 8005b52:	bd38      	pop	{r3, r4, r5, pc}
    pdev->pClassDataCmsit[pdev->classId] = NULL;
 8005b54:	f8d4 32d4 	ldr.w	r3, [r4, #724]	@ 0x2d4
    return (uint8_t)USBD_EMEM;
 8005b58:	2002      	movs	r0, #2
    pdev->pClassDataCmsit[pdev->classId] = NULL;
 8005b5a:	33b0      	adds	r3, #176	@ 0xb0
 8005b5c:	f844 5023 	str.w	r5, [r4, r3, lsl #2]
}
 8005b60:	bd38      	pop	{r3, r4, r5, pc}
 8005b62:	bf00      	nop

08005b64 <USBD_HID_GetOtherSpeedCfgDesc>:
static uint8_t *USBD_HID_GetOtherSpeedCfgDesc(uint16_t *length)
 8005b64:	b510      	push	{r4, lr}
 8005b66:	2181      	movs	r1, #129	@ 0x81
 8005b68:	4604      	mov	r4, r0
 8005b6a:	4805      	ldr	r0, [pc, #20]	@ (8005b80 <USBD_HID_GetOtherSpeedCfgDesc+0x1c>)
 8005b6c:	f000 f9ba 	bl	8005ee4 <USBD_GetEpDesc>
 8005b70:	b108      	cbz	r0, 8005b76 <USBD_HID_GetOtherSpeedCfgDesc+0x12>
 8005b72:	230a      	movs	r3, #10
 8005b74:	7183      	strb	r3, [r0, #6]
 8005b76:	2322      	movs	r3, #34	@ 0x22
 8005b78:	4801      	ldr	r0, [pc, #4]	@ (8005b80 <USBD_HID_GetOtherSpeedCfgDesc+0x1c>)
 8005b7a:	8023      	strh	r3, [r4, #0]
 8005b7c:	bd10      	pop	{r4, pc}
 8005b7e:	bf00      	nop
 8005b80:	24000068 	.word	0x24000068

08005b84 <USBD_Init>:
                             USBD_DescriptorsTypeDef *pdesc, uint8_t id)
{
  USBD_StatusTypeDef ret;

  /* Check whether the USB Host handle is valid */
  if (pdev == NULL)
 8005b84:	b178      	cbz	r0, 8005ba6 <USBD_Init+0x22>
    pdev->NumClasses = 0;
    pdev->classId = 0;
  }
#else
  /* Unlink previous class*/
  pdev->pClass[0] = NULL;
 8005b86:	2300      	movs	r3, #0
 8005b88:	f8c0 32b8 	str.w	r3, [r0, #696]	@ 0x2b8
  pdev->pUserData[0] = NULL;
 8005b8c:	f8c0 32c4 	str.w	r3, [r0, #708]	@ 0x2c4
#endif /* USE_USBD_COMPOSITE */

  pdev->pConfDesc = NULL;
 8005b90:	f8c0 32d0 	str.w	r3, [r0, #720]	@ 0x2d0

  /* Assign USBD Descriptors */
  if (pdesc != NULL)
 8005b94:	b109      	cbz	r1, 8005b9a <USBD_Init+0x16>
  {
    pdev->pDesc = pdesc;
 8005b96:	f8c0 12b4 	str.w	r1, [r0, #692]	@ 0x2b4
  }

  /* Set Device initial State */
  pdev->dev_state = USBD_STATE_DEFAULT;
 8005b9a:	2301      	movs	r3, #1
  pdev->id = id;
 8005b9c:	7002      	strb	r2, [r0, #0]
  pdev->dev_state = USBD_STATE_DEFAULT;
 8005b9e:	f880 329c 	strb.w	r3, [r0, #668]	@ 0x29c

  /* Initialize low level driver */
  ret = USBD_LL_Init(pdev);
 8005ba2:	f000 bef7 	b.w	8006994 <USBD_LL_Init>

  return ret;
}
 8005ba6:	2003      	movs	r0, #3
 8005ba8:	4770      	bx	lr
 8005baa:	bf00      	nop

08005bac <USBD_RegisterClass>:
  * @param  pdev: Device Handle
  * @param  pclass: Class handle
  * @retval USBD Status
  */
USBD_StatusTypeDef USBD_RegisterClass(USBD_HandleTypeDef *pdev, USBD_ClassTypeDef *pclass)
{
 8005bac:	b510      	push	{r4, lr}
  uint16_t len = 0U;
 8005bae:	2300      	movs	r3, #0
{
 8005bb0:	b082      	sub	sp, #8
  uint16_t len = 0U;
 8005bb2:	f8ad 3006 	strh.w	r3, [sp, #6]

  if (pclass == NULL)
 8005bb6:	b189      	cbz	r1, 8005bdc <USBD_RegisterClass+0x30>
  if (pdev->pClass[pdev->classId]->GetHSConfigDescriptor != NULL)
  {
    pdev->pConfDesc = (void *)pdev->pClass[pdev->classId]->GetHSConfigDescriptor(&len);
  }
#else /* Default USE_USB_FS */
  if (pdev->pClass[pdev->classId]->GetFSConfigDescriptor != NULL)
 8005bb8:	6acb      	ldr	r3, [r1, #44]	@ 0x2c
 8005bba:	4604      	mov	r4, r0
  pdev->pClass[0] = pclass;
 8005bbc:	f8c0 12b8 	str.w	r1, [r0, #696]	@ 0x2b8
  if (pdev->pClass[pdev->classId]->GetFSConfigDescriptor != NULL)
 8005bc0:	b123      	cbz	r3, 8005bcc <USBD_RegisterClass+0x20>
  {
    pdev->pConfDesc = (void *)pdev->pClass[pdev->classId]->GetFSConfigDescriptor(&len);
 8005bc2:	f10d 0006 	add.w	r0, sp, #6
 8005bc6:	4798      	blx	r3
 8005bc8:	f8c4 02d0 	str.w	r0, [r4, #720]	@ 0x2d0
  }
#endif /* USE_USB_FS */

  /* Increment the NumClasses */
  pdev->NumClasses++;
 8005bcc:	f8d4 32d8 	ldr.w	r3, [r4, #728]	@ 0x2d8

  return USBD_OK;
 8005bd0:	2000      	movs	r0, #0
  pdev->NumClasses++;
 8005bd2:	3301      	adds	r3, #1
 8005bd4:	f8c4 32d8 	str.w	r3, [r4, #728]	@ 0x2d8
}
 8005bd8:	b002      	add	sp, #8
 8005bda:	bd10      	pop	{r4, pc}
    return USBD_FAIL;
 8005bdc:	2003      	movs	r0, #3
}
 8005bde:	b002      	add	sp, #8
 8005be0:	bd10      	pop	{r4, pc}
 8005be2:	bf00      	nop

08005be4 <USBD_Start>:
#ifdef USE_USBD_COMPOSITE
  pdev->classId = 0U;
#endif /* USE_USBD_COMPOSITE */

  /* Start the low level driver  */
  return USBD_LL_Start(pdev);
 8005be4:	f000 bf0a 	b.w	80069fc <USBD_LL_Start>

08005be8 <USBD_SetClassConfig>:
        }
      }
    }
  }
#else
  if (pdev->pClass[0] != NULL)
 8005be8:	f8d0 32b8 	ldr.w	r3, [r0, #696]	@ 0x2b8
 8005bec:	b10b      	cbz	r3, 8005bf2 <USBD_SetClassConfig+0xa>
  {
    /* Set configuration and Start the Class */
    ret = (USBD_StatusTypeDef)pdev->pClass[0]->Init(pdev, cfgidx);
 8005bee:	681b      	ldr	r3, [r3, #0]
 8005bf0:	4718      	bx	r3
  }
#endif /* USE_USBD_COMPOSITE */

  return ret;
}
 8005bf2:	4618      	mov	r0, r3
 8005bf4:	4770      	bx	lr
 8005bf6:	bf00      	nop

08005bf8 <USBD_ClrClassConfig>:
  * @param  pdev: device instance
  * @param  cfgidx: configuration index
  * @retval status
  */
USBD_StatusTypeDef USBD_ClrClassConfig(USBD_HandleTypeDef *pdev, uint8_t cfgidx)
{
 8005bf8:	b508      	push	{r3, lr}
      }
    }
  }
#else
  /* Clear configuration  and De-initialize the Class process */
  if (pdev->pClass[0]->DeInit(pdev, cfgidx) != 0U)
 8005bfa:	f8d0 32b8 	ldr.w	r3, [r0, #696]	@ 0x2b8
 8005bfe:	685b      	ldr	r3, [r3, #4]
 8005c00:	4798      	blx	r3
  {
    ret = USBD_FAIL;
 8005c02:	2800      	cmp	r0, #0
  }
#endif /* USE_USBD_COMPOSITE */

  return ret;
}
 8005c04:	bf18      	it	ne
 8005c06:	2003      	movne	r0, #3
 8005c08:	bd08      	pop	{r3, pc}
 8005c0a:	bf00      	nop

08005c0c <USBD_LL_SetupStage>:
  * @param  pdev: device instance
  * @param  psetup: setup packet buffer pointer
  * @retval status
  */
USBD_StatusTypeDef USBD_LL_SetupStage(USBD_HandleTypeDef *pdev, uint8_t *psetup)
{
 8005c0c:	b538      	push	{r3, r4, r5, lr}
  USBD_StatusTypeDef ret;

  USBD_ParseSetupRequest(&pdev->request, psetup);
 8005c0e:	f200 25aa 	addw	r5, r0, #682	@ 0x2aa
{
 8005c12:	4604      	mov	r4, r0
  USBD_ParseSetupRequest(&pdev->request, psetup);
 8005c14:	4628      	mov	r0, r5
 8005c16:	f000 fc25 	bl	8006464 <USBD_ParseSetupRequest>

  pdev->ep0_state = USBD_EP0_SETUP;

  pdev->ep0_data_len = pdev->request.wLength;
 8005c1a:	f8b4 32b0 	ldrh.w	r3, [r4, #688]	@ 0x2b0

  switch (pdev->request.bmRequest & 0x1FU)
 8005c1e:	f894 12aa 	ldrb.w	r1, [r4, #682]	@ 0x2aa
  pdev->ep0_state = USBD_EP0_SETUP;
 8005c22:	2201      	movs	r2, #1
  pdev->ep0_data_len = pdev->request.wLength;
 8005c24:	f8c4 3298 	str.w	r3, [r4, #664]	@ 0x298
 8005c28:	f001 031f 	and.w	r3, r1, #31
  pdev->ep0_state = USBD_EP0_SETUP;
 8005c2c:	f8c4 2294 	str.w	r2, [r4, #660]	@ 0x294
  switch (pdev->request.bmRequest & 0x1FU)
 8005c30:	4293      	cmp	r3, r2
 8005c32:	d009      	beq.n	8005c48 <USBD_LL_SetupStage+0x3c>
 8005c34:	2b02      	cmp	r3, #2
 8005c36:	d013      	beq.n	8005c60 <USBD_LL_SetupStage+0x54>
 8005c38:	b163      	cbz	r3, 8005c54 <USBD_LL_SetupStage+0x48>
    case USB_REQ_RECIPIENT_ENDPOINT:
      ret = USBD_StdEPReq(pdev, &pdev->request);
      break;

    default:
      ret = USBD_LL_StallEP(pdev, (pdev->request.bmRequest & 0x80U));
 8005c3a:	4620      	mov	r0, r4
 8005c3c:	f001 0180 	and.w	r1, r1, #128	@ 0x80
      break;
  }

  return ret;
}
 8005c40:	e8bd 4038 	ldmia.w	sp!, {r3, r4, r5, lr}
      ret = USBD_LL_StallEP(pdev, (pdev->request.bmRequest & 0x80U));
 8005c44:	f000 bf00 	b.w	8006a48 <USBD_LL_StallEP>
      ret = USBD_StdItfReq(pdev, &pdev->request);
 8005c48:	4629      	mov	r1, r5
 8005c4a:	4620      	mov	r0, r4
}
 8005c4c:	e8bd 4038 	ldmia.w	sp!, {r3, r4, r5, lr}
      ret = USBD_StdItfReq(pdev, &pdev->request);
 8005c50:	f000 bb1c 	b.w	800628c <USBD_StdItfReq>
      ret = USBD_StdDevReq(pdev, &pdev->request);
 8005c54:	4629      	mov	r1, r5
 8005c56:	4620      	mov	r0, r4
}
 8005c58:	e8bd 4038 	ldmia.w	sp!, {r3, r4, r5, lr}
      ret = USBD_StdDevReq(pdev, &pdev->request);
 8005c5c:	f000 b958 	b.w	8005f10 <USBD_StdDevReq>
      ret = USBD_StdEPReq(pdev, &pdev->request);
 8005c60:	4629      	mov	r1, r5
 8005c62:	4620      	mov	r0, r4
}
 8005c64:	e8bd 4038 	ldmia.w	sp!, {r3, r4, r5, lr}
      ret = USBD_StdEPReq(pdev, &pdev->request);
 8005c68:	f000 bb4c 	b.w	8006304 <USBD_StdEPReq>

08005c6c <USBD_LL_DataOutStage>:
  * @param  pdata: data pointer
  * @retval status
  */
USBD_StatusTypeDef USBD_LL_DataOutStage(USBD_HandleTypeDef *pdev,
                                        uint8_t epnum, uint8_t *pdata)
{
 8005c6c:	b570      	push	{r4, r5, r6, lr}
 8005c6e:	4604      	mov	r4, r0
  USBD_EndpointTypeDef *pep;
  USBD_StatusTypeDef ret = USBD_OK;
  uint8_t idx;

  if (epnum == 0U)
 8005c70:	b931      	cbnz	r1, 8005c80 <USBD_LL_DataOutStage+0x14>
 8005c72:	460b      	mov	r3, r1
  {
    pep = &pdev->ep_out[0];

    if (pdev->ep0_state == USBD_EP0_DATA_OUT)
 8005c74:	f8d0 1294 	ldr.w	r1, [r0, #660]	@ 0x294
 8005c78:	2903      	cmp	r1, #3
 8005c7a:	d010      	beq.n	8005c9e <USBD_LL_DataOutStage+0x32>
      }
    }
  }

  return USBD_OK;
}
 8005c7c:	2000      	movs	r0, #0
 8005c7e:	bd70      	pop	{r4, r5, r6, pc}
      if (pdev->dev_state == USBD_STATE_CONFIGURED)
 8005c80:	f890 329c 	ldrb.w	r3, [r0, #668]	@ 0x29c
 8005c84:	2b03      	cmp	r3, #3
 8005c86:	d1f9      	bne.n	8005c7c <USBD_LL_DataOutStage+0x10>
        if (pdev->pClass[idx]->DataOut != NULL)
 8005c88:	f8d0 32b8 	ldr.w	r3, [r0, #696]	@ 0x2b8
 8005c8c:	699b      	ldr	r3, [r3, #24]
 8005c8e:	2b00      	cmp	r3, #0
 8005c90:	d0f4      	beq.n	8005c7c <USBD_LL_DataOutStage+0x10>
          pdev->classId = idx;
 8005c92:	2200      	movs	r2, #0
}
 8005c94:	e8bd 4070 	ldmia.w	sp!, {r4, r5, r6, lr}
          pdev->classId = idx;
 8005c98:	f8c0 22d4 	str.w	r2, [r0, #724]	@ 0x2d4
          ret = (USBD_StatusTypeDef)pdev->pClass[idx]->DataOut(pdev, epnum);
 8005c9c:	4718      	bx	r3
      if (pep->rem_length > pep->maxpacket)
 8005c9e:	e9d0 1557 	ldrd	r1, r5, [r0, #348]	@ 0x15c
 8005ca2:	42a9      	cmp	r1, r5
 8005ca4:	d808      	bhi.n	8005cb8 <USBD_LL_DataOutStage+0x4c>
          if (pdev->dev_state == USBD_STATE_CONFIGURED)
 8005ca6:	f890 229c 	ldrb.w	r2, [r0, #668]	@ 0x29c
 8005caa:	2a03      	cmp	r2, #3
 8005cac:	d00f      	beq.n	8005cce <USBD_LL_DataOutStage+0x62>
        (void)USBD_CtlSendStatus(pdev);
 8005cae:	4620      	mov	r0, r4
 8005cb0:	f000 fc3e 	bl	8006530 <USBD_CtlSendStatus>
}
 8005cb4:	2000      	movs	r0, #0
 8005cb6:	bd70      	pop	{r4, r5, r6, pc}
        pep->rem_length -= pep->maxpacket;
 8005cb8:	1b4b      	subs	r3, r1, r5
        (void)USBD_CtlContinueRx(pdev, pdata, MIN(pep->rem_length, pep->maxpacket));
 8005cba:	4611      	mov	r1, r2
 8005cbc:	462a      	mov	r2, r5
 8005cbe:	429d      	cmp	r5, r3
        pep->rem_length -= pep->maxpacket;
 8005cc0:	f8c0 315c 	str.w	r3, [r0, #348]	@ 0x15c
        (void)USBD_CtlContinueRx(pdev, pdata, MIN(pep->rem_length, pep->maxpacket));
 8005cc4:	bf28      	it	cs
 8005cc6:	461a      	movcs	r2, r3
 8005cc8:	f000 fc28 	bl	800651c <USBD_CtlContinueRx>
 8005ccc:	e7d6      	b.n	8005c7c <USBD_LL_DataOutStage+0x10>
            if (pdev->pClass[idx]->EP0_RxReady != NULL)
 8005cce:	f8d0 22b8 	ldr.w	r2, [r0, #696]	@ 0x2b8
 8005cd2:	6912      	ldr	r2, [r2, #16]
 8005cd4:	2a00      	cmp	r2, #0
 8005cd6:	d0ea      	beq.n	8005cae <USBD_LL_DataOutStage+0x42>
              pdev->classId = idx;
 8005cd8:	f8c0 32d4 	str.w	r3, [r0, #724]	@ 0x2d4
              pdev->pClass[idx]->EP0_RxReady(pdev);
 8005cdc:	4790      	blx	r2
 8005cde:	e7e6      	b.n	8005cae <USBD_LL_DataOutStage+0x42>

08005ce0 <USBD_LL_DataInStage>:
  * @param  pdata: data pointer
  * @retval status
  */
USBD_StatusTypeDef USBD_LL_DataInStage(USBD_HandleTypeDef *pdev,
                                       uint8_t epnum, uint8_t *pdata)
{
 8005ce0:	b570      	push	{r4, r5, r6, lr}
 8005ce2:	4604      	mov	r4, r0
  USBD_EndpointTypeDef *pep;
  USBD_StatusTypeDef ret;
  uint8_t idx;

  if (epnum == 0U)
 8005ce4:	b959      	cbnz	r1, 8005cfe <USBD_LL_DataInStage+0x1e>
  {
    pep = &pdev->ep_in[0];

    if (pdev->ep0_state == USBD_EP0_DATA_IN)
 8005ce6:	f8d0 3294 	ldr.w	r3, [r0, #660]	@ 0x294
 8005cea:	2b02      	cmp	r3, #2
 8005cec:	d016      	beq.n	8005d1c <USBD_LL_DataInStage+0x3c>
          (void)USBD_CtlReceiveStatus(pdev);
        }
      }
    }

    if (pdev->dev_test_mode != 0U)
 8005cee:	f894 32a0 	ldrb.w	r3, [r4, #672]	@ 0x2a0
 8005cf2:	b113      	cbz	r3, 8005cfa <USBD_LL_DataInStage+0x1a>
    {
      (void)USBD_RunTestMode(pdev);
      pdev->dev_test_mode = 0U;
 8005cf4:	2300      	movs	r3, #0
 8005cf6:	f884 32a0 	strb.w	r3, [r4, #672]	@ 0x2a0
      }
    }
  }

  return USBD_OK;
}
 8005cfa:	2000      	movs	r0, #0
 8005cfc:	bd70      	pop	{r4, r5, r6, pc}
      if (pdev->dev_state == USBD_STATE_CONFIGURED)
 8005cfe:	f890 329c 	ldrb.w	r3, [r0, #668]	@ 0x29c
 8005d02:	2b03      	cmp	r3, #3
 8005d04:	d1f9      	bne.n	8005cfa <USBD_LL_DataInStage+0x1a>
        if (pdev->pClass[idx]->DataIn != NULL)
 8005d06:	f8d0 32b8 	ldr.w	r3, [r0, #696]	@ 0x2b8
 8005d0a:	695b      	ldr	r3, [r3, #20]
 8005d0c:	2b00      	cmp	r3, #0
 8005d0e:	d0f4      	beq.n	8005cfa <USBD_LL_DataInStage+0x1a>
          pdev->classId = idx;
 8005d10:	2200      	movs	r2, #0
}
 8005d12:	e8bd 4070 	ldmia.w	sp!, {r4, r5, r6, lr}
          pdev->classId = idx;
 8005d16:	f8c0 22d4 	str.w	r2, [r0, #724]	@ 0x2d4
          ret = (USBD_StatusTypeDef)pdev->pClass[idx]->DataIn(pdev, epnum);
 8005d1a:	4718      	bx	r3
      if (pep->rem_length > pep->maxpacket)
 8005d1c:	e9d0 3607 	ldrd	r3, r6, [r0, #28]
 8005d20:	460d      	mov	r5, r1
 8005d22:	42b3      	cmp	r3, r6
 8005d24:	d810      	bhi.n	8005d48 <USBD_LL_DataInStage+0x68>
        if ((pep->maxpacket == pep->rem_length) &&
 8005d26:	d01c      	beq.n	8005d62 <USBD_LL_DataInStage+0x82>
          if (pdev->dev_state == USBD_STATE_CONFIGURED)
 8005d28:	f894 329c 	ldrb.w	r3, [r4, #668]	@ 0x29c
 8005d2c:	2b03      	cmp	r3, #3
 8005d2e:	d02b      	beq.n	8005d88 <USBD_LL_DataInStage+0xa8>
          (void)USBD_LL_StallEP(pdev, 0x80U);
 8005d30:	2180      	movs	r1, #128	@ 0x80
 8005d32:	4620      	mov	r0, r4
 8005d34:	f000 fe88 	bl	8006a48 <USBD_LL_StallEP>
          (void)USBD_CtlReceiveStatus(pdev);
 8005d38:	4620      	mov	r0, r4
 8005d3a:	f000 fc05 	bl	8006548 <USBD_CtlReceiveStatus>
    if (pdev->dev_test_mode != 0U)
 8005d3e:	f894 32a0 	ldrb.w	r3, [r4, #672]	@ 0x2a0
 8005d42:	2b00      	cmp	r3, #0
 8005d44:	d0d9      	beq.n	8005cfa <USBD_LL_DataInStage+0x1a>
 8005d46:	e7d5      	b.n	8005cf4 <USBD_LL_DataInStage+0x14>
        pep->rem_length -= pep->maxpacket;
 8005d48:	1b9b      	subs	r3, r3, r6
        (void)USBD_CtlContinueSendData(pdev, pdata, pep->rem_length);
 8005d4a:	4611      	mov	r1, r2
        pep->rem_length -= pep->maxpacket;
 8005d4c:	61c3      	str	r3, [r0, #28]
        (void)USBD_CtlContinueSendData(pdev, pdata, pep->rem_length);
 8005d4e:	461a      	mov	r2, r3
 8005d50:	f000 fbda 	bl	8006508 <USBD_CtlContinueSendData>
        (void)USBD_LL_PrepareReceive(pdev, 0U, NULL, 0U);
 8005d54:	462b      	mov	r3, r5
 8005d56:	462a      	mov	r2, r5
 8005d58:	4629      	mov	r1, r5
 8005d5a:	4620      	mov	r0, r4
 8005d5c:	f000 feb8 	bl	8006ad0 <USBD_LL_PrepareReceive>
 8005d60:	e7c5      	b.n	8005cee <USBD_LL_DataInStage+0xe>
            (pep->total_length >= pep->maxpacket) &&
 8005d62:	6982      	ldr	r2, [r0, #24]
        if ((pep->maxpacket == pep->rem_length) &&
 8005d64:	4293      	cmp	r3, r2
 8005d66:	d8df      	bhi.n	8005d28 <USBD_LL_DataInStage+0x48>
            (pep->total_length >= pep->maxpacket) &&
 8005d68:	f8d0 3298 	ldr.w	r3, [r0, #664]	@ 0x298
 8005d6c:	429a      	cmp	r2, r3
 8005d6e:	d2db      	bcs.n	8005d28 <USBD_LL_DataInStage+0x48>
          (void)USBD_CtlContinueSendData(pdev, NULL, 0U);
 8005d70:	460a      	mov	r2, r1
 8005d72:	f000 fbc9 	bl	8006508 <USBD_CtlContinueSendData>
          (void)USBD_LL_PrepareReceive(pdev, 0U, NULL, 0U);
 8005d76:	462b      	mov	r3, r5
 8005d78:	462a      	mov	r2, r5
 8005d7a:	4629      	mov	r1, r5
 8005d7c:	4620      	mov	r0, r4
          pdev->ep0_data_len = 0U;
 8005d7e:	f8c4 5298 	str.w	r5, [r4, #664]	@ 0x298
          (void)USBD_LL_PrepareReceive(pdev, 0U, NULL, 0U);
 8005d82:	f000 fea5 	bl	8006ad0 <USBD_LL_PrepareReceive>
 8005d86:	e7b2      	b.n	8005cee <USBD_LL_DataInStage+0xe>
            if (pdev->pClass[0]->EP0_TxSent != NULL)
 8005d88:	f8d4 32b8 	ldr.w	r3, [r4, #696]	@ 0x2b8
 8005d8c:	68db      	ldr	r3, [r3, #12]
 8005d8e:	2b00      	cmp	r3, #0
 8005d90:	d0ce      	beq.n	8005d30 <USBD_LL_DataInStage+0x50>
              pdev->classId = 0U;
 8005d92:	2200      	movs	r2, #0
              pdev->pClass[0]->EP0_TxSent(pdev);
 8005d94:	4620      	mov	r0, r4
              pdev->classId = 0U;
 8005d96:	f8c4 22d4 	str.w	r2, [r4, #724]	@ 0x2d4
              pdev->pClass[0]->EP0_TxSent(pdev);
 8005d9a:	4798      	blx	r3
 8005d9c:	e7c8      	b.n	8005d30 <USBD_LL_DataInStage+0x50>
 8005d9e:	bf00      	nop

08005da0 <USBD_LL_Reset>:
  *         Handle Reset event
  * @param  pdev: device instance
  * @retval status
  */
USBD_StatusTypeDef USBD_LL_Reset(USBD_HandleTypeDef *pdev)
{
 8005da0:	b5f8      	push	{r3, r4, r5, r6, r7, lr}
  USBD_StatusTypeDef ret = USBD_OK;

  /* Upon Reset call user call back */
  pdev->dev_state = USBD_STATE_DEFAULT;
  pdev->ep0_state = USBD_EP0_IDLE;
 8005da2:	2100      	movs	r1, #0
  pdev->dev_state = USBD_STATE_DEFAULT;
 8005da4:	2201      	movs	r2, #1
      }
    }
  }
#else

  if (pdev->pClass[0] != NULL)
 8005da6:	f8d0 32b8 	ldr.w	r3, [r0, #696]	@ 0x2b8
{
 8005daa:	4604      	mov	r4, r0
  pdev->dev_state = USBD_STATE_DEFAULT;
 8005dac:	f880 229c 	strb.w	r2, [r0, #668]	@ 0x29c
  pdev->dev_config = 0U;
 8005db0:	6041      	str	r1, [r0, #4]
  pdev->ep0_state = USBD_EP0_IDLE;
 8005db2:	f8c0 1294 	str.w	r1, [r0, #660]	@ 0x294
  pdev->dev_remote_wakeup = 0U;
 8005db6:	f8c0 12a4 	str.w	r1, [r0, #676]	@ 0x2a4
  pdev->dev_test_mode = 0U;
 8005dba:	f880 12a0 	strb.w	r1, [r0, #672]	@ 0x2a0
  if (pdev->pClass[0] != NULL)
 8005dbe:	b11b      	cbz	r3, 8005dc8 <USBD_LL_Reset+0x28>
  {
    if (pdev->pClass[0]->DeInit != NULL)
 8005dc0:	685b      	ldr	r3, [r3, #4]
 8005dc2:	b10b      	cbz	r3, 8005dc8 <USBD_LL_Reset+0x28>
    {
      if (pdev->pClass[0]->DeInit(pdev, (uint8_t)pdev->dev_config) != USBD_OK)
 8005dc4:	4798      	blx	r3
 8005dc6:	b9b0      	cbnz	r0, 8005df6 <USBD_LL_Reset+0x56>
  USBD_StatusTypeDef ret = USBD_OK;
 8005dc8:	2700      	movs	r7, #0
    }
  }
#endif /* USE_USBD_COMPOSITE */

  /* Open EP0 OUT */
  (void)USBD_LL_OpenEP(pdev, 0x00U, USBD_EP_TYPE_CTRL, USB_MAX_EP0_SIZE);
 8005dca:	2340      	movs	r3, #64	@ 0x40
 8005dcc:	2200      	movs	r2, #0
  pdev->ep_out[0x00U & 0xFU].is_used = 1U;
 8005dce:	2601      	movs	r6, #1
  (void)USBD_LL_OpenEP(pdev, 0x00U, USBD_EP_TYPE_CTRL, USB_MAX_EP0_SIZE);
 8005dd0:	4620      	mov	r0, r4

  pdev->ep_out[0].maxpacket = USB_MAX_EP0_SIZE;
 8005dd2:	461d      	mov	r5, r3
  (void)USBD_LL_OpenEP(pdev, 0x00U, USBD_EP_TYPE_CTRL, USB_MAX_EP0_SIZE);
 8005dd4:	4611      	mov	r1, r2
 8005dd6:	f000 fe1d 	bl	8006a14 <USBD_LL_OpenEP>

  /* Open EP0 IN */
  (void)USBD_LL_OpenEP(pdev, 0x80U, USBD_EP_TYPE_CTRL, USB_MAX_EP0_SIZE);
 8005dda:	2200      	movs	r2, #0
 8005ddc:	462b      	mov	r3, r5
 8005dde:	2180      	movs	r1, #128	@ 0x80
 8005de0:	4620      	mov	r0, r4
  pdev->ep_out[0x00U & 0xFU].is_used = 1U;
 8005de2:	f8a4 6164 	strh.w	r6, [r4, #356]	@ 0x164
  pdev->ep_out[0].maxpacket = USB_MAX_EP0_SIZE;
 8005de6:	f8c4 5160 	str.w	r5, [r4, #352]	@ 0x160
  (void)USBD_LL_OpenEP(pdev, 0x80U, USBD_EP_TYPE_CTRL, USB_MAX_EP0_SIZE);
 8005dea:	f000 fe13 	bl	8006a14 <USBD_LL_OpenEP>
  pdev->ep_in[0x80U & 0xFU].is_used = 1U;

  pdev->ep_in[0].maxpacket = USB_MAX_EP0_SIZE;

  return ret;
}
 8005dee:	4638      	mov	r0, r7
  pdev->ep_in[0x80U & 0xFU].is_used = 1U;
 8005df0:	84a6      	strh	r6, [r4, #36]	@ 0x24
  pdev->ep_in[0].maxpacket = USB_MAX_EP0_SIZE;
 8005df2:	6225      	str	r5, [r4, #32]
}
 8005df4:	bdf8      	pop	{r3, r4, r5, r6, r7, pc}
        ret = USBD_FAIL;
 8005df6:	2703      	movs	r7, #3
 8005df8:	e7e7      	b.n	8005dca <USBD_LL_Reset+0x2a>
 8005dfa:	bf00      	nop

08005dfc <USBD_LL_SetSpeed>:
  * @param  pdev: device instance
  * @retval status
  */
USBD_StatusTypeDef USBD_LL_SetSpeed(USBD_HandleTypeDef *pdev,
                                    USBD_SpeedTypeDef speed)
{
 8005dfc:	4603      	mov	r3, r0
  pdev->dev_speed = speed;

  return USBD_OK;
}
 8005dfe:	2000      	movs	r0, #0
  pdev->dev_speed = speed;
 8005e00:	7419      	strb	r1, [r3, #16]
}
 8005e02:	4770      	bx	lr

08005e04 <USBD_LL_Suspend>:
  * @param  pdev: device instance
  * @retval status
  */
USBD_StatusTypeDef USBD_LL_Suspend(USBD_HandleTypeDef *pdev)
{
  if (pdev->dev_state != USBD_STATE_SUSPENDED)
 8005e04:	f890 229c 	ldrb.w	r2, [r0, #668]	@ 0x29c
{
 8005e08:	4603      	mov	r3, r0
  if (pdev->dev_state != USBD_STATE_SUSPENDED)
 8005e0a:	2a04      	cmp	r2, #4
 8005e0c:	d004      	beq.n	8005e18 <USBD_LL_Suspend+0x14>
  {
    pdev->dev_old_state = pdev->dev_state;
 8005e0e:	f890 229c 	ldrb.w	r2, [r0, #668]	@ 0x29c
 8005e12:	b2d2      	uxtb	r2, r2
 8005e14:	f880 229d 	strb.w	r2, [r0, #669]	@ 0x29d
  }

  pdev->dev_state = USBD_STATE_SUSPENDED;
 8005e18:	2204      	movs	r2, #4

  return USBD_OK;
}
 8005e1a:	2000      	movs	r0, #0
  pdev->dev_state = USBD_STATE_SUSPENDED;
 8005e1c:	f883 229c 	strb.w	r2, [r3, #668]	@ 0x29c
}
 8005e20:	4770      	bx	lr
 8005e22:	bf00      	nop

08005e24 <USBD_LL_Resume>:
  * @param  pdev: device instance
  * @retval status
  */
USBD_StatusTypeDef USBD_LL_Resume(USBD_HandleTypeDef *pdev)
{
  if (pdev->dev_state == USBD_STATE_SUSPENDED)
 8005e24:	f890 329c 	ldrb.w	r3, [r0, #668]	@ 0x29c
 8005e28:	2b04      	cmp	r3, #4
 8005e2a:	d104      	bne.n	8005e36 <USBD_LL_Resume+0x12>
  {
    pdev->dev_state = pdev->dev_old_state;
 8005e2c:	f890 329d 	ldrb.w	r3, [r0, #669]	@ 0x29d
 8005e30:	b2db      	uxtb	r3, r3
 8005e32:	f880 329c 	strb.w	r3, [r0, #668]	@ 0x29c
  }

  return USBD_OK;
}
 8005e36:	2000      	movs	r0, #0
 8005e38:	4770      	bx	lr
 8005e3a:	bf00      	nop

08005e3c <USBD_LL_SOF>:
  * @retval status
  */
USBD_StatusTypeDef USBD_LL_SOF(USBD_HandleTypeDef *pdev)
{
  /* The SOF event can be distributed for all classes that support it */
  if (pdev->dev_state == USBD_STATE_CONFIGURED)
 8005e3c:	f890 229c 	ldrb.w	r2, [r0, #668]	@ 0x29c
 8005e40:	2a03      	cmp	r2, #3
 8005e42:	d001      	beq.n	8005e48 <USBD_LL_SOF+0xc>
    }
#endif /* USE_USBD_COMPOSITE */
  }

  return USBD_OK;
}
 8005e44:	2000      	movs	r0, #0
 8005e46:	4770      	bx	lr
{
 8005e48:	b508      	push	{r3, lr}
    if (pdev->pClass[0] != NULL)
 8005e4a:	f8d0 32b8 	ldr.w	r3, [r0, #696]	@ 0x2b8
 8005e4e:	b113      	cbz	r3, 8005e56 <USBD_LL_SOF+0x1a>
      if (pdev->pClass[0]->SOF != NULL)
 8005e50:	69db      	ldr	r3, [r3, #28]
 8005e52:	b103      	cbz	r3, 8005e56 <USBD_LL_SOF+0x1a>
        (void)pdev->pClass[0]->SOF(pdev);
 8005e54:	4798      	blx	r3
}
 8005e56:	2000      	movs	r0, #0
 8005e58:	bd08      	pop	{r3, pc}
 8005e5a:	bf00      	nop

08005e5c <USBD_LL_IsoINIncomplete>:
  * @retval status
  */
USBD_StatusTypeDef USBD_LL_IsoINIncomplete(USBD_HandleTypeDef *pdev,
                                           uint8_t epnum)
{
  if (pdev->pClass[pdev->classId] == NULL)
 8005e5c:	f8d0 22d4 	ldr.w	r2, [r0, #724]	@ 0x2d4
 8005e60:	32ae      	adds	r2, #174	@ 0xae
 8005e62:	f850 2022 	ldr.w	r2, [r0, r2, lsl #2]
 8005e66:	b162      	cbz	r2, 8005e82 <USBD_LL_IsoINIncomplete+0x26>
{
 8005e68:	b508      	push	{r3, lr}
  {
    return USBD_FAIL;
  }

  if (pdev->dev_state == USBD_STATE_CONFIGURED)
 8005e6a:	f890 329c 	ldrb.w	r3, [r0, #668]	@ 0x29c
 8005e6e:	2b03      	cmp	r3, #3
 8005e70:	d001      	beq.n	8005e76 <USBD_LL_IsoINIncomplete+0x1a>
    {
      (void)pdev->pClass[pdev->classId]->IsoINIncomplete(pdev, epnum);
    }
  }

  return USBD_OK;
 8005e72:	2000      	movs	r0, #0
}
 8005e74:	bd08      	pop	{r3, pc}
    if (pdev->pClass[pdev->classId]->IsoINIncomplete != NULL)
 8005e76:	6a13      	ldr	r3, [r2, #32]
 8005e78:	2b00      	cmp	r3, #0
 8005e7a:	d0fa      	beq.n	8005e72 <USBD_LL_IsoINIncomplete+0x16>
      (void)pdev->pClass[pdev->classId]->IsoINIncomplete(pdev, epnum);
 8005e7c:	4798      	blx	r3
  return USBD_OK;
 8005e7e:	2000      	movs	r0, #0
}
 8005e80:	bd08      	pop	{r3, pc}
    return USBD_FAIL;
 8005e82:	2003      	movs	r0, #3
}
 8005e84:	4770      	bx	lr
 8005e86:	bf00      	nop

08005e88 <USBD_LL_IsoOUTIncomplete>:
  * @retval status
  */
USBD_StatusTypeDef USBD_LL_IsoOUTIncomplete(USBD_HandleTypeDef *pdev,
                                            uint8_t epnum)
{
  if (pdev->pClass[pdev->classId] == NULL)
 8005e88:	f8d0 22d4 	ldr.w	r2, [r0, #724]	@ 0x2d4
 8005e8c:	32ae      	adds	r2, #174	@ 0xae
 8005e8e:	f850 2022 	ldr.w	r2, [r0, r2, lsl #2]
 8005e92:	b162      	cbz	r2, 8005eae <USBD_LL_IsoOUTIncomplete+0x26>
{
 8005e94:	b508      	push	{r3, lr}
  {
    return USBD_FAIL;
  }

  if (pdev->dev_state == USBD_STATE_CONFIGURED)
 8005e96:	f890 329c 	ldrb.w	r3, [r0, #668]	@ 0x29c
 8005e9a:	2b03      	cmp	r3, #3
 8005e9c:	d001      	beq.n	8005ea2 <USBD_LL_IsoOUTIncomplete+0x1a>
    {
      (void)pdev->pClass[pdev->classId]->IsoOUTIncomplete(pdev, epnum);
    }
  }

  return USBD_OK;
 8005e9e:	2000      	movs	r0, #0
}
 8005ea0:	bd08      	pop	{r3, pc}
    if (pdev->pClass[pdev->classId]->IsoOUTIncomplete != NULL)
 8005ea2:	6a53      	ldr	r3, [r2, #36]	@ 0x24
 8005ea4:	2b00      	cmp	r3, #0
 8005ea6:	d0fa      	beq.n	8005e9e <USBD_LL_IsoOUTIncomplete+0x16>
      (void)pdev->pClass[pdev->classId]->IsoOUTIncomplete(pdev, epnum);
 8005ea8:	4798      	blx	r3
  return USBD_OK;
 8005eaa:	2000      	movs	r0, #0
}
 8005eac:	bd08      	pop	{r3, pc}
    return USBD_FAIL;
 8005eae:	2003      	movs	r0, #3
}
 8005eb0:	4770      	bx	lr
 8005eb2:	bf00      	nop

08005eb4 <USBD_LL_DevConnected>:
  * @brief  USBD_LL_DevConnected
  *         Handle device connection event
  * @param  pdev: device instance
  * @retval status
  */
USBD_StatusTypeDef USBD_LL_DevConnected(USBD_HandleTypeDef *pdev)
 8005eb4:	2000      	movs	r0, #0
 8005eb6:	4770      	bx	lr

08005eb8 <USBD_LL_DevDisconnected>:
USBD_StatusTypeDef USBD_LL_DevDisconnected(USBD_HandleTypeDef *pdev)
{
  USBD_StatusTypeDef   ret = USBD_OK;

  /* Free Class Resources */
  pdev->dev_state = USBD_STATE_DEFAULT;
 8005eb8:	2101      	movs	r1, #1
        }
      }
    }
  }
#else
  if (pdev->pClass[0] != NULL)
 8005eba:	f8d0 22b8 	ldr.w	r2, [r0, #696]	@ 0x2b8
  pdev->dev_state = USBD_STATE_DEFAULT;
 8005ebe:	f880 129c 	strb.w	r1, [r0, #668]	@ 0x29c
  if (pdev->pClass[0] != NULL)
 8005ec2:	b142      	cbz	r2, 8005ed6 <USBD_LL_DevDisconnected+0x1e>
  {
    if (pdev->pClass[0]->DeInit(pdev, (uint8_t)pdev->dev_config) != 0U)
 8005ec4:	6852      	ldr	r2, [r2, #4]
 8005ec6:	7901      	ldrb	r1, [r0, #4]
{
 8005ec8:	b508      	push	{r3, lr}
    if (pdev->pClass[0]->DeInit(pdev, (uint8_t)pdev->dev_config) != 0U)
 8005eca:	4790      	blx	r2
 8005ecc:	b908      	cbnz	r0, 8005ed2 <USBD_LL_DevDisconnected+0x1a>
  USBD_StatusTypeDef   ret = USBD_OK;
 8005ece:	2000      	movs	r0, #0
    }
  }
#endif /* USE_USBD_COMPOSITE */

  return ret;
}
 8005ed0:	bd08      	pop	{r3, pc}
      ret = USBD_FAIL;
 8005ed2:	2003      	movs	r0, #3
}
 8005ed4:	bd08      	pop	{r3, pc}
  USBD_StatusTypeDef   ret = USBD_OK;
 8005ed6:	2000      	movs	r0, #0
}
 8005ed8:	4770      	bx	lr
 8005eda:	bf00      	nop

08005edc <USBD_CoreFindIF>:
  UNUSED(pdev);
  UNUSED(index);

  return 0x00U;
#endif /* USE_USBD_COMPOSITE */
}
 8005edc:	2000      	movs	r0, #0
 8005ede:	4770      	bx	lr

08005ee0 <USBD_CoreFindEP>:
  *         return the class index relative to the selected endpoint
  * @param  pdev: device instance
  * @param  index : selected endpoint number
  * @retval index of the class using the selected endpoint number. 0xFF if no class found.
  */
uint8_t USBD_CoreFindEP(USBD_HandleTypeDef *pdev, uint8_t index)
 8005ee0:	2000      	movs	r0, #0
 8005ee2:	4770      	bx	lr

08005ee4 <USBD_GetEpDesc>:
  USBD_DescHeaderTypeDef *pdesc = (USBD_DescHeaderTypeDef *)(void *)pConfDesc;
  USBD_ConfigDescTypeDef *desc = (USBD_ConfigDescTypeDef *)(void *)pConfDesc;
  USBD_EpDescTypeDef *pEpDesc = NULL;
  uint16_t ptr;

  if (desc->wTotalLength > desc->bLength)
 8005ee4:	7802      	ldrb	r2, [r0, #0]
 8005ee6:	f8b0 c002 	ldrh.w	ip, [r0, #2]
 8005eea:	4613      	mov	r3, r2
 8005eec:	4594      	cmp	ip, r2
 8005eee:	d803      	bhi.n	8005ef8 <USBD_GetEpDesc+0x14>
 8005ef0:	e00c      	b.n	8005f0c <USBD_GetEpDesc+0x28>
  {
    ptr = desc->bLength;

    while (ptr < desc->wTotalLength)
 8005ef2:	459c      	cmp	ip, r3
 8005ef4:	d90a      	bls.n	8005f0c <USBD_GetEpDesc+0x28>
  */
USBD_DescHeaderTypeDef *USBD_GetNextDesc(uint8_t *pbuf, uint16_t *ptr)
{
  USBD_DescHeaderTypeDef *pnext = (USBD_DescHeaderTypeDef *)(void *)pbuf;

  *ptr += pnext->bLength;
 8005ef6:	7802      	ldrb	r2, [r0, #0]
  pnext = (USBD_DescHeaderTypeDef *)(void *)(pbuf + pnext->bLength);
 8005ef8:	4410      	add	r0, r2
  *ptr += pnext->bLength;
 8005efa:	4413      	add	r3, r2
      if (pdesc->bDescriptorType == USB_DESC_TYPE_ENDPOINT)
 8005efc:	7842      	ldrb	r2, [r0, #1]
  *ptr += pnext->bLength;
 8005efe:	b29b      	uxth	r3, r3
      if (pdesc->bDescriptorType == USB_DESC_TYPE_ENDPOINT)
 8005f00:	2a05      	cmp	r2, #5
 8005f02:	d1f6      	bne.n	8005ef2 <USBD_GetEpDesc+0xe>
        if (pEpDesc->bEndpointAddress == EpAddr)
 8005f04:	7882      	ldrb	r2, [r0, #2]
 8005f06:	428a      	cmp	r2, r1
 8005f08:	d1f3      	bne.n	8005ef2 <USBD_GetEpDesc+0xe>
}
 8005f0a:	4770      	bx	lr
  USBD_EpDescTypeDef *pEpDesc = NULL;
 8005f0c:	2000      	movs	r0, #0
}
 8005f0e:	4770      	bx	lr

08005f10 <USBD_StdDevReq>:
  * @param  pdev: device instance
  * @param  req: usb request
  * @retval status
  */
USBD_StatusTypeDef USBD_StdDevReq(USBD_HandleTypeDef *pdev, USBD_SetupReqTypedef *req)
{
 8005f10:	b570      	push	{r4, r5, r6, lr}
 8005f12:	780b      	ldrb	r3, [r1, #0]
 8005f14:	b082      	sub	sp, #8
 8005f16:	460d      	mov	r5, r1
 8005f18:	4604      	mov	r4, r0
  USBD_StatusTypeDef ret = USBD_OK;

  switch (req->bmRequest & USB_REQ_TYPE_MASK)
 8005f1a:	f003 0360 	and.w	r3, r3, #96	@ 0x60
 8005f1e:	2b20      	cmp	r3, #32
 8005f20:	d00e      	beq.n	8005f40 <USBD_StdDevReq+0x30>
 8005f22:	2b40      	cmp	r3, #64	@ 0x40
 8005f24:	d00c      	beq.n	8005f40 <USBD_StdDevReq+0x30>
 8005f26:	b1bb      	cbz	r3, 8005f58 <USBD_StdDevReq+0x48>
  */
void USBD_CtlError(USBD_HandleTypeDef *pdev, USBD_SetupReqTypedef *req)
{
  UNUSED(req);

  (void)USBD_LL_StallEP(pdev, 0x80U);
 8005f28:	2180      	movs	r1, #128	@ 0x80
 8005f2a:	4620      	mov	r0, r4
 8005f2c:	f000 fd8c 	bl	8006a48 <USBD_LL_StallEP>
  (void)USBD_LL_StallEP(pdev, 0U);
 8005f30:	2100      	movs	r1, #0
 8005f32:	4620      	mov	r0, r4
 8005f34:	f000 fd88 	bl	8006a48 <USBD_LL_StallEP>
  USBD_StatusTypeDef ret = USBD_OK;
 8005f38:	2500      	movs	r5, #0
}
 8005f3a:	4628      	mov	r0, r5
 8005f3c:	b002      	add	sp, #8
 8005f3e:	bd70      	pop	{r4, r5, r6, pc}
      ret = (USBD_StatusTypeDef)pdev->pClass[pdev->classId]->Setup(pdev, req);
 8005f40:	f8d4 32d4 	ldr.w	r3, [r4, #724]	@ 0x2d4
 8005f44:	4629      	mov	r1, r5
 8005f46:	4620      	mov	r0, r4
 8005f48:	33ae      	adds	r3, #174	@ 0xae
 8005f4a:	f854 3023 	ldr.w	r3, [r4, r3, lsl #2]
 8005f4e:	689b      	ldr	r3, [r3, #8]
}
 8005f50:	b002      	add	sp, #8
 8005f52:	e8bd 4070 	ldmia.w	sp!, {r4, r5, r6, lr}
      ret = (USBD_StatusTypeDef)pdev->pClass[pdev->classId]->Setup(pdev, req);
 8005f56:	4718      	bx	r3
      switch (req->bRequest)
 8005f58:	784b      	ldrb	r3, [r1, #1]
 8005f5a:	2b09      	cmp	r3, #9
 8005f5c:	d8e4      	bhi.n	8005f28 <USBD_StdDevReq+0x18>
 8005f5e:	a201      	add	r2, pc, #4	@ (adr r2, 8005f64 <USBD_StdDevReq+0x54>)
 8005f60:	f852 f023 	ldr.w	pc, [r2, r3, lsl #2]
 8005f64:	08005fc5 	.word	0x08005fc5
 8005f68:	08005fed 	.word	0x08005fed
 8005f6c:	08005f29 	.word	0x08005f29
 8005f70:	0800600b 	.word	0x0800600b
 8005f74:	08005f29 	.word	0x08005f29
 8005f78:	08006023 	.word	0x08006023
 8005f7c:	08006063 	.word	0x08006063
 8005f80:	08005f29 	.word	0x08005f29
 8005f84:	080060b9 	.word	0x080060b9
 8005f88:	08005f8d 	.word	0x08005f8d
  cfgidx = (uint8_t)(req->wValue);
 8005f8c:	7889      	ldrb	r1, [r1, #2]
 8005f8e:	4db5      	ldr	r5, [pc, #724]	@ (8006264 <USBD_StdDevReq+0x354>)
  if (cfgidx > USBD_MAX_NUM_CONFIGURATION)
 8005f90:	2901      	cmp	r1, #1
  cfgidx = (uint8_t)(req->wValue);
 8005f92:	7029      	strb	r1, [r5, #0]
  if (cfgidx > USBD_MAX_NUM_CONFIGURATION)
 8005f94:	f200 815e 	bhi.w	8006254 <USBD_StdDevReq+0x344>
  switch (pdev->dev_state)
 8005f98:	f890 329c 	ldrb.w	r3, [r0, #668]	@ 0x29c
 8005f9c:	2b02      	cmp	r3, #2
 8005f9e:	b2de      	uxtb	r6, r3
 8005fa0:	f000 8145 	beq.w	800622e <USBD_StdDevReq+0x31e>
 8005fa4:	2e03      	cmp	r6, #3
 8005fa6:	f000 8122 	beq.w	80061ee <USBD_StdDevReq+0x2de>
  (void)USBD_LL_StallEP(pdev, 0x80U);
 8005faa:	2180      	movs	r1, #128	@ 0x80
 8005fac:	f000 fd4c 	bl	8006a48 <USBD_LL_StallEP>
  (void)USBD_LL_StallEP(pdev, 0U);
 8005fb0:	2100      	movs	r1, #0
 8005fb2:	4620      	mov	r0, r4
 8005fb4:	f000 fd48 	bl	8006a48 <USBD_LL_StallEP>
      (void)USBD_ClrClassConfig(pdev, cfgidx);
 8005fb8:	7829      	ldrb	r1, [r5, #0]
 8005fba:	4620      	mov	r0, r4
 8005fbc:	f7ff fe1c 	bl	8005bf8 <USBD_ClrClassConfig>
    return USBD_FAIL;
 8005fc0:	2503      	movs	r5, #3
 8005fc2:	e7ba      	b.n	8005f3a <USBD_StdDevReq+0x2a>
  switch (pdev->dev_state)
 8005fc4:	f890 329c 	ldrb.w	r3, [r0, #668]	@ 0x29c
 8005fc8:	3b01      	subs	r3, #1
 8005fca:	2b02      	cmp	r3, #2
 8005fcc:	d8ac      	bhi.n	8005f28 <USBD_StdDevReq+0x18>
      if (req->wLength != 0x2U)
 8005fce:	88ca      	ldrh	r2, [r1, #6]
 8005fd0:	2a02      	cmp	r2, #2
 8005fd2:	d1a9      	bne.n	8005f28 <USBD_StdDevReq+0x18>
      if (pdev->dev_remote_wakeup != 0U)
 8005fd4:	f8d0 32a4 	ldr.w	r3, [r0, #676]	@ 0x2a4
 8005fd8:	4601      	mov	r1, r0
        pdev->dev_config_status |= USB_CONFIG_REMOTE_WAKEUP;
 8005fda:	2b00      	cmp	r3, #0
 8005fdc:	bf0c      	ite	eq
 8005fde:	2301      	moveq	r3, #1
 8005fe0:	2303      	movne	r3, #3
 8005fe2:	f841 3f0c 	str.w	r3, [r1, #12]!
      (void)USBD_CtlSendData(pdev, (uint8_t *)&pdev->dev_config_status, 2U);
 8005fe6:	f000 fa81 	bl	80064ec <USBD_CtlSendData>
      break;
 8005fea:	e7a5      	b.n	8005f38 <USBD_StdDevReq+0x28>
  switch (pdev->dev_state)
 8005fec:	f890 329c 	ldrb.w	r3, [r0, #668]	@ 0x29c
 8005ff0:	3b01      	subs	r3, #1
 8005ff2:	2b02      	cmp	r3, #2
 8005ff4:	d898      	bhi.n	8005f28 <USBD_StdDevReq+0x18>
      if (req->wValue == USB_FEATURE_REMOTE_WAKEUP)
 8005ff6:	884b      	ldrh	r3, [r1, #2]
 8005ff8:	2b01      	cmp	r3, #1
 8005ffa:	d19d      	bne.n	8005f38 <USBD_StdDevReq+0x28>
        pdev->dev_remote_wakeup = 0U;
 8005ffc:	2300      	movs	r3, #0
        (void)USBD_CtlSendStatus(pdev);
 8005ffe:	4620      	mov	r0, r4
        pdev->dev_remote_wakeup = 0U;
 8006000:	f8c4 32a4 	str.w	r3, [r4, #676]	@ 0x2a4
        (void)USBD_CtlSendStatus(pdev);
 8006004:	f000 fa94 	bl	8006530 <USBD_CtlSendStatus>
 8006008:	e796      	b.n	8005f38 <USBD_StdDevReq+0x28>
  if (req->wValue == USB_FEATURE_REMOTE_WAKEUP)
 800600a:	884b      	ldrh	r3, [r1, #2]
 800600c:	2b01      	cmp	r3, #1
 800600e:	d0f6      	beq.n	8005ffe <USBD_StdDevReq+0xee>
  else if (req->wValue == USB_FEATURE_TEST_MODE)
 8006010:	2b02      	cmp	r3, #2
 8006012:	d189      	bne.n	8005f28 <USBD_StdDevReq+0x18>
    pdev->dev_test_mode = (uint8_t)(req->wIndex >> 8);
 8006014:	888b      	ldrh	r3, [r1, #4]
 8006016:	0a1b      	lsrs	r3, r3, #8
 8006018:	f880 32a0 	strb.w	r3, [r0, #672]	@ 0x2a0
    (void)USBD_CtlSendStatus(pdev);
 800601c:	f000 fa88 	bl	8006530 <USBD_CtlSendStatus>
 8006020:	e78a      	b.n	8005f38 <USBD_StdDevReq+0x28>
  if ((req->wIndex == 0U) && (req->wLength == 0U) && (req->wValue < 128U))
 8006022:	888b      	ldrh	r3, [r1, #4]
 8006024:	2b00      	cmp	r3, #0
 8006026:	f47f af7f 	bne.w	8005f28 <USBD_StdDevReq+0x18>
 800602a:	88cb      	ldrh	r3, [r1, #6]
 800602c:	2b00      	cmp	r3, #0
 800602e:	f47f af7b 	bne.w	8005f28 <USBD_StdDevReq+0x18>
 8006032:	884d      	ldrh	r5, [r1, #2]
 8006034:	2d7f      	cmp	r5, #127	@ 0x7f
 8006036:	f63f af77 	bhi.w	8005f28 <USBD_StdDevReq+0x18>
    if (pdev->dev_state == USBD_STATE_CONFIGURED)
 800603a:	f890 329c 	ldrb.w	r3, [r0, #668]	@ 0x29c
 800603e:	2b03      	cmp	r3, #3
 8006040:	f43f af72 	beq.w	8005f28 <USBD_StdDevReq+0x18>
    dev_addr = (uint8_t)(req->wValue) & 0x7FU;
 8006044:	b2e9      	uxtb	r1, r5
      pdev->dev_address = dev_addr;
 8006046:	f880 129e 	strb.w	r1, [r0, #670]	@ 0x29e
      (void)USBD_LL_SetUSBAddress(pdev, dev_addr);
 800604a:	f000 fd29 	bl	8006aa0 <USBD_LL_SetUSBAddress>
      (void)USBD_CtlSendStatus(pdev);
 800604e:	4620      	mov	r0, r4
 8006050:	f000 fa6e 	bl	8006530 <USBD_CtlSendStatus>
      if (dev_addr != 0U)
 8006054:	2d00      	cmp	r5, #0
 8006056:	f000 8115 	beq.w	8006284 <USBD_StdDevReq+0x374>
        pdev->dev_state = USBD_STATE_ADDRESSED;
 800605a:	2302      	movs	r3, #2
 800605c:	f884 329c 	strb.w	r3, [r4, #668]	@ 0x29c
 8006060:	e76a      	b.n	8005f38 <USBD_StdDevReq+0x28>
  switch (req->wValue >> 8)
 8006062:	884a      	ldrh	r2, [r1, #2]
  uint16_t len = 0U;
 8006064:	2100      	movs	r1, #0
  switch (req->wValue >> 8)
 8006066:	0a13      	lsrs	r3, r2, #8
  uint16_t len = 0U;
 8006068:	f8ad 1006 	strh.w	r1, [sp, #6]
  switch (req->wValue >> 8)
 800606c:	3b01      	subs	r3, #1
 800606e:	2b0e      	cmp	r3, #14
 8006070:	f63f af5a 	bhi.w	8005f28 <USBD_StdDevReq+0x18>
 8006074:	a101      	add	r1, pc, #4	@ (adr r1, 800607c <USBD_StdDevReq+0x16c>)
 8006076:	f851 f023 	ldr.w	pc, [r1, r3, lsl #2]
 800607a:	bf00      	nop
 800607c:	08006163 	.word	0x08006163
 8006080:	08006149 	.word	0x08006149
 8006084:	08006173 	.word	0x08006173
 8006088:	08005f29 	.word	0x08005f29
 800608c:	08005f29 	.word	0x08005f29
 8006090:	08006119 	.word	0x08006119
 8006094:	0800612f 	.word	0x0800612f
 8006098:	08005f29 	.word	0x08005f29
 800609c:	08005f29 	.word	0x08005f29
 80060a0:	08005f29 	.word	0x08005f29
 80060a4:	08005f29 	.word	0x08005f29
 80060a8:	08005f29 	.word	0x08005f29
 80060ac:	08005f29 	.word	0x08005f29
 80060b0:	08005f29 	.word	0x08005f29
 80060b4:	080060e1 	.word	0x080060e1
  if (req->wLength != 1U)
 80060b8:	88ca      	ldrh	r2, [r1, #6]
 80060ba:	2a01      	cmp	r2, #1
 80060bc:	f47f af34 	bne.w	8005f28 <USBD_StdDevReq+0x18>
    switch (pdev->dev_state)
 80060c0:	f890 129c 	ldrb.w	r1, [r0, #668]	@ 0x29c
 80060c4:	2902      	cmp	r1, #2
 80060c6:	b2cb      	uxtb	r3, r1
 80060c8:	f200 808a 	bhi.w	80061e0 <USBD_StdDevReq+0x2d0>
 80060cc:	2b00      	cmp	r3, #0
 80060ce:	f43f af2b 	beq.w	8005f28 <USBD_StdDevReq+0x18>
        pdev->dev_default_config = 0U;
 80060d2:	4601      	mov	r1, r0
 80060d4:	2300      	movs	r3, #0
 80060d6:	f841 3f08 	str.w	r3, [r1, #8]!
        (void)USBD_CtlSendData(pdev, (uint8_t *)&pdev->dev_default_config, 1U);
 80060da:	f000 fa07 	bl	80064ec <USBD_CtlSendData>
        break;
 80060de:	e72b      	b.n	8005f38 <USBD_StdDevReq+0x28>
      if (pdev->pDesc->GetBOSDescriptor != NULL)
 80060e0:	f8d0 32b4 	ldr.w	r3, [r0, #692]	@ 0x2b4
 80060e4:	69db      	ldr	r3, [r3, #28]
 80060e6:	2b00      	cmp	r3, #0
 80060e8:	f43f af1e 	beq.w	8005f28 <USBD_StdDevReq+0x18>
            pbuf = pdev->pDesc->GetInterfaceStrDescriptor(pdev->dev_speed, &len);
 80060ec:	f10d 0106 	add.w	r1, sp, #6
 80060f0:	7c20      	ldrb	r0, [r4, #16]
 80060f2:	4798      	blx	r3
  if (req->wLength != 0U)
 80060f4:	88eb      	ldrh	r3, [r5, #6]
 80060f6:	2b00      	cmp	r3, #0
 80060f8:	d06e      	beq.n	80061d8 <USBD_StdDevReq+0x2c8>
    if (len != 0U)
 80060fa:	f8bd 2006 	ldrh.w	r2, [sp, #6]
 80060fe:	2a00      	cmp	r2, #0
 8006100:	f43f af12 	beq.w	8005f28 <USBD_StdDevReq+0x18>
      len = MIN(len, req->wLength);
 8006104:	429a      	cmp	r2, r3
      (void)USBD_CtlSendData(pdev, pbuf, len);
 8006106:	4601      	mov	r1, r0
 8006108:	4620      	mov	r0, r4
      len = MIN(len, req->wLength);
 800610a:	bf28      	it	cs
 800610c:	461a      	movcs	r2, r3
 800610e:	f8ad 2006 	strh.w	r2, [sp, #6]
      (void)USBD_CtlSendData(pdev, pbuf, len);
 8006112:	f000 f9eb 	bl	80064ec <USBD_CtlSendData>
 8006116:	e70f      	b.n	8005f38 <USBD_StdDevReq+0x28>
      if (pdev->dev_speed == USBD_SPEED_HIGH)
 8006118:	7c03      	ldrb	r3, [r0, #16]
 800611a:	2b00      	cmp	r3, #0
 800611c:	f47f af04 	bne.w	8005f28 <USBD_StdDevReq+0x18>
          pbuf = (uint8_t *)pdev->pClass[0]->GetDeviceQualifierDescriptor(&len);
 8006120:	f8d0 32b8 	ldr.w	r3, [r0, #696]	@ 0x2b8
 8006124:	f10d 0006 	add.w	r0, sp, #6
 8006128:	6b5b      	ldr	r3, [r3, #52]	@ 0x34
 800612a:	4798      	blx	r3
  if (err != 0U)
 800612c:	e7e2      	b.n	80060f4 <USBD_StdDevReq+0x1e4>
      if (pdev->dev_speed == USBD_SPEED_HIGH)
 800612e:	7c03      	ldrb	r3, [r0, #16]
 8006130:	2b00      	cmp	r3, #0
 8006132:	f47f aef9 	bne.w	8005f28 <USBD_StdDevReq+0x18>
          pbuf = (uint8_t *)pdev->pClass[0]->GetOtherSpeedConfigDescriptor(&len);
 8006136:	f8d0 32b8 	ldr.w	r3, [r0, #696]	@ 0x2b8
 800613a:	f10d 0006 	add.w	r0, sp, #6
 800613e:	6b1b      	ldr	r3, [r3, #48]	@ 0x30
 8006140:	4798      	blx	r3
        pbuf[1] = USB_DESC_TYPE_OTHER_SPEED_CONFIGURATION;
 8006142:	2307      	movs	r3, #7
 8006144:	7043      	strb	r3, [r0, #1]
  if (err != 0U)
 8006146:	e7d5      	b.n	80060f4 <USBD_StdDevReq+0x1e4>
      if (pdev->dev_speed == USBD_SPEED_HIGH)
 8006148:	7c02      	ldrb	r2, [r0, #16]
          pbuf = (uint8_t *)pdev->pClass[0]->GetHSConfigDescriptor(&len);
 800614a:	f8d0 32b8 	ldr.w	r3, [r0, #696]	@ 0x2b8
      if (pdev->dev_speed == USBD_SPEED_HIGH)
 800614e:	2a00      	cmp	r2, #0
 8006150:	f040 808a 	bne.w	8006268 <USBD_StdDevReq+0x358>
          pbuf = (uint8_t *)pdev->pClass[0]->GetHSConfigDescriptor(&len);
 8006154:	6a9b      	ldr	r3, [r3, #40]	@ 0x28
 8006156:	f10d 0006 	add.w	r0, sp, #6
 800615a:	4798      	blx	r3
        pbuf[1] = USB_DESC_TYPE_CONFIGURATION;
 800615c:	2302      	movs	r3, #2
 800615e:	7043      	strb	r3, [r0, #1]
  if (err != 0U)
 8006160:	e7c8      	b.n	80060f4 <USBD_StdDevReq+0x1e4>
      pbuf = pdev->pDesc->GetDeviceDescriptor(pdev->dev_speed, &len);
 8006162:	f8d0 32b4 	ldr.w	r3, [r0, #692]	@ 0x2b4
 8006166:	f10d 0106 	add.w	r1, sp, #6
 800616a:	7c00      	ldrb	r0, [r0, #16]
 800616c:	681b      	ldr	r3, [r3, #0]
 800616e:	4798      	blx	r3
  if (err != 0U)
 8006170:	e7c0      	b.n	80060f4 <USBD_StdDevReq+0x1e4>
      switch ((uint8_t)(req->wValue))
 8006172:	b2d2      	uxtb	r2, r2
 8006174:	2a05      	cmp	r2, #5
 8006176:	f63f aed7 	bhi.w	8005f28 <USBD_StdDevReq+0x18>
 800617a:	e8df f002 	tbb	[pc, r2]
 800617e:	1b21      	.short	0x1b21
 8006180:	03090f15 	.word	0x03090f15
          if (pdev->pDesc->GetInterfaceStrDescriptor != NULL)
 8006184:	f8d0 32b4 	ldr.w	r3, [r0, #692]	@ 0x2b4
 8006188:	699b      	ldr	r3, [r3, #24]
 800618a:	2b00      	cmp	r3, #0
 800618c:	d1ae      	bne.n	80060ec <USBD_StdDevReq+0x1dc>
 800618e:	e6cb      	b.n	8005f28 <USBD_StdDevReq+0x18>
          if (pdev->pDesc->GetConfigurationStrDescriptor != NULL)
 8006190:	f8d0 32b4 	ldr.w	r3, [r0, #692]	@ 0x2b4
 8006194:	695b      	ldr	r3, [r3, #20]
 8006196:	2b00      	cmp	r3, #0
 8006198:	d1a8      	bne.n	80060ec <USBD_StdDevReq+0x1dc>
 800619a:	e6c5      	b.n	8005f28 <USBD_StdDevReq+0x18>
          if (pdev->pDesc->GetSerialStrDescriptor != NULL)
 800619c:	f8d0 32b4 	ldr.w	r3, [r0, #692]	@ 0x2b4
 80061a0:	691b      	ldr	r3, [r3, #16]
 80061a2:	2b00      	cmp	r3, #0
 80061a4:	d1a2      	bne.n	80060ec <USBD_StdDevReq+0x1dc>
 80061a6:	e6bf      	b.n	8005f28 <USBD_StdDevReq+0x18>
          if (pdev->pDesc->GetProductStrDescriptor != NULL)
 80061a8:	f8d0 32b4 	ldr.w	r3, [r0, #692]	@ 0x2b4
 80061ac:	68db      	ldr	r3, [r3, #12]
 80061ae:	2b00      	cmp	r3, #0
 80061b0:	d19c      	bne.n	80060ec <USBD_StdDevReq+0x1dc>
 80061b2:	e6b9      	b.n	8005f28 <USBD_StdDevReq+0x18>
          if (pdev->pDesc->GetManufacturerStrDescriptor != NULL)
 80061b4:	f8d0 32b4 	ldr.w	r3, [r0, #692]	@ 0x2b4
 80061b8:	689b      	ldr	r3, [r3, #8]
 80061ba:	2b00      	cmp	r3, #0
 80061bc:	d196      	bne.n	80060ec <USBD_StdDevReq+0x1dc>
 80061be:	e6b3      	b.n	8005f28 <USBD_StdDevReq+0x18>
          if (pdev->pDesc->GetLangIDStrDescriptor != NULL)
 80061c0:	f8d0 32b4 	ldr.w	r3, [r0, #692]	@ 0x2b4
 80061c4:	685b      	ldr	r3, [r3, #4]
 80061c6:	2b00      	cmp	r3, #0
 80061c8:	d190      	bne.n	80060ec <USBD_StdDevReq+0x1dc>
 80061ca:	e6ad      	b.n	8005f28 <USBD_StdDevReq+0x18>
        pdev->dev_state = USBD_STATE_ADDRESSED;
 80061cc:	2302      	movs	r3, #2
        pdev->dev_config = cfgidx;
 80061ce:	6041      	str	r1, [r0, #4]
        pdev->dev_state = USBD_STATE_ADDRESSED;
 80061d0:	f880 329c 	strb.w	r3, [r0, #668]	@ 0x29c
        (void)USBD_ClrClassConfig(pdev, cfgidx);
 80061d4:	f7ff fd10 	bl	8005bf8 <USBD_ClrClassConfig>
        (void)USBD_CtlSendStatus(pdev);
 80061d8:	4620      	mov	r0, r4
 80061da:	f000 f9a9 	bl	8006530 <USBD_CtlSendStatus>
 80061de:	e6ab      	b.n	8005f38 <USBD_StdDevReq+0x28>
    switch (pdev->dev_state)
 80061e0:	2b03      	cmp	r3, #3
 80061e2:	f47f aea1 	bne.w	8005f28 <USBD_StdDevReq+0x18>
        (void)USBD_CtlSendData(pdev, (uint8_t *)&pdev->dev_config, 1U);
 80061e6:	1d01      	adds	r1, r0, #4
 80061e8:	f000 f980 	bl	80064ec <USBD_CtlSendData>
        break;
 80061ec:	e6a4      	b.n	8005f38 <USBD_StdDevReq+0x28>
      if (cfgidx == 0U)
 80061ee:	2900      	cmp	r1, #0
 80061f0:	d0ec      	beq.n	80061cc <USBD_StdDevReq+0x2bc>
      else if (cfgidx != pdev->dev_config)
 80061f2:	6841      	ldr	r1, [r0, #4]
 80061f4:	2901      	cmp	r1, #1
 80061f6:	d0ef      	beq.n	80061d8 <USBD_StdDevReq+0x2c8>
        (void)USBD_ClrClassConfig(pdev, (uint8_t)pdev->dev_config);
 80061f8:	b2c9      	uxtb	r1, r1
 80061fa:	f7ff fcfd 	bl	8005bf8 <USBD_ClrClassConfig>
        pdev->dev_config = cfgidx;
 80061fe:	7829      	ldrb	r1, [r5, #0]
        ret = USBD_SetClassConfig(pdev, cfgidx);
 8006200:	4620      	mov	r0, r4
        pdev->dev_config = cfgidx;
 8006202:	6061      	str	r1, [r4, #4]
        ret = USBD_SetClassConfig(pdev, cfgidx);
 8006204:	f7ff fcf0 	bl	8005be8 <USBD_SetClassConfig>
        if (ret != USBD_OK)
 8006208:	4605      	mov	r5, r0
 800620a:	2800      	cmp	r0, #0
 800620c:	d0e4      	beq.n	80061d8 <USBD_StdDevReq+0x2c8>
  (void)USBD_LL_StallEP(pdev, 0x80U);
 800620e:	2180      	movs	r1, #128	@ 0x80
 8006210:	4620      	mov	r0, r4
 8006212:	f000 fc19 	bl	8006a48 <USBD_LL_StallEP>
  (void)USBD_LL_StallEP(pdev, 0U);
 8006216:	2100      	movs	r1, #0
 8006218:	4620      	mov	r0, r4
 800621a:	f000 fc15 	bl	8006a48 <USBD_LL_StallEP>
          (void)USBD_ClrClassConfig(pdev, (uint8_t)pdev->dev_config);
 800621e:	7921      	ldrb	r1, [r4, #4]
 8006220:	4620      	mov	r0, r4
 8006222:	f7ff fce9 	bl	8005bf8 <USBD_ClrClassConfig>
          pdev->dev_state = USBD_STATE_ADDRESSED;
 8006226:	2302      	movs	r3, #2
 8006228:	f884 329c 	strb.w	r3, [r4, #668]	@ 0x29c
 800622c:	e685      	b.n	8005f3a <USBD_StdDevReq+0x2a>
      if (cfgidx != 0U)
 800622e:	2900      	cmp	r1, #0
 8006230:	d0d2      	beq.n	80061d8 <USBD_StdDevReq+0x2c8>
        pdev->dev_config = cfgidx;
 8006232:	2101      	movs	r1, #1
 8006234:	6041      	str	r1, [r0, #4]
        ret = USBD_SetClassConfig(pdev, cfgidx);
 8006236:	f7ff fcd7 	bl	8005be8 <USBD_SetClassConfig>
        if (ret != USBD_OK)
 800623a:	4605      	mov	r5, r0
 800623c:	b1d8      	cbz	r0, 8006276 <USBD_StdDevReq+0x366>
  (void)USBD_LL_StallEP(pdev, 0x80U);
 800623e:	2180      	movs	r1, #128	@ 0x80
 8006240:	4620      	mov	r0, r4
 8006242:	f000 fc01 	bl	8006a48 <USBD_LL_StallEP>
  (void)USBD_LL_StallEP(pdev, 0U);
 8006246:	2100      	movs	r1, #0
 8006248:	4620      	mov	r0, r4
 800624a:	f000 fbfd 	bl	8006a48 <USBD_LL_StallEP>
          pdev->dev_state = USBD_STATE_ADDRESSED;
 800624e:	f884 629c 	strb.w	r6, [r4, #668]	@ 0x29c
 8006252:	e672      	b.n	8005f3a <USBD_StdDevReq+0x2a>
  (void)USBD_LL_StallEP(pdev, 0x80U);
 8006254:	2180      	movs	r1, #128	@ 0x80
 8006256:	f000 fbf7 	bl	8006a48 <USBD_LL_StallEP>
  (void)USBD_LL_StallEP(pdev, 0U);
 800625a:	2100      	movs	r1, #0
 800625c:	4620      	mov	r0, r4
 800625e:	f000 fbf3 	bl	8006a48 <USBD_LL_StallEP>
    return USBD_FAIL;
 8006262:	e6ad      	b.n	8005fc0 <USBD_StdDevReq+0xb0>
 8006264:	2400023c 	.word	0x2400023c
          pbuf = (uint8_t *)pdev->pClass[0]->GetFSConfigDescriptor(&len);
 8006268:	6adb      	ldr	r3, [r3, #44]	@ 0x2c
 800626a:	f10d 0006 	add.w	r0, sp, #6
 800626e:	4798      	blx	r3
        pbuf[1] = USB_DESC_TYPE_CONFIGURATION;
 8006270:	2302      	movs	r3, #2
 8006272:	7043      	strb	r3, [r0, #1]
  if (err != 0U)
 8006274:	e73e      	b.n	80060f4 <USBD_StdDevReq+0x1e4>
          (void)USBD_CtlSendStatus(pdev);
 8006276:	4620      	mov	r0, r4
 8006278:	f000 f95a 	bl	8006530 <USBD_CtlSendStatus>
          pdev->dev_state = USBD_STATE_CONFIGURED;
 800627c:	2303      	movs	r3, #3
 800627e:	f884 329c 	strb.w	r3, [r4, #668]	@ 0x29c
 8006282:	e659      	b.n	8005f38 <USBD_StdDevReq+0x28>
        pdev->dev_state = USBD_STATE_DEFAULT;
 8006284:	2301      	movs	r3, #1
 8006286:	f884 329c 	strb.w	r3, [r4, #668]	@ 0x29c
 800628a:	e655      	b.n	8005f38 <USBD_StdDevReq+0x28>

0800628c <USBD_StdItfReq>:
{
 800628c:	b538      	push	{r3, r4, r5, lr}
  switch (req->bmRequest & USB_REQ_TYPE_MASK)
 800628e:	780b      	ldrb	r3, [r1, #0]
{
 8006290:	460d      	mov	r5, r1
 8006292:	4604      	mov	r4, r0
  switch (req->bmRequest & USB_REQ_TYPE_MASK)
 8006294:	065a      	lsls	r2, r3, #25
 8006296:	d50c      	bpl.n	80062b2 <USBD_StdItfReq+0x26>
 8006298:	f003 0260 	and.w	r2, r3, #96	@ 0x60
 800629c:	2a40      	cmp	r2, #64	@ 0x40
 800629e:	d008      	beq.n	80062b2 <USBD_StdItfReq+0x26>
  (void)USBD_LL_StallEP(pdev, 0x80U);
 80062a0:	2180      	movs	r1, #128	@ 0x80
 80062a2:	f000 fbd1 	bl	8006a48 <USBD_LL_StallEP>
  (void)USBD_LL_StallEP(pdev, 0U);
 80062a6:	2100      	movs	r1, #0
 80062a8:	4620      	mov	r0, r4
 80062aa:	f000 fbcd 	bl	8006a48 <USBD_LL_StallEP>
  USBD_StatusTypeDef ret = USBD_OK;
 80062ae:	2000      	movs	r0, #0
}
 80062b0:	bd38      	pop	{r3, r4, r5, pc}
      switch (pdev->dev_state)
 80062b2:	f894 329c 	ldrb.w	r3, [r4, #668]	@ 0x29c
 80062b6:	3b01      	subs	r3, #1
 80062b8:	2b02      	cmp	r3, #2
 80062ba:	d802      	bhi.n	80062c2 <USBD_StdItfReq+0x36>
          if (LOBYTE(req->wIndex) <= USBD_MAX_NUM_INTERFACES)
 80062bc:	7929      	ldrb	r1, [r5, #4]
 80062be:	2901      	cmp	r1, #1
 80062c0:	d908      	bls.n	80062d4 <USBD_StdItfReq+0x48>
  (void)USBD_LL_StallEP(pdev, 0x80U);
 80062c2:	2180      	movs	r1, #128	@ 0x80
 80062c4:	4620      	mov	r0, r4
 80062c6:	f000 fbbf 	bl	8006a48 <USBD_LL_StallEP>
  (void)USBD_LL_StallEP(pdev, 0U);
 80062ca:	2100      	movs	r1, #0
 80062cc:	4620      	mov	r0, r4
 80062ce:	f000 fbbb 	bl	8006a48 <USBD_LL_StallEP>
}
 80062d2:	e7ec      	b.n	80062ae <USBD_StdItfReq+0x22>
            idx = USBD_CoreFindIF(pdev, LOBYTE(req->wIndex));
 80062d4:	4620      	mov	r0, r4
 80062d6:	f7ff fe01 	bl	8005edc <USBD_CoreFindIF>
            if (((uint8_t)idx != 0xFFU) && (idx < USBD_MAX_SUPPORTED_CLASS))
 80062da:	b988      	cbnz	r0, 8006300 <USBD_StdItfReq+0x74>
              if (pdev->pClass[idx]->Setup != NULL)
 80062dc:	f8d4 32b8 	ldr.w	r3, [r4, #696]	@ 0x2b8
 80062e0:	689b      	ldr	r3, [r3, #8]
 80062e2:	b16b      	cbz	r3, 8006300 <USBD_StdItfReq+0x74>
                pdev->classId = idx;
 80062e4:	f8c4 02d4 	str.w	r0, [r4, #724]	@ 0x2d4
                ret = (USBD_StatusTypeDef)(pdev->pClass[idx]->Setup(pdev, req));
 80062e8:	4629      	mov	r1, r5
 80062ea:	4620      	mov	r0, r4
 80062ec:	4798      	blx	r3
            if ((req->wLength == 0U) && (ret == USBD_OK))
 80062ee:	88ea      	ldrh	r2, [r5, #6]
 80062f0:	2a00      	cmp	r2, #0
 80062f2:	d1dd      	bne.n	80062b0 <USBD_StdItfReq+0x24>
 80062f4:	2800      	cmp	r0, #0
 80062f6:	d1db      	bne.n	80062b0 <USBD_StdItfReq+0x24>
              (void)USBD_CtlSendStatus(pdev);
 80062f8:	4620      	mov	r0, r4
 80062fa:	f000 f919 	bl	8006530 <USBD_CtlSendStatus>
 80062fe:	e7d6      	b.n	80062ae <USBD_StdItfReq+0x22>
                ret = USBD_FAIL;
 8006300:	2003      	movs	r0, #3
}
 8006302:	bd38      	pop	{r3, r4, r5, pc}

08006304 <USBD_StdEPReq>:
{
 8006304:	b530      	push	{r4, r5, lr}
 8006306:	460c      	mov	r4, r1
  ep_addr = LOBYTE(req->wIndex);
 8006308:	888a      	ldrh	r2, [r1, #4]
{
 800630a:	b083      	sub	sp, #12
 800630c:	4605      	mov	r5, r0
  ep_addr = LOBYTE(req->wIndex);
 800630e:	7823      	ldrb	r3, [r4, #0]
 8006310:	b2d1      	uxtb	r1, r2
  switch (req->bmRequest & USB_REQ_TYPE_MASK)
 8006312:	f003 0360 	and.w	r3, r3, #96	@ 0x60
 8006316:	2b20      	cmp	r3, #32
 8006318:	d01f      	beq.n	800635a <USBD_StdEPReq+0x56>
 800631a:	2b40      	cmp	r3, #64	@ 0x40
 800631c:	d01d      	beq.n	800635a <USBD_StdEPReq+0x56>
 800631e:	b373      	cbz	r3, 800637e <USBD_StdEPReq+0x7a>
  (void)USBD_LL_StallEP(pdev, 0x80U);
 8006320:	2180      	movs	r1, #128	@ 0x80
 8006322:	4628      	mov	r0, r5
 8006324:	f000 fb90 	bl	8006a48 <USBD_LL_StallEP>
  (void)USBD_LL_StallEP(pdev, 0U);
 8006328:	2100      	movs	r1, #0
 800632a:	4628      	mov	r0, r5
 800632c:	f000 fb8c 	bl	8006a48 <USBD_LL_StallEP>
}
 8006330:	2000      	movs	r0, #0
 8006332:	b003      	add	sp, #12
 8006334:	bd30      	pop	{r4, r5, pc}
          switch (pdev->dev_state)
 8006336:	f890 329c 	ldrb.w	r3, [r0, #668]	@ 0x29c
 800633a:	2b02      	cmp	r3, #2
 800633c:	b2da      	uxtb	r2, r3
 800633e:	d05b      	beq.n	80063f8 <USBD_StdEPReq+0xf4>
 8006340:	2a03      	cmp	r2, #3
 8006342:	d1ed      	bne.n	8006320 <USBD_StdEPReq+0x1c>
              if (req->wValue == USB_FEATURE_EP_HALT)
 8006344:	8863      	ldrh	r3, [r4, #2]
 8006346:	2b00      	cmp	r3, #0
 8006348:	d1f2      	bne.n	8006330 <USBD_StdEPReq+0x2c>
                if ((ep_addr & 0x7FU) != 0x00U)
 800634a:	064b      	lsls	r3, r1, #25
 800634c:	f040 8081 	bne.w	8006452 <USBD_StdEPReq+0x14e>
                (void)USBD_CtlSendStatus(pdev);
 8006350:	4628      	mov	r0, r5
 8006352:	9101      	str	r1, [sp, #4]
 8006354:	f000 f8ec 	bl	8006530 <USBD_CtlSendStatus>
                idx = USBD_CoreFindEP(pdev, ep_addr);
 8006358:	9901      	ldr	r1, [sp, #4]
 800635a:	4628      	mov	r0, r5
 800635c:	f7ff fdc0 	bl	8005ee0 <USBD_CoreFindEP>
                if (((uint8_t)idx != 0xFFU) && (idx < USBD_MAX_SUPPORTED_CLASS))
 8006360:	2800      	cmp	r0, #0
 8006362:	d1e5      	bne.n	8006330 <USBD_StdEPReq+0x2c>
                  if (pdev->pClass[idx]->Setup != NULL)
 8006364:	f8d5 32b8 	ldr.w	r3, [r5, #696]	@ 0x2b8
                  pdev->classId = idx;
 8006368:	f8c5 02d4 	str.w	r0, [r5, #724]	@ 0x2d4
                  if (pdev->pClass[idx]->Setup != NULL)
 800636c:	689b      	ldr	r3, [r3, #8]
 800636e:	2b00      	cmp	r3, #0
 8006370:	d0de      	beq.n	8006330 <USBD_StdEPReq+0x2c>
                    ret = (USBD_StatusTypeDef)(pdev->pClass[idx]->Setup(pdev, req));
 8006372:	4621      	mov	r1, r4
 8006374:	4628      	mov	r0, r5
}
 8006376:	b003      	add	sp, #12
 8006378:	e8bd 4030 	ldmia.w	sp!, {r4, r5, lr}
                    ret = (USBD_StatusTypeDef)(pdev->pClass[idx]->Setup(pdev, req));
 800637c:	4718      	bx	r3
      switch (req->bRequest)
 800637e:	7863      	ldrb	r3, [r4, #1]
 8006380:	2b01      	cmp	r3, #1
 8006382:	d0d8      	beq.n	8006336 <USBD_StdEPReq+0x32>
 8006384:	2b03      	cmp	r3, #3
 8006386:	d025      	beq.n	80063d4 <USBD_StdEPReq+0xd0>
 8006388:	2b00      	cmp	r3, #0
 800638a:	d1c9      	bne.n	8006320 <USBD_StdEPReq+0x1c>
          switch (pdev->dev_state)
 800638c:	f890 329c 	ldrb.w	r3, [r0, #668]	@ 0x29c
 8006390:	2b02      	cmp	r3, #2
 8006392:	b2d8      	uxtb	r0, r3
 8006394:	d039      	beq.n	800640a <USBD_StdEPReq+0x106>
 8006396:	2803      	cmp	r0, #3
 8006398:	d1c2      	bne.n	8006320 <USBD_StdEPReq+0x1c>
                if (pdev->ep_in[ep_addr & 0xFU].is_used == 0U)
 800639a:	f001 030f 	and.w	r3, r1, #15
              if ((ep_addr & 0x80U) == 0x80U)
 800639e:	0612      	lsls	r2, r2, #24
                if (pdev->ep_in[ep_addr & 0xFU].is_used == 0U)
 80063a0:	eb03 0383 	add.w	r3, r3, r3, lsl #2
 80063a4:	eb05 0383 	add.w	r3, r5, r3, lsl #2
              if ((ep_addr & 0x80U) == 0x80U)
 80063a8:	d440      	bmi.n	800642c <USBD_StdEPReq+0x128>
                if (pdev->ep_out[ep_addr & 0xFU].is_used == 0U)
 80063aa:	f8b3 3164 	ldrh.w	r3, [r3, #356]	@ 0x164
 80063ae:	2b00      	cmp	r3, #0
 80063b0:	d0b6      	beq.n	8006320 <USBD_StdEPReq+0x1c>
              pep = ((ep_addr & 0x80U) == 0x80U) ? &pdev->ep_in[ep_addr & 0x7FU] : \
 80063b2:	f001 037f 	and.w	r3, r1, #127	@ 0x7f
 80063b6:	2414      	movs	r4, #20
 80063b8:	fb04 5403 	mla	r4, r4, r3, r5
 80063bc:	f504 74aa 	add.w	r4, r4, #340	@ 0x154
              if ((ep_addr == 0x00U) || (ep_addr == 0x80U))
 80063c0:	2b00      	cmp	r3, #0
 80063c2:	d13f      	bne.n	8006444 <USBD_StdEPReq+0x140>
{
 80063c4:	2300      	movs	r3, #0
              (void)USBD_CtlSendData(pdev, (uint8_t *)&pep->status, 2U);
 80063c6:	2202      	movs	r2, #2
 80063c8:	4621      	mov	r1, r4
 80063ca:	4628      	mov	r0, r5
                pep->status = 0x0000U;
 80063cc:	6023      	str	r3, [r4, #0]
              (void)USBD_CtlSendData(pdev, (uint8_t *)&pep->status, 2U);
 80063ce:	f000 f88d 	bl	80064ec <USBD_CtlSendData>
              break;
 80063d2:	e7ad      	b.n	8006330 <USBD_StdEPReq+0x2c>
          switch (pdev->dev_state)
 80063d4:	f890 329c 	ldrb.w	r3, [r0, #668]	@ 0x29c
 80063d8:	2b02      	cmp	r3, #2
 80063da:	b2da      	uxtb	r2, r3
 80063dc:	d00c      	beq.n	80063f8 <USBD_StdEPReq+0xf4>
 80063de:	2a03      	cmp	r2, #3
 80063e0:	d19e      	bne.n	8006320 <USBD_StdEPReq+0x1c>
              if (req->wValue == USB_FEATURE_EP_HALT)
 80063e2:	8863      	ldrh	r3, [r4, #2]
 80063e4:	b923      	cbnz	r3, 80063f0 <USBD_StdEPReq+0xec>
                if ((ep_addr != 0x00U) && (ep_addr != 0x80U) && (req->wLength == 0x00U))
 80063e6:	0648      	lsls	r0, r1, #25
 80063e8:	d002      	beq.n	80063f0 <USBD_StdEPReq+0xec>
 80063ea:	88e3      	ldrh	r3, [r4, #6]
 80063ec:	2b00      	cmp	r3, #0
 80063ee:	d035      	beq.n	800645c <USBD_StdEPReq+0x158>
              (void)USBD_CtlSendStatus(pdev);
 80063f0:	4628      	mov	r0, r5
 80063f2:	f000 f89d 	bl	8006530 <USBD_CtlSendStatus>
              break;
 80063f6:	e79b      	b.n	8006330 <USBD_StdEPReq+0x2c>
              if ((ep_addr != 0x00U) && (ep_addr != 0x80U))
 80063f8:	064a      	lsls	r2, r1, #25
 80063fa:	d091      	beq.n	8006320 <USBD_StdEPReq+0x1c>
                (void)USBD_LL_StallEP(pdev, ep_addr);
 80063fc:	f000 fb24 	bl	8006a48 <USBD_LL_StallEP>
                (void)USBD_LL_StallEP(pdev, 0x80U);
 8006400:	2180      	movs	r1, #128	@ 0x80
 8006402:	4628      	mov	r0, r5
 8006404:	f000 fb20 	bl	8006a48 <USBD_LL_StallEP>
 8006408:	e792      	b.n	8006330 <USBD_StdEPReq+0x2c>
              if ((ep_addr != 0x00U) && (ep_addr != 0x80U))
 800640a:	0648      	lsls	r0, r1, #25
 800640c:	d188      	bne.n	8006320 <USBD_StdEPReq+0x1c>
              pep = ((ep_addr & 0x80U) == 0x80U) ? &pdev->ep_in[ep_addr & 0x7FU] : \
 800640e:	0611      	lsls	r1, r2, #24
              pep->status = 0x0000U;
 8006410:	f04f 0300 	mov.w	r3, #0
              (void)USBD_CtlSendData(pdev, (uint8_t *)&pep->status, 2U);
 8006414:	f04f 0202 	mov.w	r2, #2
 8006418:	4628      	mov	r0, r5
              pep = ((ep_addr & 0x80U) == 0x80U) ? &pdev->ep_in[ep_addr & 0x7FU] : \
 800641a:	bf4c      	ite	mi
 800641c:	f105 0114 	addmi.w	r1, r5, #20
 8006420:	f505 71aa 	addpl.w	r1, r5, #340	@ 0x154
              pep->status = 0x0000U;
 8006424:	600b      	str	r3, [r1, #0]
              (void)USBD_CtlSendData(pdev, (uint8_t *)&pep->status, 2U);
 8006426:	f000 f861 	bl	80064ec <USBD_CtlSendData>
              break;
 800642a:	e781      	b.n	8006330 <USBD_StdEPReq+0x2c>
                if (pdev->ep_in[ep_addr & 0xFU].is_used == 0U)
 800642c:	8c9b      	ldrh	r3, [r3, #36]	@ 0x24
 800642e:	2b00      	cmp	r3, #0
 8006430:	f43f af76 	beq.w	8006320 <USBD_StdEPReq+0x1c>
              pep = ((ep_addr & 0x80U) == 0x80U) ? &pdev->ep_in[ep_addr & 0x7FU] : \
 8006434:	f001 037f 	and.w	r3, r1, #127	@ 0x7f
 8006438:	1c5c      	adds	r4, r3, #1
 800643a:	eb04 0484 	add.w	r4, r4, r4, lsl #2
 800643e:	eb05 0484 	add.w	r4, r5, r4, lsl #2
 8006442:	e7bd      	b.n	80063c0 <USBD_StdEPReq+0xbc>
              else if (USBD_LL_IsStallEP(pdev, ep_addr) != 0U)
 8006444:	4628      	mov	r0, r5
 8006446:	f000 fb17 	bl	8006a78 <USBD_LL_IsStallEP>
 800644a:	2800      	cmp	r0, #0
 800644c:	d0ba      	beq.n	80063c4 <USBD_StdEPReq+0xc0>
 800644e:	2301      	movs	r3, #1
 8006450:	e7b9      	b.n	80063c6 <USBD_StdEPReq+0xc2>
                  (void)USBD_LL_ClearStallEP(pdev, ep_addr);
 8006452:	9101      	str	r1, [sp, #4]
 8006454:	f000 fb04 	bl	8006a60 <USBD_LL_ClearStallEP>
 8006458:	9901      	ldr	r1, [sp, #4]
 800645a:	e779      	b.n	8006350 <USBD_StdEPReq+0x4c>
                  (void)USBD_LL_StallEP(pdev, ep_addr);
 800645c:	4628      	mov	r0, r5
 800645e:	f000 faf3 	bl	8006a48 <USBD_LL_StallEP>
 8006462:	e7c5      	b.n	80063f0 <USBD_StdEPReq+0xec>

08006464 <USBD_ParseSetupRequest>:
  req->bmRequest = *(uint8_t *)(pbuff);
 8006464:	780b      	ldrb	r3, [r1, #0]
 8006466:	7003      	strb	r3, [r0, #0]
  req->bRequest = *(uint8_t *)(pbuff);
 8006468:	784b      	ldrb	r3, [r1, #1]
 800646a:	7043      	strb	r3, [r0, #1]
  req->wValue = SWAPBYTE(pbuff);
 800646c:	884b      	ldrh	r3, [r1, #2]
 800646e:	8043      	strh	r3, [r0, #2]
  req->wIndex = SWAPBYTE(pbuff);
 8006470:	888b      	ldrh	r3, [r1, #4]
 8006472:	8083      	strh	r3, [r0, #4]
  req->wLength = SWAPBYTE(pbuff);
 8006474:	88cb      	ldrh	r3, [r1, #6]
 8006476:	80c3      	strh	r3, [r0, #6]
}
 8006478:	4770      	bx	lr
 800647a:	bf00      	nop

0800647c <USBD_CtlError>:
{
 800647c:	b510      	push	{r4, lr}
 800647e:	4604      	mov	r4, r0
  (void)USBD_LL_StallEP(pdev, 0x80U);
 8006480:	2180      	movs	r1, #128	@ 0x80
 8006482:	f000 fae1 	bl	8006a48 <USBD_LL_StallEP>
  (void)USBD_LL_StallEP(pdev, 0U);
 8006486:	2100      	movs	r1, #0
 8006488:	4620      	mov	r0, r4
}
 800648a:	e8bd 4010 	ldmia.w	sp!, {r4, lr}
  (void)USBD_LL_StallEP(pdev, 0U);
 800648e:	f000 badb 	b.w	8006a48 <USBD_LL_StallEP>
 8006492:	bf00      	nop

08006494 <USBD_GetString>:
void USBD_GetString(uint8_t *desc, uint8_t *unicode, uint16_t *len)
{
  uint8_t idx = 0U;
  uint8_t *pdesc;

  if (desc == NULL)
 8006494:	b330      	cbz	r0, 80064e4 <USBD_GetString+0x50>
{
 8006496:	b570      	push	{r4, r5, r6, lr}
static uint8_t USBD_GetLen(uint8_t *buf)
{
  uint8_t  len = 0U;
  uint8_t *pbuff = buf;

  while (*pbuff != (uint8_t)'\0')
 8006498:	7803      	ldrb	r3, [r0, #0]
 800649a:	460e      	mov	r6, r1
 800649c:	4605      	mov	r5, r0
 800649e:	4614      	mov	r4, r2
 80064a0:	b30b      	cbz	r3, 80064e6 <USBD_GetString+0x52>
 80064a2:	4603      	mov	r3, r0
 80064a4:	f813 1f01 	ldrb.w	r1, [r3, #1]!
 80064a8:	2900      	cmp	r1, #0
 80064aa:	d1fb      	bne.n	80064a4 <USBD_GetString+0x10>
 80064ac:	1c68      	adds	r0, r5, #1
 80064ae:	f7f9 ff2f 	bl	8000310 <strlen>
  *len = MIN(USBD_MAX_STR_DESC_SIZ, ((uint16_t)USBD_GetLen(pdesc) * 2U) + 2U);
 80064b2:	1c43      	adds	r3, r0, #1
 80064b4:	b2db      	uxtb	r3, r3
 80064b6:	3301      	adds	r3, #1
 80064b8:	005b      	lsls	r3, r3, #1
 80064ba:	b2da      	uxtb	r2, r3
 80064bc:	8023      	strh	r3, [r4, #0]
  unicode[idx] = USB_DESC_TYPE_STRING;
 80064be:	2303      	movs	r3, #3
  unicode[idx] = *(uint8_t *)len;
 80064c0:	7032      	strb	r2, [r6, #0]
  unicode[idx] = USB_DESC_TYPE_STRING;
 80064c2:	7073      	strb	r3, [r6, #1]
  while (*pdesc != (uint8_t)'\0')
 80064c4:	782c      	ldrb	r4, [r5, #0]
 80064c6:	b164      	cbz	r4, 80064e2 <USBD_GetString+0x4e>
 80064c8:	4628      	mov	r0, r5
  idx++;
 80064ca:	2302      	movs	r3, #2
    unicode[idx] = 0U;
 80064cc:	2100      	movs	r1, #0
    idx++;
 80064ce:	1c5a      	adds	r2, r3, #1
    unicode[idx] = *pdesc;
 80064d0:	54f4      	strb	r4, [r6, r3]
    idx++;
 80064d2:	3302      	adds	r3, #2
    unicode[idx] = 0U;
 80064d4:	b2d2      	uxtb	r2, r2
    idx++;
 80064d6:	b2db      	uxtb	r3, r3
    unicode[idx] = 0U;
 80064d8:	54b1      	strb	r1, [r6, r2]
  while (*pdesc != (uint8_t)'\0')
 80064da:	f810 4f01 	ldrb.w	r4, [r0, #1]!
 80064de:	2c00      	cmp	r4, #0
 80064e0:	d1f5      	bne.n	80064ce <USBD_GetString+0x3a>
}
 80064e2:	bd70      	pop	{r4, r5, r6, pc}
 80064e4:	4770      	bx	lr
  while (*pbuff != (uint8_t)'\0')
 80064e6:	2202      	movs	r2, #2
 80064e8:	4613      	mov	r3, r2
 80064ea:	e7e7      	b.n	80064bc <USBD_GetString+0x28>

080064ec <USBD_CtlSendData>:
  * @param  len: length of data to be sent
  * @retval status
  */
USBD_StatusTypeDef USBD_CtlSendData(USBD_HandleTypeDef *pdev,
                                    uint8_t *pbuf, uint32_t len)
{
 80064ec:	b510      	push	{r4, lr}
 80064ee:	4613      	mov	r3, r2
  /* Set EP0 State */
  pdev->ep0_state = USBD_EP0_DATA_IN;
 80064f0:	2402      	movs	r4, #2
{
 80064f2:	460a      	mov	r2, r1
#else
  pdev->ep_in[0].rem_length = len;
#endif /* USBD_AVOID_PACKET_SPLIT_MPS */

  /* Start the transfer */
  (void)USBD_LL_Transmit(pdev, 0x00U, pbuf, len);
 80064f4:	2100      	movs	r1, #0
  pdev->ep0_state = USBD_EP0_DATA_IN;
 80064f6:	f8c0 4294 	str.w	r4, [r0, #660]	@ 0x294
  pdev->ep_in[0].total_length = len;
 80064fa:	e9c0 3306 	strd	r3, r3, [r0, #24]
  (void)USBD_LL_Transmit(pdev, 0x00U, pbuf, len);
 80064fe:	f000 fadb 	bl	8006ab8 <USBD_LL_Transmit>

  return USBD_OK;
}
 8006502:	2000      	movs	r0, #0
 8006504:	bd10      	pop	{r4, pc}
 8006506:	bf00      	nop

08006508 <USBD_CtlContinueSendData>:
  * @param  len: length of data to be sent
  * @retval status
  */
USBD_StatusTypeDef USBD_CtlContinueSendData(USBD_HandleTypeDef *pdev,
                                            uint8_t *pbuf, uint32_t len)
{
 8006508:	468c      	mov	ip, r1
  /* Start the next transfer */
  (void)USBD_LL_Transmit(pdev, 0x00U, pbuf, len);
 800650a:	2100      	movs	r1, #0
{
 800650c:	b508      	push	{r3, lr}
 800650e:	4613      	mov	r3, r2
  (void)USBD_LL_Transmit(pdev, 0x00U, pbuf, len);
 8006510:	4662      	mov	r2, ip
 8006512:	f000 fad1 	bl	8006ab8 <USBD_LL_Transmit>

  return USBD_OK;
}
 8006516:	2000      	movs	r0, #0
 8006518:	bd08      	pop	{r3, pc}
 800651a:	bf00      	nop

0800651c <USBD_CtlContinueRx>:
  * @param  len: length of data to be received
  * @retval status
  */
USBD_StatusTypeDef USBD_CtlContinueRx(USBD_HandleTypeDef *pdev,
                                      uint8_t *pbuf, uint32_t len)
{
 800651c:	468c      	mov	ip, r1
  (void)USBD_LL_PrepareReceive(pdev, 0U, pbuf, len);
 800651e:	2100      	movs	r1, #0
{
 8006520:	b508      	push	{r3, lr}
 8006522:	4613      	mov	r3, r2
  (void)USBD_LL_PrepareReceive(pdev, 0U, pbuf, len);
 8006524:	4662      	mov	r2, ip
 8006526:	f000 fad3 	bl	8006ad0 <USBD_LL_PrepareReceive>

  return USBD_OK;
}
 800652a:	2000      	movs	r0, #0
 800652c:	bd08      	pop	{r3, pc}
 800652e:	bf00      	nop

08006530 <USBD_CtlSendStatus>:
{
  /* Set EP0 State */
  pdev->ep0_state = USBD_EP0_STATUS_IN;

  /* Start the transfer */
  (void)USBD_LL_Transmit(pdev, 0x00U, NULL, 0U);
 8006530:	2300      	movs	r3, #0
{
 8006532:	b510      	push	{r4, lr}
  pdev->ep0_state = USBD_EP0_STATUS_IN;
 8006534:	2404      	movs	r4, #4
  (void)USBD_LL_Transmit(pdev, 0x00U, NULL, 0U);
 8006536:	461a      	mov	r2, r3
 8006538:	4619      	mov	r1, r3
  pdev->ep0_state = USBD_EP0_STATUS_IN;
 800653a:	f8c0 4294 	str.w	r4, [r0, #660]	@ 0x294
  (void)USBD_LL_Transmit(pdev, 0x00U, NULL, 0U);
 800653e:	f000 fabb 	bl	8006ab8 <USBD_LL_Transmit>

  return USBD_OK;
}
 8006542:	2000      	movs	r0, #0
 8006544:	bd10      	pop	{r4, pc}
 8006546:	bf00      	nop

08006548 <USBD_CtlReceiveStatus>:
{
  /* Set EP0 State */
  pdev->ep0_state = USBD_EP0_STATUS_OUT;

  /* Start the transfer */
  (void)USBD_LL_PrepareReceive(pdev, 0U, NULL, 0U);
 8006548:	2300      	movs	r3, #0
{
 800654a:	b510      	push	{r4, lr}
  pdev->ep0_state = USBD_EP0_STATUS_OUT;
 800654c:	2405      	movs	r4, #5
  (void)USBD_LL_PrepareReceive(pdev, 0U, NULL, 0U);
 800654e:	461a      	mov	r2, r3
 8006550:	4619      	mov	r1, r3
  pdev->ep0_state = USBD_EP0_STATUS_OUT;
 8006552:	f8c0 4294 	str.w	r4, [r0, #660]	@ 0x294
  (void)USBD_LL_PrepareReceive(pdev, 0U, NULL, 0U);
 8006556:	f000 fabb 	bl	8006ad0 <USBD_LL_PrepareReceive>

  return USBD_OK;
}
 800655a:	2000      	movs	r0, #0
 800655c:	bd10      	pop	{r4, pc}
 800655e:	bf00      	nop

08006560 <MX_USB_DEVICE_Init>:
/**
  * Init USB device Library, add supported class and start the library
  * @retval None
  */
void MX_USB_DEVICE_Init(void)
{
 8006560:	b508      	push	{r3, lr}
  /* USER CODE BEGIN USB_DEVICE_Init_PreTreatment */

  /* USER CODE END USB_DEVICE_Init_PreTreatment */

  /* Init Device Library, add supported class and start the library. */
  if (USBD_Init(&hUsbDeviceHS, &HS_Desc, DEVICE_HS) != USBD_OK)
 8006562:	2201      	movs	r2, #1
 8006564:	4913      	ldr	r1, [pc, #76]	@ (80065b4 <MX_USB_DEVICE_Init+0x54>)
 8006566:	4814      	ldr	r0, [pc, #80]	@ (80065b8 <MX_USB_DEVICE_Init+0x58>)
 8006568:	f7ff fb0c 	bl	8005b84 <USBD_Init>
 800656c:	b960      	cbnz	r0, 8006588 <MX_USB_DEVICE_Init+0x28>
  {
    Error_Handler();
  }
  if (USBD_RegisterClass(&hUsbDeviceHS, &USBD_HID) != USBD_OK)
 800656e:	4913      	ldr	r1, [pc, #76]	@ (80065bc <MX_USB_DEVICE_Init+0x5c>)
 8006570:	4811      	ldr	r0, [pc, #68]	@ (80065b8 <MX_USB_DEVICE_Init+0x58>)
 8006572:	f7ff fb1b 	bl	8005bac <USBD_RegisterClass>
 8006576:	b978      	cbnz	r0, 8006598 <MX_USB_DEVICE_Init+0x38>
  {
    Error_Handler();
  }
  if (USBD_Start(&hUsbDeviceHS) != USBD_OK)
 8006578:	480f      	ldr	r0, [pc, #60]	@ (80065b8 <MX_USB_DEVICE_Init+0x58>)
 800657a:	f7ff fb33 	bl	8005be4 <USBD_Start>
 800657e:	b990      	cbnz	r0, 80065a6 <MX_USB_DEVICE_Init+0x46>

  /* USER CODE BEGIN USB_DEVICE_Init_PostTreatment */
  HAL_PWREx_EnableUSBVoltageDetector();

  /* USER CODE END USB_DEVICE_Init_PostTreatment */
}
 8006580:	e8bd 4008 	ldmia.w	sp!, {r3, lr}
  HAL_PWREx_EnableUSBVoltageDetector();
 8006584:	f7fc b86e 	b.w	8002664 <HAL_PWREx_EnableUSBVoltageDetector>
    Error_Handler();
 8006588:	f7fa fada 	bl	8000b40 <Error_Handler>
  if (USBD_RegisterClass(&hUsbDeviceHS, &USBD_HID) != USBD_OK)
 800658c:	490b      	ldr	r1, [pc, #44]	@ (80065bc <MX_USB_DEVICE_Init+0x5c>)
 800658e:	480a      	ldr	r0, [pc, #40]	@ (80065b8 <MX_USB_DEVICE_Init+0x58>)
 8006590:	f7ff fb0c 	bl	8005bac <USBD_RegisterClass>
 8006594:	2800      	cmp	r0, #0
 8006596:	d0ef      	beq.n	8006578 <MX_USB_DEVICE_Init+0x18>
    Error_Handler();
 8006598:	f7fa fad2 	bl	8000b40 <Error_Handler>
  if (USBD_Start(&hUsbDeviceHS) != USBD_OK)
 800659c:	4806      	ldr	r0, [pc, #24]	@ (80065b8 <MX_USB_DEVICE_Init+0x58>)
 800659e:	f7ff fb21 	bl	8005be4 <USBD_Start>
 80065a2:	2800      	cmp	r0, #0
 80065a4:	d0ec      	beq.n	8006580 <MX_USB_DEVICE_Init+0x20>
    Error_Handler();
 80065a6:	f7fa facb 	bl	8000b40 <Error_Handler>
}
 80065aa:	e8bd 4008 	ldmia.w	sp!, {r3, lr}
  HAL_PWREx_EnableUSBVoltageDetector();
 80065ae:	f7fc b859 	b.w	8002664 <HAL_PWREx_EnableUSBVoltageDetector>
 80065b2:	bf00      	nop
 80065b4:	240000f8 	.word	0x240000f8
 80065b8:	24000240 	.word	0x24000240
 80065bc:	2400008c 	.word	0x2400008c

080065c0 <USBD_HS_DeviceDescriptor>:
  * @retval Pointer to descriptor buffer
  */
uint8_t * USBD_HS_DeviceDescriptor(USBD_SpeedTypeDef speed, uint16_t *length)
{
  UNUSED(speed);
  *length = sizeof(USBD_HS_DeviceDesc);
 80065c0:	2312      	movs	r3, #18
  return USBD_HS_DeviceDesc;
}
 80065c2:	4801      	ldr	r0, [pc, #4]	@ (80065c8 <USBD_HS_DeviceDescriptor+0x8>)
  *length = sizeof(USBD_HS_DeviceDesc);
 80065c4:	800b      	strh	r3, [r1, #0]
}
 80065c6:	4770      	bx	lr
 80065c8:	240000e4 	.word	0x240000e4

080065cc <USBD_HS_LangIDStrDescriptor>:
  * @retval Pointer to descriptor buffer
  */
uint8_t * USBD_HS_LangIDStrDescriptor(USBD_SpeedTypeDef speed, uint16_t *length)
{
  UNUSED(speed);
  *length = sizeof(USBD_LangIDDesc);
 80065cc:	2304      	movs	r3, #4
  return USBD_LangIDDesc;
}
 80065ce:	4801      	ldr	r0, [pc, #4]	@ (80065d4 <USBD_HS_LangIDStrDescriptor+0x8>)
  *length = sizeof(USBD_LangIDDesc);
 80065d0:	800b      	strh	r3, [r1, #0]
}
 80065d2:	4770      	bx	lr
 80065d4:	240000e0 	.word	0x240000e0

080065d8 <USBD_HS_ManufacturerStrDescriptor>:
  * @param  speed : Current device speed
  * @param  length : Pointer to data length variable
  * @retval Pointer to descriptor buffer
  */
uint8_t * USBD_HS_ManufacturerStrDescriptor(USBD_SpeedTypeDef speed, uint16_t *length)
{
 80065d8:	b510      	push	{r4, lr}
  UNUSED(speed);
  USBD_GetString((uint8_t *)USBD_MANUFACTURER_STRING, USBD_StrDesc, length);
 80065da:	4c04      	ldr	r4, [pc, #16]	@ (80065ec <USBD_HS_ManufacturerStrDescriptor+0x14>)
{
 80065dc:	460a      	mov	r2, r1
  USBD_GetString((uint8_t *)USBD_MANUFACTURER_STRING, USBD_StrDesc, length);
 80065de:	4804      	ldr	r0, [pc, #16]	@ (80065f0 <USBD_HS_ManufacturerStrDescriptor+0x18>)
 80065e0:	4621      	mov	r1, r4
 80065e2:	f7ff ff57 	bl	8006494 <USBD_GetString>
  return USBD_StrDesc;
}
 80065e6:	4620      	mov	r0, r4
 80065e8:	bd10      	pop	{r4, pc}
 80065ea:	bf00      	nop
 80065ec:	2400051c 	.word	0x2400051c
 80065f0:	08007574 	.word	0x08007574

080065f4 <USBD_HS_ProductStrDescriptor>:
{
 80065f4:	b510      	push	{r4, lr}
    USBD_GetString((uint8_t *)USBD_PRODUCT_STRING_HS, USBD_StrDesc, length);
 80065f6:	4c04      	ldr	r4, [pc, #16]	@ (8006608 <USBD_HS_ProductStrDescriptor+0x14>)
{
 80065f8:	460a      	mov	r2, r1
    USBD_GetString((uint8_t *)USBD_PRODUCT_STRING_HS, USBD_StrDesc, length);
 80065fa:	4804      	ldr	r0, [pc, #16]	@ (800660c <USBD_HS_ProductStrDescriptor+0x18>)
 80065fc:	4621      	mov	r1, r4
 80065fe:	f7ff ff49 	bl	8006494 <USBD_GetString>
}
 8006602:	4620      	mov	r0, r4
 8006604:	bd10      	pop	{r4, pc}
 8006606:	bf00      	nop
 8006608:	2400051c 	.word	0x2400051c
 800660c:	08007588 	.word	0x08007588

08006610 <USBD_HS_ConfigStrDescriptor>:
  * @param  speed : Current device speed
  * @param  length : Pointer to data length variable
  * @retval Pointer to descriptor buffer
  */
uint8_t * USBD_HS_ConfigStrDescriptor(USBD_SpeedTypeDef speed, uint16_t *length)
{
 8006610:	b510      	push	{r4, lr}
  if(speed == USBD_SPEED_HIGH)
  {
    USBD_GetString((uint8_t *)USBD_CONFIGURATION_STRING_HS, USBD_StrDesc, length);
 8006612:	4c04      	ldr	r4, [pc, #16]	@ (8006624 <USBD_HS_ConfigStrDescriptor+0x14>)
{
 8006614:	460a      	mov	r2, r1
    USBD_GetString((uint8_t *)USBD_CONFIGURATION_STRING_HS, USBD_StrDesc, length);
 8006616:	4804      	ldr	r0, [pc, #16]	@ (8006628 <USBD_HS_ConfigStrDescriptor+0x18>)
 8006618:	4621      	mov	r1, r4
 800661a:	f7ff ff3b 	bl	8006494 <USBD_GetString>
  else
  {
    USBD_GetString((uint8_t *)USBD_CONFIGURATION_STRING_HS, USBD_StrDesc, length);
  }
  return USBD_StrDesc;
}
 800661e:	4620      	mov	r0, r4
 8006620:	bd10      	pop	{r4, pc}
 8006622:	bf00      	nop
 8006624:	2400051c 	.word	0x2400051c
 8006628:	080075a0 	.word	0x080075a0

0800662c <USBD_HS_InterfaceStrDescriptor>:
  * @param  speed : Current device speed
  * @param  length : Pointer to data length variable
  * @retval Pointer to descriptor buffer
  */
uint8_t * USBD_HS_InterfaceStrDescriptor(USBD_SpeedTypeDef speed, uint16_t *length)
{
 800662c:	b510      	push	{r4, lr}
  if(speed == 0)
  {
    USBD_GetString((uint8_t *)USBD_INTERFACE_STRING_HS, USBD_StrDesc, length);
 800662e:	4c04      	ldr	r4, [pc, #16]	@ (8006640 <USBD_HS_InterfaceStrDescriptor+0x14>)
{
 8006630:	460a      	mov	r2, r1
    USBD_GetString((uint8_t *)USBD_INTERFACE_STRING_HS, USBD_StrDesc, length);
 8006632:	4804      	ldr	r0, [pc, #16]	@ (8006644 <USBD_HS_InterfaceStrDescriptor+0x18>)
 8006634:	4621      	mov	r1, r4
 8006636:	f7ff ff2d 	bl	8006494 <USBD_GetString>
  else
  {
    USBD_GetString((uint8_t *)USBD_INTERFACE_STRING_HS, USBD_StrDesc, length);
  }
  return USBD_StrDesc;
}
 800663a:	4620      	mov	r0, r4
 800663c:	bd10      	pop	{r4, pc}
 800663e:	bf00      	nop
 8006640:	2400051c 	.word	0x2400051c
 8006644:	080075ac 	.word	0x080075ac

08006648 <USBD_HS_SerialStrDescriptor>:
{
  uint32_t deviceserial0;
  uint32_t deviceserial1;
  uint32_t deviceserial2;

  deviceserial0 = *(uint32_t *) DEVICE_ID1;
 8006648:	4a52      	ldr	r2, [pc, #328]	@ (8006794 <USBD_HS_SerialStrDescriptor+0x14c>)
  *length = USB_SIZ_STRING_SERIAL;
 800664a:	f04f 0c1a 	mov.w	ip, #26
  deviceserial0 = *(uint32_t *) DEVICE_ID1;
 800664e:	f8d2 3800 	ldr.w	r3, [r2, #2048]	@ 0x800
  deviceserial1 = *(uint32_t *) DEVICE_ID2;
  deviceserial2 = *(uint32_t *) DEVICE_ID3;

  deviceserial0 += deviceserial2;
 8006652:	f8d2 0808 	ldr.w	r0, [r2, #2056]	@ 0x808
  *length = USB_SIZ_STRING_SERIAL;
 8006656:	f8a1 c000 	strh.w	ip, [r1]

  if (deviceserial0 != 0)
 800665a:	181b      	adds	r3, r3, r0
 800665c:	d101      	bne.n	8006662 <USBD_HS_SerialStrDescriptor+0x1a>
}
 800665e:	484e      	ldr	r0, [pc, #312]	@ (8006798 <USBD_HS_SerialStrDescriptor+0x150>)
 8006660:	4770      	bx	lr
  deviceserial1 = *(uint32_t *) DEVICE_ID2;
 8006662:	f8d2 1804 	ldr.w	r1, [r2, #2052]	@ 0x804

  for (idx = 0; idx < len; idx++)
  {
    if (((value >> 28)) < 0xA)
    {
      pbuf[2 * idx] = (value >> 28) + '0';
 8006666:	0f18      	lsrs	r0, r3, #28
 8006668:	4a4b      	ldr	r2, [pc, #300]	@ (8006798 <USBD_HS_SerialStrDescriptor+0x150>)
    if (((value >> 28)) < 0xA)
 800666a:	f1b3 4f20 	cmp.w	r3, #2684354560	@ 0xa0000000
      pbuf[2 * idx] = (value >> 28) + 'A' - 10;
    }

    value = value << 4;

    pbuf[2 * idx + 1] = 0;
 800666e:	f04f 0c00 	mov.w	ip, #0
      pbuf[2 * idx] = (value >> 28) + 'A' - 10;
 8006672:	bf2c      	ite	cs
 8006674:	3037      	addcs	r0, #55	@ 0x37
      pbuf[2 * idx] = (value >> 28) + '0';
 8006676:	3030      	addcc	r0, #48	@ 0x30
    pbuf[2 * idx + 1] = 0;
 8006678:	f882 c003 	strb.w	ip, [r2, #3]
    if (((value >> 28)) < 0xA)
 800667c:	f3c3 6c03 	ubfx	ip, r3, #24, #4
      pbuf[2 * idx] = (value >> 28) + '0';
 8006680:	7090      	strb	r0, [r2, #2]
    if (((value >> 28)) < 0xA)
 8006682:	f1bc 0f09 	cmp.w	ip, #9
      pbuf[2 * idx] = (value >> 28) + '0';
 8006686:	4660      	mov	r0, ip
    pbuf[2 * idx + 1] = 0;
 8006688:	f04f 0c00 	mov.w	ip, #0
      pbuf[2 * idx] = (value >> 28) + 'A' - 10;
 800668c:	bf8c      	ite	hi
 800668e:	3037      	addhi	r0, #55	@ 0x37
      pbuf[2 * idx] = (value >> 28) + '0';
 8006690:	3030      	addls	r0, #48	@ 0x30
    pbuf[2 * idx + 1] = 0;
 8006692:	f882 c005 	strb.w	ip, [r2, #5]
    if (((value >> 28)) < 0xA)
 8006696:	f3c3 5c03 	ubfx	ip, r3, #20, #4
      pbuf[2 * idx] = (value >> 28) + '0';
 800669a:	7110      	strb	r0, [r2, #4]
    if (((value >> 28)) < 0xA)
 800669c:	f1bc 0f09 	cmp.w	ip, #9
      pbuf[2 * idx] = (value >> 28) + '0';
 80066a0:	4660      	mov	r0, ip
    pbuf[2 * idx + 1] = 0;
 80066a2:	f04f 0c00 	mov.w	ip, #0
      pbuf[2 * idx] = (value >> 28) + 'A' - 10;
 80066a6:	bf8c      	ite	hi
 80066a8:	3037      	addhi	r0, #55	@ 0x37
      pbuf[2 * idx] = (value >> 28) + '0';
 80066aa:	3030      	addls	r0, #48	@ 0x30
    pbuf[2 * idx + 1] = 0;
 80066ac:	f882 c007 	strb.w	ip, [r2, #7]
    if (((value >> 28)) < 0xA)
 80066b0:	f3c3 4c03 	ubfx	ip, r3, #16, #4
      pbuf[2 * idx] = (value >> 28) + '0';
 80066b4:	7190      	strb	r0, [r2, #6]
    if (((value >> 28)) < 0xA)
 80066b6:	f1bc 0f09 	cmp.w	ip, #9
      pbuf[2 * idx] = (value >> 28) + '0';
 80066ba:	4660      	mov	r0, ip
    pbuf[2 * idx + 1] = 0;
 80066bc:	f04f 0c00 	mov.w	ip, #0
      pbuf[2 * idx] = (value >> 28) + 'A' - 10;
 80066c0:	bf8c      	ite	hi
 80066c2:	3037      	addhi	r0, #55	@ 0x37
      pbuf[2 * idx] = (value >> 28) + '0';
 80066c4:	3030      	addls	r0, #48	@ 0x30
    pbuf[2 * idx + 1] = 0;
 80066c6:	f882 c009 	strb.w	ip, [r2, #9]
    if (((value >> 28)) < 0xA)
 80066ca:	f3c3 3c03 	ubfx	ip, r3, #12, #4
      pbuf[2 * idx] = (value >> 28) + '0';
 80066ce:	7210      	strb	r0, [r2, #8]
    if (((value >> 28)) < 0xA)
 80066d0:	f1bc 0f09 	cmp.w	ip, #9
      pbuf[2 * idx] = (value >> 28) + '0';
 80066d4:	4660      	mov	r0, ip
    pbuf[2 * idx + 1] = 0;
 80066d6:	f04f 0c00 	mov.w	ip, #0
      pbuf[2 * idx] = (value >> 28) + 'A' - 10;
 80066da:	bf8c      	ite	hi
 80066dc:	3037      	addhi	r0, #55	@ 0x37
      pbuf[2 * idx] = (value >> 28) + '0';
 80066de:	3030      	addls	r0, #48	@ 0x30
    pbuf[2 * idx + 1] = 0;
 80066e0:	f882 c00b 	strb.w	ip, [r2, #11]
    if (((value >> 28)) < 0xA)
 80066e4:	f3c3 2c03 	ubfx	ip, r3, #8, #4
      pbuf[2 * idx] = (value >> 28) + '0';
 80066e8:	7290      	strb	r0, [r2, #10]
    if (((value >> 28)) < 0xA)
 80066ea:	f1bc 0f09 	cmp.w	ip, #9
      pbuf[2 * idx] = (value >> 28) + '0';
 80066ee:	4660      	mov	r0, ip
    pbuf[2 * idx + 1] = 0;
 80066f0:	f04f 0c00 	mov.w	ip, #0
      pbuf[2 * idx] = (value >> 28) + 'A' - 10;
 80066f4:	bf8c      	ite	hi
 80066f6:	3037      	addhi	r0, #55	@ 0x37
      pbuf[2 * idx] = (value >> 28) + '0';
 80066f8:	3030      	addls	r0, #48	@ 0x30
    pbuf[2 * idx + 1] = 0;
 80066fa:	f882 c00d 	strb.w	ip, [r2, #13]
    if (((value >> 28)) < 0xA)
 80066fe:	f3c3 1c03 	ubfx	ip, r3, #4, #4
      pbuf[2 * idx] = (value >> 28) + '0';
 8006702:	7310      	strb	r0, [r2, #12]
    if (((value >> 28)) < 0xA)
 8006704:	f1bc 0f09 	cmp.w	ip, #9
      pbuf[2 * idx] = (value >> 28) + '0';
 8006708:	4660      	mov	r0, ip
    pbuf[2 * idx + 1] = 0;
 800670a:	f04f 0c00 	mov.w	ip, #0
      pbuf[2 * idx] = (value >> 28) + 'A' - 10;
 800670e:	bf8c      	ite	hi
 8006710:	3037      	addhi	r0, #55	@ 0x37
      pbuf[2 * idx] = (value >> 28) + '0';
 8006712:	3030      	addls	r0, #48	@ 0x30
    pbuf[2 * idx + 1] = 0;
 8006714:	f882 c00f 	strb.w	ip, [r2, #15]
 8006718:	f04f 0c00 	mov.w	ip, #0
      pbuf[2 * idx] = (value >> 28) + '0';
 800671c:	7390      	strb	r0, [r2, #14]
    if (((value >> 28)) < 0xA)
 800671e:	f003 000f 	and.w	r0, r3, #15
    pbuf[2 * idx + 1] = 0;
 8006722:	f882 c013 	strb.w	ip, [r2, #19]
 8006726:	f04f 0c00 	mov.w	ip, #0
      pbuf[2 * idx] = (value >> 28) + '0';
 800672a:	4603      	mov	r3, r0
    if (((value >> 28)) < 0xA)
 800672c:	2809      	cmp	r0, #9
    pbuf[2 * idx + 1] = 0;
 800672e:	f04f 0000 	mov.w	r0, #0
 8006732:	f882 c015 	strb.w	ip, [r2, #21]
      pbuf[2 * idx] = (value >> 28) + '0';
 8006736:	bf94      	ite	ls
 8006738:	3330      	addls	r3, #48	@ 0x30
      pbuf[2 * idx] = (value >> 28) + 'A' - 10;
 800673a:	3337      	addhi	r3, #55	@ 0x37
    if (((value >> 28)) < 0xA)
 800673c:	f1b1 4f20 	cmp.w	r1, #2684354560	@ 0xa0000000
    pbuf[2 * idx + 1] = 0;
 8006740:	7450      	strb	r0, [r2, #17]
      pbuf[2 * idx] = (value >> 28) + '0';
 8006742:	7413      	strb	r3, [r2, #16]
 8006744:	ea4f 7311 	mov.w	r3, r1, lsr #28
    if (((value >> 28)) < 0xA)
 8006748:	f3c1 6003 	ubfx	r0, r1, #24, #4
    pbuf[2 * idx + 1] = 0;
 800674c:	f04f 0c00 	mov.w	ip, #0
      pbuf[2 * idx] = (value >> 28) + 'A' - 10;
 8006750:	bf2c      	ite	cs
 8006752:	3337      	addcs	r3, #55	@ 0x37
      pbuf[2 * idx] = (value >> 28) + '0';
 8006754:	3330      	addcc	r3, #48	@ 0x30
    if (((value >> 28)) < 0xA)
 8006756:	2809      	cmp	r0, #9
    pbuf[2 * idx + 1] = 0;
 8006758:	f882 c017 	strb.w	ip, [r2, #23]
      pbuf[2 * idx] = (value >> 28) + '0';
 800675c:	7493      	strb	r3, [r2, #18]
 800675e:	4603      	mov	r3, r0
    if (((value >> 28)) < 0xA)
 8006760:	f3c1 5003 	ubfx	r0, r1, #20, #4
      pbuf[2 * idx] = (value >> 28) + 'A' - 10;
 8006764:	bf8c      	ite	hi
 8006766:	3337      	addhi	r3, #55	@ 0x37
      pbuf[2 * idx] = (value >> 28) + '0';
 8006768:	3330      	addls	r3, #48	@ 0x30
    if (((value >> 28)) < 0xA)
 800676a:	2809      	cmp	r0, #9
      pbuf[2 * idx] = (value >> 28) + '0';
 800676c:	7513      	strb	r3, [r2, #20]
 800676e:	4603      	mov	r3, r0
    if (((value >> 28)) < 0xA)
 8006770:	f3c1 4003 	ubfx	r0, r1, #16, #4
    pbuf[2 * idx + 1] = 0;
 8006774:	f04f 0100 	mov.w	r1, #0
      pbuf[2 * idx] = (value >> 28) + 'A' - 10;
 8006778:	bf8c      	ite	hi
 800677a:	3337      	addhi	r3, #55	@ 0x37
      pbuf[2 * idx] = (value >> 28) + '0';
 800677c:	3330      	addls	r3, #48	@ 0x30
    if (((value >> 28)) < 0xA)
 800677e:	2809      	cmp	r0, #9
    pbuf[2 * idx + 1] = 0;
 8006780:	7651      	strb	r1, [r2, #25]
      pbuf[2 * idx] = (value >> 28) + '0';
 8006782:	7593      	strb	r3, [r2, #22]
 8006784:	4603      	mov	r3, r0
}
 8006786:	4804      	ldr	r0, [pc, #16]	@ (8006798 <USBD_HS_SerialStrDescriptor+0x150>)
      pbuf[2 * idx] = (value >> 28) + '0';
 8006788:	bf94      	ite	ls
 800678a:	3330      	addls	r3, #48	@ 0x30
      pbuf[2 * idx] = (value >> 28) + 'A' - 10;
 800678c:	3337      	addhi	r3, #55	@ 0x37
      pbuf[2 * idx] = (value >> 28) + '0';
 800678e:	7613      	strb	r3, [r2, #24]
}
 8006790:	4770      	bx	lr
 8006792:	bf00      	nop
 8006794:	1ff1e000 	.word	0x1ff1e000
 8006798:	240000c4 	.word	0x240000c4

0800679c <HAL_PCD_MspInit>:
                       LL Driver Callbacks (PCD -> USB Device Library)
*******************************************************************************/
/* MSP Init */

void HAL_PCD_MspInit(PCD_HandleTypeDef* pcdHandle)
{
 800679c:	b5f0      	push	{r4, r5, r6, r7, lr}
 800679e:	b0bb      	sub	sp, #236	@ 0xec
  GPIO_InitTypeDef GPIO_InitStruct = {0};
 80067a0:	2100      	movs	r1, #0
{
 80067a2:	4604      	mov	r4, r0
  RCC_PeriphCLKInitTypeDef PeriphClkInitStruct = {0};
 80067a4:	22b8      	movs	r2, #184	@ 0xb8
 80067a6:	a80c      	add	r0, sp, #48	@ 0x30
  GPIO_InitTypeDef GPIO_InitStruct = {0};
 80067a8:	910a      	str	r1, [sp, #40]	@ 0x28
 80067aa:	e9cd 1106 	strd	r1, r1, [sp, #24]
 80067ae:	e9cd 1108 	strd	r1, r1, [sp, #32]
  RCC_PeriphCLKInitTypeDef PeriphClkInitStruct = {0};
 80067b2:	f000 f9bf 	bl	8006b34 <memset>
  if(pcdHandle->Instance==USB_OTG_HS)
 80067b6:	4b42      	ldr	r3, [pc, #264]	@ (80068c0 <HAL_PCD_MspInit+0x124>)
 80067b8:	6822      	ldr	r2, [r4, #0]
 80067ba:	429a      	cmp	r2, r3
 80067bc:	d001      	beq.n	80067c2 <HAL_PCD_MspInit+0x26>
    HAL_NVIC_EnableIRQ(OTG_HS_IRQn);
  /* USER CODE BEGIN USB_OTG_HS_MspInit 1 */

  /* USER CODE END USB_OTG_HS_MspInit 1 */
  }
}
 80067be:	b03b      	add	sp, #236	@ 0xec
 80067c0:	bdf0      	pop	{r4, r5, r6, r7, pc}
    PeriphClkInitStruct.PeriphClockSelection = RCC_PERIPHCLK_USB;
 80067c2:	f44f 2480 	mov.w	r4, #262144	@ 0x40000
 80067c6:	2500      	movs	r5, #0
    PeriphClkInitStruct.UsbClockSelection = RCC_USBCLKSOURCE_HSI48;
 80067c8:	f44f 1340 	mov.w	r3, #3145728	@ 0x300000
    if (HAL_RCCEx_PeriphCLKConfig(&PeriphClkInitStruct) != HAL_OK)
 80067cc:	a80c      	add	r0, sp, #48	@ 0x30
    PeriphClkInitStruct.PeriphClockSelection = RCC_PERIPHCLK_USB;
 80067ce:	e9cd 450c 	strd	r4, r5, [sp, #48]	@ 0x30
    PeriphClkInitStruct.UsbClockSelection = RCC_USBCLKSOURCE_HSI48;
 80067d2:	932d      	str	r3, [sp, #180]	@ 0xb4
    if (HAL_RCCEx_PeriphCLKConfig(&PeriphClkInitStruct) != HAL_OK)
 80067d4:	f7fc fdd2 	bl	800337c <HAL_RCCEx_PeriphCLKConfig>
 80067d8:	2800      	cmp	r0, #0
 80067da:	d16d      	bne.n	80068b8 <HAL_PCD_MspInit+0x11c>
    __HAL_RCC_GPIOC_CLK_ENABLE();
 80067dc:	4c39      	ldr	r4, [pc, #228]	@ (80068c4 <HAL_PCD_MspInit+0x128>)
    HAL_PWREx_EnableUSBVoltageDetector();
 80067de:	f7fb ff41 	bl	8002664 <HAL_PWREx_EnableUSBVoltageDetector>
    GPIO_InitStruct.Pin = GPIO_PIN_0|GPIO_PIN_2|GPIO_PIN_3;
 80067e2:	200d      	movs	r0, #13
 80067e4:	2102      	movs	r1, #2
    __HAL_RCC_GPIOC_CLK_ENABLE();
 80067e6:	f8d4 30e0 	ldr.w	r3, [r4, #224]	@ 0xe0
    GPIO_InitStruct.Alternate = GPIO_AF10_OTG1_HS;
 80067ea:	250a      	movs	r5, #10
    GPIO_InitStruct.Pin = GPIO_PIN_0|GPIO_PIN_2|GPIO_PIN_3;
 80067ec:	2600      	movs	r6, #0
 80067ee:	2702      	movs	r7, #2
    __HAL_RCC_GPIOC_CLK_ENABLE();
 80067f0:	f043 0304 	orr.w	r3, r3, #4
 80067f4:	f8c4 30e0 	str.w	r3, [r4, #224]	@ 0xe0
 80067f8:	f8d4 30e0 	ldr.w	r3, [r4, #224]	@ 0xe0
 80067fc:	f003 0304 	and.w	r3, r3, #4
 8006800:	9301      	str	r3, [sp, #4]
 8006802:	9b01      	ldr	r3, [sp, #4]
    __HAL_RCC_GPIOA_CLK_ENABLE();
 8006804:	f8d4 30e0 	ldr.w	r3, [r4, #224]	@ 0xe0
 8006808:	f043 0301 	orr.w	r3, r3, #1
 800680c:	f8c4 30e0 	str.w	r3, [r4, #224]	@ 0xe0
 8006810:	f8d4 30e0 	ldr.w	r3, [r4, #224]	@ 0xe0
 8006814:	f003 0301 	and.w	r3, r3, #1
 8006818:	9302      	str	r3, [sp, #8]
 800681a:	9b02      	ldr	r3, [sp, #8]
    __HAL_RCC_GPIOB_CLK_ENABLE();
 800681c:	f8d4 30e0 	ldr.w	r3, [r4, #224]	@ 0xe0
 8006820:	f043 0302 	orr.w	r3, r3, #2
 8006824:	f8c4 30e0 	str.w	r3, [r4, #224]	@ 0xe0
 8006828:	f8d4 30e0 	ldr.w	r3, [r4, #224]	@ 0xe0
    GPIO_InitStruct.Alternate = GPIO_AF10_OTG1_HS;
 800682c:	950a      	str	r5, [sp, #40]	@ 0x28
    __HAL_RCC_GPIOB_CLK_ENABLE();
 800682e:	f003 0302 	and.w	r3, r3, #2
    GPIO_InitStruct.Pin = GPIO_PIN_0|GPIO_PIN_2|GPIO_PIN_3;
 8006832:	e9cd 0106 	strd	r0, r1, [sp, #24]
    __HAL_RCC_GPIOB_CLK_ENABLE();
 8006836:	9303      	str	r3, [sp, #12]
    HAL_GPIO_Init(GPIOC, &GPIO_InitStruct);
 8006838:	a906      	add	r1, sp, #24
 800683a:	4823      	ldr	r0, [pc, #140]	@ (80068c8 <HAL_PCD_MspInit+0x12c>)
    __HAL_RCC_GPIOB_CLK_ENABLE();
 800683c:	9b03      	ldr	r3, [sp, #12]
    GPIO_InitStruct.Pin = GPIO_PIN_0|GPIO_PIN_2|GPIO_PIN_3;
 800683e:	e9cd 6708 	strd	r6, r7, [sp, #32]
    HAL_GPIO_Init(GPIOC, &GPIO_InitStruct);
 8006842:	f7fa fbfb 	bl	800103c <HAL_GPIO_Init>
    GPIO_InitStruct.Pin = GPIO_PIN_3|GPIO_PIN_5;
 8006846:	2228      	movs	r2, #40	@ 0x28
 8006848:	2302      	movs	r3, #2
    HAL_GPIO_Init(GPIOA, &GPIO_InitStruct);
 800684a:	a906      	add	r1, sp, #24
 800684c:	481f      	ldr	r0, [pc, #124]	@ (80068cc <HAL_PCD_MspInit+0x130>)
    GPIO_InitStruct.Alternate = GPIO_AF10_OTG1_HS;
 800684e:	950a      	str	r5, [sp, #40]	@ 0x28
    GPIO_InitStruct.Pin = GPIO_PIN_3|GPIO_PIN_5;
 8006850:	e9cd 2306 	strd	r2, r3, [sp, #24]
 8006854:	e9cd 6708 	strd	r6, r7, [sp, #32]
    HAL_GPIO_Init(GPIOA, &GPIO_InitStruct);
 8006858:	f7fa fbf0 	bl	800103c <HAL_GPIO_Init>
    GPIO_InitStruct.Pin = GPIO_PIN_0|GPIO_PIN_1|GPIO_PIN_10|GPIO_PIN_11
 800685c:	f643 4223 	movw	r2, #15395	@ 0x3c23
 8006860:	2302      	movs	r3, #2
    HAL_GPIO_Init(GPIOB, &GPIO_InitStruct);
 8006862:	a906      	add	r1, sp, #24
 8006864:	481a      	ldr	r0, [pc, #104]	@ (80068d0 <HAL_PCD_MspInit+0x134>)
    GPIO_InitStruct.Alternate = GPIO_AF10_OTG1_HS;
 8006866:	950a      	str	r5, [sp, #40]	@ 0x28
    GPIO_InitStruct.Pin = GPIO_PIN_0|GPIO_PIN_1|GPIO_PIN_10|GPIO_PIN_11
 8006868:	e9cd 2306 	strd	r2, r3, [sp, #24]
 800686c:	e9cd 6708 	strd	r6, r7, [sp, #32]
    HAL_GPIO_Init(GPIOB, &GPIO_InitStruct);
 8006870:	f7fa fbe4 	bl	800103c <HAL_GPIO_Init>
    __HAL_RCC_USB_OTG_HS_CLK_ENABLE();
 8006874:	f8d4 30d8 	ldr.w	r3, [r4, #216]	@ 0xd8
    HAL_NVIC_SetPriority(OTG_HS_IRQn, 0, 0);
 8006878:	2200      	movs	r2, #0
 800687a:	204d      	movs	r0, #77	@ 0x4d
    __HAL_RCC_USB_OTG_HS_CLK_ENABLE();
 800687c:	f043 7300 	orr.w	r3, r3, #33554432	@ 0x2000000
    HAL_NVIC_SetPriority(OTG_HS_IRQn, 0, 0);
 8006880:	4611      	mov	r1, r2
    __HAL_RCC_USB_OTG_HS_CLK_ENABLE();
 8006882:	f8c4 30d8 	str.w	r3, [r4, #216]	@ 0xd8
 8006886:	f8d4 30d8 	ldr.w	r3, [r4, #216]	@ 0xd8
 800688a:	f003 7300 	and.w	r3, r3, #33554432	@ 0x2000000
 800688e:	9304      	str	r3, [sp, #16]
 8006890:	9b04      	ldr	r3, [sp, #16]
    __HAL_RCC_USB_OTG_HS_ULPI_CLK_ENABLE();
 8006892:	f8d4 30d8 	ldr.w	r3, [r4, #216]	@ 0xd8
 8006896:	f043 6380 	orr.w	r3, r3, #67108864	@ 0x4000000
 800689a:	f8c4 30d8 	str.w	r3, [r4, #216]	@ 0xd8
 800689e:	f8d4 30d8 	ldr.w	r3, [r4, #216]	@ 0xd8
 80068a2:	f003 6380 	and.w	r3, r3, #67108864	@ 0x4000000
 80068a6:	9305      	str	r3, [sp, #20]
 80068a8:	9b05      	ldr	r3, [sp, #20]
    HAL_NVIC_SetPriority(OTG_HS_IRQn, 0, 0);
 80068aa:	f7fa fb19 	bl	8000ee0 <HAL_NVIC_SetPriority>
    HAL_NVIC_EnableIRQ(OTG_HS_IRQn);
 80068ae:	204d      	movs	r0, #77	@ 0x4d
 80068b0:	f7fa fb52 	bl	8000f58 <HAL_NVIC_EnableIRQ>
}
 80068b4:	b03b      	add	sp, #236	@ 0xec
 80068b6:	bdf0      	pop	{r4, r5, r6, r7, pc}
      Error_Handler();
 80068b8:	f7fa f942 	bl	8000b40 <Error_Handler>
 80068bc:	e78e      	b.n	80067dc <HAL_PCD_MspInit+0x40>
 80068be:	bf00      	nop
 80068c0:	40040000 	.word	0x40040000
 80068c4:	58024400 	.word	0x58024400
 80068c8:	58020800 	.word	0x58020800
 80068cc:	58020000 	.word	0x58020000
 80068d0:	58020400 	.word	0x58020400

080068d4 <HAL_PCD_SetupStageCallback>:
static void PCD_SetupStageCallback(PCD_HandleTypeDef *hpcd)
#else
void HAL_PCD_SetupStageCallback(PCD_HandleTypeDef *hpcd)
#endif /* USE_HAL_PCD_REGISTER_CALLBACKS */
{
  USBD_LL_SetupStage((USBD_HandleTypeDef*)hpcd->pData, (uint8_t *)hpcd->Setup);
 80068d4:	f200 419c 	addw	r1, r0, #1180	@ 0x49c
 80068d8:	f8d0 04e0 	ldr.w	r0, [r0, #1248]	@ 0x4e0
 80068dc:	f7ff b996 	b.w	8005c0c <USBD_LL_SetupStage>

080068e0 <HAL_PCD_DataOutStageCallback>:
static void PCD_DataOutStageCallback(PCD_HandleTypeDef *hpcd, uint8_t epnum)
#else
void HAL_PCD_DataOutStageCallback(PCD_HandleTypeDef *hpcd, uint8_t epnum)
#endif /* USE_HAL_PCD_REGISTER_CALLBACKS */
{
  USBD_LL_DataOutStage((USBD_HandleTypeDef*)hpcd->pData, epnum, hpcd->OUT_ep[epnum].xfer_buff);
 80068e0:	eb01 03c1 	add.w	r3, r1, r1, lsl #3
 80068e4:	eb00 0383 	add.w	r3, r0, r3, lsl #2
 80068e8:	f8d0 04e0 	ldr.w	r0, [r0, #1248]	@ 0x4e0
 80068ec:	f8d3 2260 	ldr.w	r2, [r3, #608]	@ 0x260
 80068f0:	f7ff b9bc 	b.w	8005c6c <USBD_LL_DataOutStage>

080068f4 <HAL_PCD_DataInStageCallback>:
static void PCD_DataInStageCallback(PCD_HandleTypeDef *hpcd, uint8_t epnum)
#else
void HAL_PCD_DataInStageCallback(PCD_HandleTypeDef *hpcd, uint8_t epnum)
#endif /* USE_HAL_PCD_REGISTER_CALLBACKS */
{
  USBD_LL_DataInStage((USBD_HandleTypeDef*)hpcd->pData, epnum, hpcd->IN_ep[epnum].xfer_buff);
 80068f4:	eb01 03c1 	add.w	r3, r1, r1, lsl #3
 80068f8:	eb00 0383 	add.w	r3, r0, r3, lsl #2
 80068fc:	f8d0 04e0 	ldr.w	r0, [r0, #1248]	@ 0x4e0
 8006900:	6a1a      	ldr	r2, [r3, #32]
 8006902:	f7ff b9ed 	b.w	8005ce0 <USBD_LL_DataInStage>
 8006906:	bf00      	nop

08006908 <HAL_PCD_SOFCallback>:
static void PCD_SOFCallback(PCD_HandleTypeDef *hpcd)
#else
void HAL_PCD_SOFCallback(PCD_HandleTypeDef *hpcd)
#endif /* USE_HAL_PCD_REGISTER_CALLBACKS */
{
  USBD_LL_SOF((USBD_HandleTypeDef*)hpcd->pData);
 8006908:	f8d0 04e0 	ldr.w	r0, [r0, #1248]	@ 0x4e0
 800690c:	f7ff ba96 	b.w	8005e3c <USBD_LL_SOF>

08006910 <HAL_PCD_ResetCallback>:
#if (USE_HAL_PCD_REGISTER_CALLBACKS == 1U)
static void PCD_ResetCallback(PCD_HandleTypeDef *hpcd)
#else
void HAL_PCD_ResetCallback(PCD_HandleTypeDef *hpcd)
#endif /* USE_HAL_PCD_REGISTER_CALLBACKS */
{
 8006910:	b510      	push	{r4, lr}
  USBD_SpeedTypeDef speed = USBD_SPEED_FULL;

  if ( hpcd->Init.speed == PCD_SPEED_HIGH)
 8006912:	79c1      	ldrb	r1, [r0, #7]
{
 8006914:	4604      	mov	r4, r0
  if ( hpcd->Init.speed == PCD_SPEED_HIGH)
 8006916:	b111      	cbz	r1, 800691e <HAL_PCD_ResetCallback+0xe>
  {
    speed = USBD_SPEED_HIGH;
  }
  else if ( hpcd->Init.speed == PCD_SPEED_FULL)
 8006918:	2902      	cmp	r1, #2
 800691a:	d10a      	bne.n	8006932 <HAL_PCD_ResetCallback+0x22>
  {
    speed = USBD_SPEED_FULL;
 800691c:	2101      	movs	r1, #1
  else
  {
    Error_Handler();
  }
    /* Set Speed. */
  USBD_LL_SetSpeed((USBD_HandleTypeDef*)hpcd->pData, speed);
 800691e:	f8d4 04e0 	ldr.w	r0, [r4, #1248]	@ 0x4e0
 8006922:	f7ff fa6b 	bl	8005dfc <USBD_LL_SetSpeed>

  /* Reset Device. */
  USBD_LL_Reset((USBD_HandleTypeDef*)hpcd->pData);
 8006926:	f8d4 04e0 	ldr.w	r0, [r4, #1248]	@ 0x4e0
}
 800692a:	e8bd 4010 	ldmia.w	sp!, {r4, lr}
  USBD_LL_Reset((USBD_HandleTypeDef*)hpcd->pData);
 800692e:	f7ff ba37 	b.w	8005da0 <USBD_LL_Reset>
    Error_Handler();
 8006932:	f7fa f905 	bl	8000b40 <Error_Handler>
    speed = USBD_SPEED_FULL;
 8006936:	2101      	movs	r1, #1
 8006938:	e7f1      	b.n	800691e <HAL_PCD_ResetCallback+0xe>
 800693a:	bf00      	nop

0800693c <HAL_PCD_SuspendCallback>:
#if (USE_HAL_PCD_REGISTER_CALLBACKS == 1U)
static void PCD_SuspendCallback(PCD_HandleTypeDef *hpcd)
#else
void HAL_PCD_SuspendCallback(PCD_HandleTypeDef *hpcd)
#endif /* USE_HAL_PCD_REGISTER_CALLBACKS */
{
 800693c:	b510      	push	{r4, lr}
 800693e:	4604      	mov	r4, r0
  /* Inform USB library that core enters in suspend Mode. */
  USBD_LL_Suspend((USBD_HandleTypeDef*)hpcd->pData);
 8006940:	f8d0 04e0 	ldr.w	r0, [r0, #1248]	@ 0x4e0
 8006944:	f7ff fa5e 	bl	8005e04 <USBD_LL_Suspend>
  __HAL_PCD_GATE_PHYCLOCK(hpcd);
 8006948:	6822      	ldr	r2, [r4, #0]
 800694a:	f8d2 3e00 	ldr.w	r3, [r2, #3584]	@ 0xe00
 800694e:	f043 0301 	orr.w	r3, r3, #1
 8006952:	f8c2 3e00 	str.w	r3, [r2, #3584]	@ 0xe00
  /* Enter in STOP mode. */
  /* USER CODE BEGIN 2 */
  if (hpcd->Init.low_power_enable)
 8006956:	7ae3      	ldrb	r3, [r4, #11]
 8006958:	b123      	cbz	r3, 8006964 <HAL_PCD_SuspendCallback+0x28>
  {
    /* Set SLEEPDEEP bit and SleepOnExit of Cortex System Control Register. */
    SCB->SCR |= (uint32_t)((uint32_t)(SCB_SCR_SLEEPDEEP_Msk | SCB_SCR_SLEEPONEXIT_Msk));
 800695a:	4a03      	ldr	r2, [pc, #12]	@ (8006968 <HAL_PCD_SuspendCallback+0x2c>)
 800695c:	6913      	ldr	r3, [r2, #16]
 800695e:	f043 0306 	orr.w	r3, r3, #6
 8006962:	6113      	str	r3, [r2, #16]
  }
  /* USER CODE END 2 */
}
 8006964:	bd10      	pop	{r4, pc}
 8006966:	bf00      	nop
 8006968:	e000ed00 	.word	0xe000ed00

0800696c <HAL_PCD_ResumeCallback>:
#endif /* USE_HAL_PCD_REGISTER_CALLBACKS */
{
  /* USER CODE BEGIN 3 */

  /* USER CODE END 3 */
  USBD_LL_Resume((USBD_HandleTypeDef*)hpcd->pData);
 800696c:	f8d0 04e0 	ldr.w	r0, [r0, #1248]	@ 0x4e0
 8006970:	f7ff ba58 	b.w	8005e24 <USBD_LL_Resume>

08006974 <HAL_PCD_ISOOUTIncompleteCallback>:
static void PCD_ISOOUTIncompleteCallback(PCD_HandleTypeDef *hpcd, uint8_t epnum)
#else
void HAL_PCD_ISOOUTIncompleteCallback(PCD_HandleTypeDef *hpcd, uint8_t epnum)
#endif /* USE_HAL_PCD_REGISTER_CALLBACKS */
{
  USBD_LL_IsoOUTIncomplete((USBD_HandleTypeDef*)hpcd->pData, epnum);
 8006974:	f8d0 04e0 	ldr.w	r0, [r0, #1248]	@ 0x4e0
 8006978:	f7ff ba86 	b.w	8005e88 <USBD_LL_IsoOUTIncomplete>

0800697c <HAL_PCD_ISOINIncompleteCallback>:
static void PCD_ISOINIncompleteCallback(PCD_HandleTypeDef *hpcd, uint8_t epnum)
#else
void HAL_PCD_ISOINIncompleteCallback(PCD_HandleTypeDef *hpcd, uint8_t epnum)
#endif /* USE_HAL_PCD_REGISTER_CALLBACKS */
{
  USBD_LL_IsoINIncomplete((USBD_HandleTypeDef*)hpcd->pData, epnum);
 800697c:	f8d0 04e0 	ldr.w	r0, [r0, #1248]	@ 0x4e0
 8006980:	f7ff ba6c 	b.w	8005e5c <USBD_LL_IsoINIncomplete>

08006984 <HAL_PCD_ConnectCallback>:
static void PCD_ConnectCallback(PCD_HandleTypeDef *hpcd)
#else
void HAL_PCD_ConnectCallback(PCD_HandleTypeDef *hpcd)
#endif /* USE_HAL_PCD_REGISTER_CALLBACKS */
{
  USBD_LL_DevConnected((USBD_HandleTypeDef*)hpcd->pData);
 8006984:	f8d0 04e0 	ldr.w	r0, [r0, #1248]	@ 0x4e0
 8006988:	f7ff ba94 	b.w	8005eb4 <USBD_LL_DevConnected>

0800698c <HAL_PCD_DisconnectCallback>:
static void PCD_DisconnectCallback(PCD_HandleTypeDef *hpcd)
#else
void HAL_PCD_DisconnectCallback(PCD_HandleTypeDef *hpcd)
#endif /* USE_HAL_PCD_REGISTER_CALLBACKS */
{
  USBD_LL_DevDisconnected((USBD_HandleTypeDef*)hpcd->pData);
 800698c:	f8d0 04e0 	ldr.w	r0, [r0, #1248]	@ 0x4e0
 8006990:	f7ff ba92 	b.w	8005eb8 <USBD_LL_DevDisconnected>

08006994 <USBD_LL_Init>:
  * @retval USBD status
  */
USBD_StatusTypeDef USBD_LL_Init(USBD_HandleTypeDef *pdev)
{
  /* Init USB Ip. */
  if (pdev->id == DEVICE_HS) {
 8006994:	7803      	ldrb	r3, [r0, #0]
 8006996:	2b01      	cmp	r3, #1
 8006998:	d001      	beq.n	800699e <USBD_LL_Init+0xa>
  HAL_PCDEx_SetTxFiFo(&hpcd_USB_OTG_HS, 0, 0x80);
  HAL_PCDEx_SetTxFiFo(&hpcd_USB_OTG_HS, 1, 0x174);
  /* USER CODE END TxRx_HS_Configuration */
  }
  return USBD_OK;
}
 800699a:	2000      	movs	r0, #0
 800699c:	4770      	bx	lr
  hpcd_USB_OTG_HS.pData = pdev;
 800699e:	4a15      	ldr	r2, [pc, #84]	@ (80069f4 <USBD_LL_Init+0x60>)
  hpcd_USB_OTG_HS.Init.dma_enable = DISABLE;
 80069a0:	2100      	movs	r1, #0
  hpcd_USB_OTG_HS.Init.dev_endpoints = 9;
 80069a2:	f04f 0c09 	mov.w	ip, #9
{
 80069a6:	b510      	push	{r4, lr}
  hpcd_USB_OTG_HS.Instance = USB_OTG_HS;
 80069a8:	4c13      	ldr	r4, [pc, #76]	@ (80069f8 <USBD_LL_Init+0x64>)
  hpcd_USB_OTG_HS.pData = pdev;
 80069aa:	f8c2 04e0 	str.w	r0, [r2, #1248]	@ 0x4e0
  pdev->pData = &hpcd_USB_OTG_HS;
 80069ae:	f8c0 22c8 	str.w	r2, [r0, #712]	@ 0x2c8
  if (HAL_PCD_Init(&hpcd_USB_OTG_HS) != HAL_OK)
 80069b2:	4610      	mov	r0, r2
  hpcd_USB_OTG_HS.Instance = USB_OTG_HS;
 80069b4:	6014      	str	r4, [r2, #0]
  hpcd_USB_OTG_HS.Init.dma_enable = DISABLE;
 80069b6:	80d1      	strh	r1, [r2, #6]
  hpcd_USB_OTG_HS.Init.phy_itface = USB_OTG_ULPI_PHY;
 80069b8:	f8c2 3009 	str.w	r3, [r2, #9]
  hpcd_USB_OTG_HS.Init.dev_endpoints = 9;
 80069bc:	f882 c004 	strb.w	ip, [r2, #4]
  hpcd_USB_OTG_HS.Init.vbus_sensing_enable = DISABLE;
 80069c0:	81d1      	strh	r1, [r2, #14]
  hpcd_USB_OTG_HS.Init.use_external_vbus = DISABLE;
 80069c2:	7411      	strb	r1, [r2, #16]
  if (HAL_PCD_Init(&hpcd_USB_OTG_HS) != HAL_OK)
 80069c4:	f7fa fc6e 	bl	80012a4 <HAL_PCD_Init>
 80069c8:	b988      	cbnz	r0, 80069ee <USBD_LL_Init+0x5a>
  HAL_PCDEx_SetRxFiFo(&hpcd_USB_OTG_HS, 0x200);
 80069ca:	f44f 7100 	mov.w	r1, #512	@ 0x200
 80069ce:	4809      	ldr	r0, [pc, #36]	@ (80069f4 <USBD_LL_Init+0x60>)
 80069d0:	f7fb fe04 	bl	80025dc <HAL_PCDEx_SetRxFiFo>
  HAL_PCDEx_SetTxFiFo(&hpcd_USB_OTG_HS, 0, 0x80);
 80069d4:	2280      	movs	r2, #128	@ 0x80
 80069d6:	2100      	movs	r1, #0
 80069d8:	4806      	ldr	r0, [pc, #24]	@ (80069f4 <USBD_LL_Init+0x60>)
 80069da:	f7fb fd7d 	bl	80024d8 <HAL_PCDEx_SetTxFiFo>
  HAL_PCDEx_SetTxFiFo(&hpcd_USB_OTG_HS, 1, 0x174);
 80069de:	f44f 72ba 	mov.w	r2, #372	@ 0x174
 80069e2:	2101      	movs	r1, #1
 80069e4:	4803      	ldr	r0, [pc, #12]	@ (80069f4 <USBD_LL_Init+0x60>)
 80069e6:	f7fb fd77 	bl	80024d8 <HAL_PCDEx_SetTxFiFo>
}
 80069ea:	2000      	movs	r0, #0
 80069ec:	bd10      	pop	{r4, pc}
    Error_Handler( );
 80069ee:	f7fa f8a7 	bl	8000b40 <Error_Handler>
 80069f2:	e7ea      	b.n	80069ca <USBD_LL_Init+0x36>
 80069f4:	24000730 	.word	0x24000730
 80069f8:	40040000 	.word	0x40040000

080069fc <USBD_LL_Start>:
  * @brief  Starts the low level portion of the device driver.
  * @param  pdev: Device handle
  * @retval USBD status
  */
USBD_StatusTypeDef USBD_LL_Start(USBD_HandleTypeDef *pdev)
{
 80069fc:	b508      	push	{r3, lr}
  HAL_StatusTypeDef hal_status = HAL_OK;
  USBD_StatusTypeDef usb_status = USBD_OK;

  hal_status = HAL_PCD_Start(pdev->pData);
 80069fe:	f8d0 02c8 	ldr.w	r0, [r0, #712]	@ 0x2c8
 8006a02:	f7fa fe57 	bl	80016b4 <HAL_PCD_Start>
  */
USBD_StatusTypeDef USBD_Get_USB_Status(HAL_StatusTypeDef hal_status)
{
  USBD_StatusTypeDef usb_status = USBD_OK;

  switch (hal_status)
 8006a06:	b118      	cbz	r0, 8006a10 <USBD_LL_Start+0x14>
 8006a08:	2802      	cmp	r0, #2
 8006a0a:	bf0c      	ite	eq
 8006a0c:	2001      	moveq	r0, #1
 8006a0e:	2003      	movne	r0, #3
}
 8006a10:	bd08      	pop	{r3, pc}
 8006a12:	bf00      	nop

08006a14 <USBD_LL_OpenEP>:
{
 8006a14:	4694      	mov	ip, r2
  hal_status = HAL_PCD_EP_Open(pdev->pData, ep_addr, ep_mps, ep_type);
 8006a16:	f8d0 02c8 	ldr.w	r0, [r0, #712]	@ 0x2c8
{
 8006a1a:	461a      	mov	r2, r3
 8006a1c:	b508      	push	{r3, lr}
  hal_status = HAL_PCD_EP_Open(pdev->pData, ep_addr, ep_mps, ep_type);
 8006a1e:	4663      	mov	r3, ip
 8006a20:	f7fb fc1e 	bl	8002260 <HAL_PCD_EP_Open>
  switch (hal_status)
 8006a24:	b118      	cbz	r0, 8006a2e <USBD_LL_OpenEP+0x1a>
 8006a26:	2802      	cmp	r0, #2
 8006a28:	bf0c      	ite	eq
 8006a2a:	2001      	moveq	r0, #1
 8006a2c:	2003      	movne	r0, #3
}
 8006a2e:	bd08      	pop	{r3, pc}

08006a30 <USBD_LL_CloseEP>:
{
 8006a30:	b508      	push	{r3, lr}
  hal_status = HAL_PCD_EP_Close(pdev->pData, ep_addr);
 8006a32:	f8d0 02c8 	ldr.w	r0, [r0, #712]	@ 0x2c8
 8006a36:	f7fb fc53 	bl	80022e0 <HAL_PCD_EP_Close>
  switch (hal_status)
 8006a3a:	b118      	cbz	r0, 8006a44 <USBD_LL_CloseEP+0x14>
 8006a3c:	2802      	cmp	r0, #2
 8006a3e:	bf0c      	ite	eq
 8006a40:	2001      	moveq	r0, #1
 8006a42:	2003      	movne	r0, #3
}
 8006a44:	bd08      	pop	{r3, pc}
 8006a46:	bf00      	nop

08006a48 <USBD_LL_StallEP>:
{
 8006a48:	b508      	push	{r3, lr}
  hal_status = HAL_PCD_EP_SetStall(pdev->pData, ep_addr);
 8006a4a:	f8d0 02c8 	ldr.w	r0, [r0, #712]	@ 0x2c8
 8006a4e:	f7fb fcc3 	bl	80023d8 <HAL_PCD_EP_SetStall>
  switch (hal_status)
 8006a52:	b118      	cbz	r0, 8006a5c <USBD_LL_StallEP+0x14>
 8006a54:	2802      	cmp	r0, #2
 8006a56:	bf0c      	ite	eq
 8006a58:	2001      	moveq	r0, #1
 8006a5a:	2003      	movne	r0, #3
}
 8006a5c:	bd08      	pop	{r3, pc}
 8006a5e:	bf00      	nop

08006a60 <USBD_LL_ClearStallEP>:
{
 8006a60:	b508      	push	{r3, lr}
  hal_status = HAL_PCD_EP_ClrStall(pdev->pData, ep_addr);
 8006a62:	f8d0 02c8 	ldr.w	r0, [r0, #712]	@ 0x2c8
 8006a66:	f7fb fcfb 	bl	8002460 <HAL_PCD_EP_ClrStall>
  switch (hal_status)
 8006a6a:	b118      	cbz	r0, 8006a74 <USBD_LL_ClearStallEP+0x14>
 8006a6c:	2802      	cmp	r0, #2
 8006a6e:	bf0c      	ite	eq
 8006a70:	2001      	moveq	r0, #1
 8006a72:	2003      	movne	r0, #3
}
 8006a74:	bd08      	pop	{r3, pc}
 8006a76:	bf00      	nop

08006a78 <USBD_LL_IsStallEP>:
  if((ep_addr & 0x80) == 0x80)
 8006a78:	060a      	lsls	r2, r1, #24
  PCD_HandleTypeDef *hpcd = (PCD_HandleTypeDef*) pdev->pData;
 8006a7a:	f8d0 32c8 	ldr.w	r3, [r0, #712]	@ 0x2c8
  if((ep_addr & 0x80) == 0x80)
 8006a7e:	d406      	bmi.n	8006a8e <USBD_LL_IsStallEP+0x16>
    return hpcd->OUT_ep[ep_addr & 0x7F].is_stall;
 8006a80:	eb01 01c1 	add.w	r1, r1, r1, lsl #3
 8006a84:	eb03 0381 	add.w	r3, r3, r1, lsl #2
 8006a88:	f893 0256 	ldrb.w	r0, [r3, #598]	@ 0x256
}
 8006a8c:	4770      	bx	lr
    return hpcd->IN_ep[ep_addr & 0x7F].is_stall;
 8006a8e:	f001 017f 	and.w	r1, r1, #127	@ 0x7f
 8006a92:	eb01 01c1 	add.w	r1, r1, r1, lsl #3
 8006a96:	eb03 0381 	add.w	r3, r3, r1, lsl #2
 8006a9a:	7d98      	ldrb	r0, [r3, #22]
 8006a9c:	4770      	bx	lr
 8006a9e:	bf00      	nop

08006aa0 <USBD_LL_SetUSBAddress>:
{
 8006aa0:	b508      	push	{r3, lr}
  hal_status = HAL_PCD_SetAddress(pdev->pData, dev_addr);
 8006aa2:	f8d0 02c8 	ldr.w	r0, [r0, #712]	@ 0x2c8
 8006aa6:	f7fb fbc7 	bl	8002238 <HAL_PCD_SetAddress>
  switch (hal_status)
 8006aaa:	b118      	cbz	r0, 8006ab4 <USBD_LL_SetUSBAddress+0x14>
 8006aac:	2802      	cmp	r0, #2
 8006aae:	bf0c      	ite	eq
 8006ab0:	2001      	moveq	r0, #1
 8006ab2:	2003      	movne	r0, #3
}
 8006ab4:	bd08      	pop	{r3, pc}
 8006ab6:	bf00      	nop

08006ab8 <USBD_LL_Transmit>:
{
 8006ab8:	b508      	push	{r3, lr}
  hal_status = HAL_PCD_EP_Transmit(pdev->pData, ep_addr, pbuf, size);
 8006aba:	f8d0 02c8 	ldr.w	r0, [r0, #712]	@ 0x2c8
 8006abe:	f7fb fc69 	bl	8002394 <HAL_PCD_EP_Transmit>
  switch (hal_status)
 8006ac2:	b118      	cbz	r0, 8006acc <USBD_LL_Transmit+0x14>
 8006ac4:	2802      	cmp	r0, #2
 8006ac6:	bf0c      	ite	eq
 8006ac8:	2001      	moveq	r0, #1
 8006aca:	2003      	movne	r0, #3
}
 8006acc:	bd08      	pop	{r3, pc}
 8006ace:	bf00      	nop

08006ad0 <USBD_LL_PrepareReceive>:
{
 8006ad0:	b508      	push	{r3, lr}
  hal_status = HAL_PCD_EP_Receive(pdev->pData, ep_addr, pbuf, size);
 8006ad2:	f8d0 02c8 	ldr.w	r0, [r0, #712]	@ 0x2c8
 8006ad6:	f7fb fc3b 	bl	8002350 <HAL_PCD_EP_Receive>
  switch (hal_status)
 8006ada:	b118      	cbz	r0, 8006ae4 <USBD_LL_PrepareReceive+0x14>
 8006adc:	2802      	cmp	r0, #2
 8006ade:	bf0c      	ite	eq
 8006ae0:	2001      	moveq	r0, #1
 8006ae2:	2003      	movne	r0, #3
}
 8006ae4:	bd08      	pop	{r3, pc}
 8006ae6:	bf00      	nop

08006ae8 <USBD_static_malloc>:
}
 8006ae8:	4800      	ldr	r0, [pc, #0]	@ (8006aec <USBD_static_malloc+0x4>)
 8006aea:	4770      	bx	lr
 8006aec:	2400071c 	.word	0x2400071c

08006af0 <USBD_static_free>:
}
 8006af0:	4770      	bx	lr
 8006af2:	bf00      	nop

08006af4 <siprintf>:
 8006af4:	b40e      	push	{r1, r2, r3}
 8006af6:	b500      	push	{lr}
 8006af8:	b09c      	sub	sp, #112	@ 0x70
 8006afa:	ab1d      	add	r3, sp, #116	@ 0x74
 8006afc:	9002      	str	r0, [sp, #8]
 8006afe:	9006      	str	r0, [sp, #24]
 8006b00:	f06f 4100 	mvn.w	r1, #2147483648	@ 0x80000000
 8006b04:	4809      	ldr	r0, [pc, #36]	@ (8006b2c <siprintf+0x38>)
 8006b06:	9107      	str	r1, [sp, #28]
 8006b08:	9104      	str	r1, [sp, #16]
 8006b0a:	4909      	ldr	r1, [pc, #36]	@ (8006b30 <siprintf+0x3c>)
 8006b0c:	f853 2b04 	ldr.w	r2, [r3], #4
 8006b10:	9105      	str	r1, [sp, #20]
 8006b12:	6800      	ldr	r0, [r0, #0]
 8006b14:	9301      	str	r3, [sp, #4]
 8006b16:	a902      	add	r1, sp, #8
 8006b18:	f000 f994 	bl	8006e44 <_svfiprintf_r>
 8006b1c:	9b02      	ldr	r3, [sp, #8]
 8006b1e:	2200      	movs	r2, #0
 8006b20:	701a      	strb	r2, [r3, #0]
 8006b22:	b01c      	add	sp, #112	@ 0x70
 8006b24:	f85d eb04 	ldr.w	lr, [sp], #4
 8006b28:	b003      	add	sp, #12
 8006b2a:	4770      	bx	lr
 8006b2c:	24000118 	.word	0x24000118
 8006b30:	ffff0208 	.word	0xffff0208

08006b34 <memset>:
 8006b34:	4402      	add	r2, r0
 8006b36:	4603      	mov	r3, r0
 8006b38:	4293      	cmp	r3, r2
 8006b3a:	d100      	bne.n	8006b3e <memset+0xa>
 8006b3c:	4770      	bx	lr
 8006b3e:	f803 1b01 	strb.w	r1, [r3], #1
 8006b42:	e7f9      	b.n	8006b38 <memset+0x4>

08006b44 <__errno>:
 8006b44:	4b01      	ldr	r3, [pc, #4]	@ (8006b4c <__errno+0x8>)
 8006b46:	6818      	ldr	r0, [r3, #0]
 8006b48:	4770      	bx	lr
 8006b4a:	bf00      	nop
 8006b4c:	24000118 	.word	0x24000118

08006b50 <__libc_init_array>:
 8006b50:	b570      	push	{r4, r5, r6, lr}
 8006b52:	4d0d      	ldr	r5, [pc, #52]	@ (8006b88 <__libc_init_array+0x38>)
 8006b54:	4c0d      	ldr	r4, [pc, #52]	@ (8006b8c <__libc_init_array+0x3c>)
 8006b56:	1b64      	subs	r4, r4, r5
 8006b58:	10a4      	asrs	r4, r4, #2
 8006b5a:	2600      	movs	r6, #0
 8006b5c:	42a6      	cmp	r6, r4
 8006b5e:	d109      	bne.n	8006b74 <__libc_init_array+0x24>
 8006b60:	4d0b      	ldr	r5, [pc, #44]	@ (8006b90 <__libc_init_array+0x40>)
 8006b62:	4c0c      	ldr	r4, [pc, #48]	@ (8006b94 <__libc_init_array+0x44>)
 8006b64:	f000 fc66 	bl	8007434 <_init>
 8006b68:	1b64      	subs	r4, r4, r5
 8006b6a:	10a4      	asrs	r4, r4, #2
 8006b6c:	2600      	movs	r6, #0
 8006b6e:	42a6      	cmp	r6, r4
 8006b70:	d105      	bne.n	8006b7e <__libc_init_array+0x2e>
 8006b72:	bd70      	pop	{r4, r5, r6, pc}
 8006b74:	f855 3b04 	ldr.w	r3, [r5], #4
 8006b78:	4798      	blx	r3
 8006b7a:	3601      	adds	r6, #1
 8006b7c:	e7ee      	b.n	8006b5c <__libc_init_array+0xc>
 8006b7e:	f855 3b04 	ldr.w	r3, [r5], #4
 8006b82:	4798      	blx	r3
 8006b84:	3601      	adds	r6, #1
 8006b86:	e7f2      	b.n	8006b6e <__libc_init_array+0x1e>
 8006b88:	080075f8 	.word	0x080075f8
 8006b8c:	080075f8 	.word	0x080075f8
 8006b90:	080075f8 	.word	0x080075f8
 8006b94:	080075fc 	.word	0x080075fc

08006b98 <__retarget_lock_acquire_recursive>:
 8006b98:	4770      	bx	lr

08006b9a <__retarget_lock_release_recursive>:
 8006b9a:	4770      	bx	lr

08006b9c <_free_r>:
 8006b9c:	b538      	push	{r3, r4, r5, lr}
 8006b9e:	4605      	mov	r5, r0
 8006ba0:	2900      	cmp	r1, #0
 8006ba2:	d041      	beq.n	8006c28 <_free_r+0x8c>
 8006ba4:	f851 3c04 	ldr.w	r3, [r1, #-4]
 8006ba8:	1f0c      	subs	r4, r1, #4
 8006baa:	2b00      	cmp	r3, #0
 8006bac:	bfb8      	it	lt
 8006bae:	18e4      	addlt	r4, r4, r3
 8006bb0:	f000 f8e0 	bl	8006d74 <__malloc_lock>
 8006bb4:	4a1d      	ldr	r2, [pc, #116]	@ (8006c2c <_free_r+0x90>)
 8006bb6:	6813      	ldr	r3, [r2, #0]
 8006bb8:	b933      	cbnz	r3, 8006bc8 <_free_r+0x2c>
 8006bba:	6063      	str	r3, [r4, #4]
 8006bbc:	6014      	str	r4, [r2, #0]
 8006bbe:	4628      	mov	r0, r5
 8006bc0:	e8bd 4038 	ldmia.w	sp!, {r3, r4, r5, lr}
 8006bc4:	f000 b8dc 	b.w	8006d80 <__malloc_unlock>
 8006bc8:	42a3      	cmp	r3, r4
 8006bca:	d908      	bls.n	8006bde <_free_r+0x42>
 8006bcc:	6820      	ldr	r0, [r4, #0]
 8006bce:	1821      	adds	r1, r4, r0
 8006bd0:	428b      	cmp	r3, r1
 8006bd2:	bf01      	itttt	eq
 8006bd4:	6819      	ldreq	r1, [r3, #0]
 8006bd6:	685b      	ldreq	r3, [r3, #4]
 8006bd8:	1809      	addeq	r1, r1, r0
 8006bda:	6021      	streq	r1, [r4, #0]
 8006bdc:	e7ed      	b.n	8006bba <_free_r+0x1e>
 8006bde:	461a      	mov	r2, r3
 8006be0:	685b      	ldr	r3, [r3, #4]
 8006be2:	b10b      	cbz	r3, 8006be8 <_free_r+0x4c>
 8006be4:	42a3      	cmp	r3, r4
 8006be6:	d9fa      	bls.n	8006bde <_free_r+0x42>
 8006be8:	6811      	ldr	r1, [r2, #0]
 8006bea:	1850      	adds	r0, r2, r1
 8006bec:	42a0      	cmp	r0, r4
 8006bee:	d10b      	bne.n	8006c08 <_free_r+0x6c>
 8006bf0:	6820      	ldr	r0, [r4, #0]
 8006bf2:	4401      	add	r1, r0
 8006bf4:	1850      	adds	r0, r2, r1
 8006bf6:	4283      	cmp	r3, r0
 8006bf8:	6011      	str	r1, [r2, #0]
 8006bfa:	d1e0      	bne.n	8006bbe <_free_r+0x22>
 8006bfc:	6818      	ldr	r0, [r3, #0]
 8006bfe:	685b      	ldr	r3, [r3, #4]
 8006c00:	6053      	str	r3, [r2, #4]
 8006c02:	4408      	add	r0, r1
 8006c04:	6010      	str	r0, [r2, #0]
 8006c06:	e7da      	b.n	8006bbe <_free_r+0x22>
 8006c08:	d902      	bls.n	8006c10 <_free_r+0x74>
 8006c0a:	230c      	movs	r3, #12
 8006c0c:	602b      	str	r3, [r5, #0]
 8006c0e:	e7d6      	b.n	8006bbe <_free_r+0x22>
 8006c10:	6820      	ldr	r0, [r4, #0]
 8006c12:	1821      	adds	r1, r4, r0
 8006c14:	428b      	cmp	r3, r1
 8006c16:	bf04      	itt	eq
 8006c18:	6819      	ldreq	r1, [r3, #0]
 8006c1a:	685b      	ldreq	r3, [r3, #4]
 8006c1c:	6063      	str	r3, [r4, #4]
 8006c1e:	bf04      	itt	eq
 8006c20:	1809      	addeq	r1, r1, r0
 8006c22:	6021      	streq	r1, [r4, #0]
 8006c24:	6054      	str	r4, [r2, #4]
 8006c26:	e7ca      	b.n	8006bbe <_free_r+0x22>
 8006c28:	bd38      	pop	{r3, r4, r5, pc}
 8006c2a:	bf00      	nop
 8006c2c:	24000d58 	.word	0x24000d58

08006c30 <sbrk_aligned>:
 8006c30:	b570      	push	{r4, r5, r6, lr}
 8006c32:	4e0f      	ldr	r6, [pc, #60]	@ (8006c70 <sbrk_aligned+0x40>)
 8006c34:	460c      	mov	r4, r1
 8006c36:	6831      	ldr	r1, [r6, #0]
 8006c38:	4605      	mov	r5, r0
 8006c3a:	b911      	cbnz	r1, 8006c42 <sbrk_aligned+0x12>
 8006c3c:	f000 fba6 	bl	800738c <_sbrk_r>
 8006c40:	6030      	str	r0, [r6, #0]
 8006c42:	4621      	mov	r1, r4
 8006c44:	4628      	mov	r0, r5
 8006c46:	f000 fba1 	bl	800738c <_sbrk_r>
 8006c4a:	1c43      	adds	r3, r0, #1
 8006c4c:	d103      	bne.n	8006c56 <sbrk_aligned+0x26>
 8006c4e:	f04f 34ff 	mov.w	r4, #4294967295
 8006c52:	4620      	mov	r0, r4
 8006c54:	bd70      	pop	{r4, r5, r6, pc}
 8006c56:	1cc4      	adds	r4, r0, #3
 8006c58:	f024 0403 	bic.w	r4, r4, #3
 8006c5c:	42a0      	cmp	r0, r4
 8006c5e:	d0f8      	beq.n	8006c52 <sbrk_aligned+0x22>
 8006c60:	1a21      	subs	r1, r4, r0
 8006c62:	4628      	mov	r0, r5
 8006c64:	f000 fb92 	bl	800738c <_sbrk_r>
 8006c68:	3001      	adds	r0, #1
 8006c6a:	d1f2      	bne.n	8006c52 <sbrk_aligned+0x22>
 8006c6c:	e7ef      	b.n	8006c4e <sbrk_aligned+0x1e>
 8006c6e:	bf00      	nop
 8006c70:	24000d54 	.word	0x24000d54

08006c74 <_malloc_r>:
 8006c74:	e92d 43f8 	stmdb	sp!, {r3, r4, r5, r6, r7, r8, r9, lr}
 8006c78:	1ccd      	adds	r5, r1, #3
 8006c7a:	f025 0503 	bic.w	r5, r5, #3
 8006c7e:	3508      	adds	r5, #8
 8006c80:	2d0c      	cmp	r5, #12
 8006c82:	bf38      	it	cc
 8006c84:	250c      	movcc	r5, #12
 8006c86:	2d00      	cmp	r5, #0
 8006c88:	4606      	mov	r6, r0
 8006c8a:	db01      	blt.n	8006c90 <_malloc_r+0x1c>
 8006c8c:	42a9      	cmp	r1, r5
 8006c8e:	d904      	bls.n	8006c9a <_malloc_r+0x26>
 8006c90:	230c      	movs	r3, #12
 8006c92:	6033      	str	r3, [r6, #0]
 8006c94:	2000      	movs	r0, #0
 8006c96:	e8bd 83f8 	ldmia.w	sp!, {r3, r4, r5, r6, r7, r8, r9, pc}
 8006c9a:	f8df 80d4 	ldr.w	r8, [pc, #212]	@ 8006d70 <_malloc_r+0xfc>
 8006c9e:	f000 f869 	bl	8006d74 <__malloc_lock>
 8006ca2:	f8d8 3000 	ldr.w	r3, [r8]
 8006ca6:	461c      	mov	r4, r3
 8006ca8:	bb44      	cbnz	r4, 8006cfc <_malloc_r+0x88>
 8006caa:	4629      	mov	r1, r5
 8006cac:	4630      	mov	r0, r6
 8006cae:	f7ff ffbf 	bl	8006c30 <sbrk_aligned>
 8006cb2:	1c43      	adds	r3, r0, #1
 8006cb4:	4604      	mov	r4, r0
 8006cb6:	d158      	bne.n	8006d6a <_malloc_r+0xf6>
 8006cb8:	f8d8 4000 	ldr.w	r4, [r8]
 8006cbc:	4627      	mov	r7, r4
 8006cbe:	2f00      	cmp	r7, #0
 8006cc0:	d143      	bne.n	8006d4a <_malloc_r+0xd6>
 8006cc2:	2c00      	cmp	r4, #0
 8006cc4:	d04b      	beq.n	8006d5e <_malloc_r+0xea>
 8006cc6:	6823      	ldr	r3, [r4, #0]
 8006cc8:	4639      	mov	r1, r7
 8006cca:	4630      	mov	r0, r6
 8006ccc:	eb04 0903 	add.w	r9, r4, r3
 8006cd0:	f000 fb5c 	bl	800738c <_sbrk_r>
 8006cd4:	4581      	cmp	r9, r0
 8006cd6:	d142      	bne.n	8006d5e <_malloc_r+0xea>
 8006cd8:	6821      	ldr	r1, [r4, #0]
 8006cda:	1a6d      	subs	r5, r5, r1
 8006cdc:	4629      	mov	r1, r5
 8006cde:	4630      	mov	r0, r6
 8006ce0:	f7ff ffa6 	bl	8006c30 <sbrk_aligned>
 8006ce4:	3001      	adds	r0, #1
 8006ce6:	d03a      	beq.n	8006d5e <_malloc_r+0xea>
 8006ce8:	6823      	ldr	r3, [r4, #0]
 8006cea:	442b      	add	r3, r5
 8006cec:	6023      	str	r3, [r4, #0]
 8006cee:	f8d8 3000 	ldr.w	r3, [r8]
 8006cf2:	685a      	ldr	r2, [r3, #4]
 8006cf4:	bb62      	cbnz	r2, 8006d50 <_malloc_r+0xdc>
 8006cf6:	f8c8 7000 	str.w	r7, [r8]
 8006cfa:	e00f      	b.n	8006d1c <_malloc_r+0xa8>
 8006cfc:	6822      	ldr	r2, [r4, #0]
 8006cfe:	1b52      	subs	r2, r2, r5
 8006d00:	d420      	bmi.n	8006d44 <_malloc_r+0xd0>
 8006d02:	2a0b      	cmp	r2, #11
 8006d04:	d917      	bls.n	8006d36 <_malloc_r+0xc2>
 8006d06:	1961      	adds	r1, r4, r5
 8006d08:	42a3      	cmp	r3, r4
 8006d0a:	6025      	str	r5, [r4, #0]
 8006d0c:	bf18      	it	ne
 8006d0e:	6059      	strne	r1, [r3, #4]
 8006d10:	6863      	ldr	r3, [r4, #4]
 8006d12:	bf08      	it	eq
 8006d14:	f8c8 1000 	streq.w	r1, [r8]
 8006d18:	5162      	str	r2, [r4, r5]
 8006d1a:	604b      	str	r3, [r1, #4]
 8006d1c:	4630      	mov	r0, r6
 8006d1e:	f000 f82f 	bl	8006d80 <__malloc_unlock>
 8006d22:	f104 000b 	add.w	r0, r4, #11
 8006d26:	1d23      	adds	r3, r4, #4
 8006d28:	f020 0007 	bic.w	r0, r0, #7
 8006d2c:	1ac2      	subs	r2, r0, r3
 8006d2e:	bf1c      	itt	ne
 8006d30:	1a1b      	subne	r3, r3, r0
 8006d32:	50a3      	strne	r3, [r4, r2]
 8006d34:	e7af      	b.n	8006c96 <_malloc_r+0x22>
 8006d36:	6862      	ldr	r2, [r4, #4]
 8006d38:	42a3      	cmp	r3, r4
 8006d3a:	bf0c      	ite	eq
 8006d3c:	f8c8 2000 	streq.w	r2, [r8]
 8006d40:	605a      	strne	r2, [r3, #4]
 8006d42:	e7eb      	b.n	8006d1c <_malloc_r+0xa8>
 8006d44:	4623      	mov	r3, r4
 8006d46:	6864      	ldr	r4, [r4, #4]
 8006d48:	e7ae      	b.n	8006ca8 <_malloc_r+0x34>
 8006d4a:	463c      	mov	r4, r7
 8006d4c:	687f      	ldr	r7, [r7, #4]
 8006d4e:	e7b6      	b.n	8006cbe <_malloc_r+0x4a>
 8006d50:	461a      	mov	r2, r3
 8006d52:	685b      	ldr	r3, [r3, #4]
 8006d54:	42a3      	cmp	r3, r4
 8006d56:	d1fb      	bne.n	8006d50 <_malloc_r+0xdc>
 8006d58:	2300      	movs	r3, #0
 8006d5a:	6053      	str	r3, [r2, #4]
 8006d5c:	e7de      	b.n	8006d1c <_malloc_r+0xa8>
 8006d5e:	230c      	movs	r3, #12
 8006d60:	6033      	str	r3, [r6, #0]
 8006d62:	4630      	mov	r0, r6
 8006d64:	f000 f80c 	bl	8006d80 <__malloc_unlock>
 8006d68:	e794      	b.n	8006c94 <_malloc_r+0x20>
 8006d6a:	6005      	str	r5, [r0, #0]
 8006d6c:	e7d6      	b.n	8006d1c <_malloc_r+0xa8>
 8006d6e:	bf00      	nop
 8006d70:	24000d58 	.word	0x24000d58

08006d74 <__malloc_lock>:
 8006d74:	4801      	ldr	r0, [pc, #4]	@ (8006d7c <__malloc_lock+0x8>)
 8006d76:	f7ff bf0f 	b.w	8006b98 <__retarget_lock_acquire_recursive>
 8006d7a:	bf00      	nop
 8006d7c:	24000d50 	.word	0x24000d50

08006d80 <__malloc_unlock>:
 8006d80:	4801      	ldr	r0, [pc, #4]	@ (8006d88 <__malloc_unlock+0x8>)
 8006d82:	f7ff bf0a 	b.w	8006b9a <__retarget_lock_release_recursive>
 8006d86:	bf00      	nop
 8006d88:	24000d50 	.word	0x24000d50

08006d8c <__ssputs_r>:
 8006d8c:	e92d 47f0 	stmdb	sp!, {r4, r5, r6, r7, r8, r9, sl, lr}
 8006d90:	688e      	ldr	r6, [r1, #8]
 8006d92:	461f      	mov	r7, r3
 8006d94:	42be      	cmp	r6, r7
 8006d96:	680b      	ldr	r3, [r1, #0]
 8006d98:	4682      	mov	sl, r0
 8006d9a:	460c      	mov	r4, r1
 8006d9c:	4690      	mov	r8, r2
 8006d9e:	d82d      	bhi.n	8006dfc <__ssputs_r+0x70>
 8006da0:	f9b1 200c 	ldrsh.w	r2, [r1, #12]
 8006da4:	f412 6f90 	tst.w	r2, #1152	@ 0x480
 8006da8:	d026      	beq.n	8006df8 <__ssputs_r+0x6c>
 8006daa:	6965      	ldr	r5, [r4, #20]
 8006dac:	6909      	ldr	r1, [r1, #16]
 8006dae:	eb05 0545 	add.w	r5, r5, r5, lsl #1
 8006db2:	eba3 0901 	sub.w	r9, r3, r1
 8006db6:	eb05 75d5 	add.w	r5, r5, r5, lsr #31
 8006dba:	1c7b      	adds	r3, r7, #1
 8006dbc:	444b      	add	r3, r9
 8006dbe:	106d      	asrs	r5, r5, #1
 8006dc0:	429d      	cmp	r5, r3
 8006dc2:	bf38      	it	cc
 8006dc4:	461d      	movcc	r5, r3
 8006dc6:	0553      	lsls	r3, r2, #21
 8006dc8:	d527      	bpl.n	8006e1a <__ssputs_r+0x8e>
 8006dca:	4629      	mov	r1, r5
 8006dcc:	f7ff ff52 	bl	8006c74 <_malloc_r>
 8006dd0:	4606      	mov	r6, r0
 8006dd2:	b360      	cbz	r0, 8006e2e <__ssputs_r+0xa2>
 8006dd4:	6921      	ldr	r1, [r4, #16]
 8006dd6:	464a      	mov	r2, r9
 8006dd8:	f000 fae8 	bl	80073ac <memcpy>
 8006ddc:	89a3      	ldrh	r3, [r4, #12]
 8006dde:	f423 6390 	bic.w	r3, r3, #1152	@ 0x480
 8006de2:	f043 0380 	orr.w	r3, r3, #128	@ 0x80
 8006de6:	81a3      	strh	r3, [r4, #12]
 8006de8:	6126      	str	r6, [r4, #16]
 8006dea:	6165      	str	r5, [r4, #20]
 8006dec:	444e      	add	r6, r9
 8006dee:	eba5 0509 	sub.w	r5, r5, r9
 8006df2:	6026      	str	r6, [r4, #0]
 8006df4:	60a5      	str	r5, [r4, #8]
 8006df6:	463e      	mov	r6, r7
 8006df8:	42be      	cmp	r6, r7
 8006dfa:	d900      	bls.n	8006dfe <__ssputs_r+0x72>
 8006dfc:	463e      	mov	r6, r7
 8006dfe:	6820      	ldr	r0, [r4, #0]
 8006e00:	4632      	mov	r2, r6
 8006e02:	4641      	mov	r1, r8
 8006e04:	f000 faa8 	bl	8007358 <memmove>
 8006e08:	68a3      	ldr	r3, [r4, #8]
 8006e0a:	1b9b      	subs	r3, r3, r6
 8006e0c:	60a3      	str	r3, [r4, #8]
 8006e0e:	6823      	ldr	r3, [r4, #0]
 8006e10:	4433      	add	r3, r6
 8006e12:	6023      	str	r3, [r4, #0]
 8006e14:	2000      	movs	r0, #0
 8006e16:	e8bd 87f0 	ldmia.w	sp!, {r4, r5, r6, r7, r8, r9, sl, pc}
 8006e1a:	462a      	mov	r2, r5
 8006e1c:	f000 fad4 	bl	80073c8 <_realloc_r>
 8006e20:	4606      	mov	r6, r0
 8006e22:	2800      	cmp	r0, #0
 8006e24:	d1e0      	bne.n	8006de8 <__ssputs_r+0x5c>
 8006e26:	6921      	ldr	r1, [r4, #16]
 8006e28:	4650      	mov	r0, sl
 8006e2a:	f7ff feb7 	bl	8006b9c <_free_r>
 8006e2e:	230c      	movs	r3, #12
 8006e30:	f8ca 3000 	str.w	r3, [sl]
 8006e34:	89a3      	ldrh	r3, [r4, #12]
 8006e36:	f043 0340 	orr.w	r3, r3, #64	@ 0x40
 8006e3a:	81a3      	strh	r3, [r4, #12]
 8006e3c:	f04f 30ff 	mov.w	r0, #4294967295
 8006e40:	e7e9      	b.n	8006e16 <__ssputs_r+0x8a>
	...

08006e44 <_svfiprintf_r>:
 8006e44:	e92d 4ff0 	stmdb	sp!, {r4, r5, r6, r7, r8, r9, sl, fp, lr}
 8006e48:	4698      	mov	r8, r3
 8006e4a:	898b      	ldrh	r3, [r1, #12]
 8006e4c:	061b      	lsls	r3, r3, #24
 8006e4e:	b09d      	sub	sp, #116	@ 0x74
 8006e50:	4607      	mov	r7, r0
 8006e52:	460d      	mov	r5, r1
 8006e54:	4614      	mov	r4, r2
 8006e56:	d510      	bpl.n	8006e7a <_svfiprintf_r+0x36>
 8006e58:	690b      	ldr	r3, [r1, #16]
 8006e5a:	b973      	cbnz	r3, 8006e7a <_svfiprintf_r+0x36>
 8006e5c:	2140      	movs	r1, #64	@ 0x40
 8006e5e:	f7ff ff09 	bl	8006c74 <_malloc_r>
 8006e62:	6028      	str	r0, [r5, #0]
 8006e64:	6128      	str	r0, [r5, #16]
 8006e66:	b930      	cbnz	r0, 8006e76 <_svfiprintf_r+0x32>
 8006e68:	230c      	movs	r3, #12
 8006e6a:	603b      	str	r3, [r7, #0]
 8006e6c:	f04f 30ff 	mov.w	r0, #4294967295
 8006e70:	b01d      	add	sp, #116	@ 0x74
 8006e72:	e8bd 8ff0 	ldmia.w	sp!, {r4, r5, r6, r7, r8, r9, sl, fp, pc}
 8006e76:	2340      	movs	r3, #64	@ 0x40
 8006e78:	616b      	str	r3, [r5, #20]
 8006e7a:	2300      	movs	r3, #0
 8006e7c:	9309      	str	r3, [sp, #36]	@ 0x24
 8006e7e:	2320      	movs	r3, #32
 8006e80:	f88d 3029 	strb.w	r3, [sp, #41]	@ 0x29
 8006e84:	f8cd 800c 	str.w	r8, [sp, #12]
 8006e88:	2330      	movs	r3, #48	@ 0x30
 8006e8a:	f8df 819c 	ldr.w	r8, [pc, #412]	@ 8007028 <_svfiprintf_r+0x1e4>
 8006e8e:	f88d 302a 	strb.w	r3, [sp, #42]	@ 0x2a
 8006e92:	f04f 0901 	mov.w	r9, #1
 8006e96:	4623      	mov	r3, r4
 8006e98:	469a      	mov	sl, r3
 8006e9a:	f813 2b01 	ldrb.w	r2, [r3], #1
 8006e9e:	b10a      	cbz	r2, 8006ea4 <_svfiprintf_r+0x60>
 8006ea0:	2a25      	cmp	r2, #37	@ 0x25
 8006ea2:	d1f9      	bne.n	8006e98 <_svfiprintf_r+0x54>
 8006ea4:	ebba 0b04 	subs.w	fp, sl, r4
 8006ea8:	d00b      	beq.n	8006ec2 <_svfiprintf_r+0x7e>
 8006eaa:	465b      	mov	r3, fp
 8006eac:	4622      	mov	r2, r4
 8006eae:	4629      	mov	r1, r5
 8006eb0:	4638      	mov	r0, r7
 8006eb2:	f7ff ff6b 	bl	8006d8c <__ssputs_r>
 8006eb6:	3001      	adds	r0, #1
 8006eb8:	f000 80a7 	beq.w	800700a <_svfiprintf_r+0x1c6>
 8006ebc:	9a09      	ldr	r2, [sp, #36]	@ 0x24
 8006ebe:	445a      	add	r2, fp
 8006ec0:	9209      	str	r2, [sp, #36]	@ 0x24
 8006ec2:	f89a 3000 	ldrb.w	r3, [sl]
 8006ec6:	2b00      	cmp	r3, #0
 8006ec8:	f000 809f 	beq.w	800700a <_svfiprintf_r+0x1c6>
 8006ecc:	2300      	movs	r3, #0
 8006ece:	f04f 32ff 	mov.w	r2, #4294967295
 8006ed2:	e9cd 2305 	strd	r2, r3, [sp, #20]
 8006ed6:	f10a 0a01 	add.w	sl, sl, #1
 8006eda:	9304      	str	r3, [sp, #16]
 8006edc:	9307      	str	r3, [sp, #28]
 8006ede:	f88d 3053 	strb.w	r3, [sp, #83]	@ 0x53
 8006ee2:	931a      	str	r3, [sp, #104]	@ 0x68
 8006ee4:	4654      	mov	r4, sl
 8006ee6:	2205      	movs	r2, #5
 8006ee8:	f814 1b01 	ldrb.w	r1, [r4], #1
 8006eec:	484e      	ldr	r0, [pc, #312]	@ (8007028 <_svfiprintf_r+0x1e4>)
 8006eee:	f7f9 fa17 	bl	8000320 <memchr>
 8006ef2:	9a04      	ldr	r2, [sp, #16]
 8006ef4:	b9d8      	cbnz	r0, 8006f2e <_svfiprintf_r+0xea>
 8006ef6:	06d0      	lsls	r0, r2, #27
 8006ef8:	bf44      	itt	mi
 8006efa:	2320      	movmi	r3, #32
 8006efc:	f88d 3053 	strbmi.w	r3, [sp, #83]	@ 0x53
 8006f00:	0711      	lsls	r1, r2, #28
 8006f02:	bf44      	itt	mi
 8006f04:	232b      	movmi	r3, #43	@ 0x2b
 8006f06:	f88d 3053 	strbmi.w	r3, [sp, #83]	@ 0x53
 8006f0a:	f89a 3000 	ldrb.w	r3, [sl]
 8006f0e:	2b2a      	cmp	r3, #42	@ 0x2a
 8006f10:	d015      	beq.n	8006f3e <_svfiprintf_r+0xfa>
 8006f12:	9a07      	ldr	r2, [sp, #28]
 8006f14:	4654      	mov	r4, sl
 8006f16:	2000      	movs	r0, #0
 8006f18:	f04f 0c0a 	mov.w	ip, #10
 8006f1c:	4621      	mov	r1, r4
 8006f1e:	f811 3b01 	ldrb.w	r3, [r1], #1
 8006f22:	3b30      	subs	r3, #48	@ 0x30
 8006f24:	2b09      	cmp	r3, #9
 8006f26:	d94b      	bls.n	8006fc0 <_svfiprintf_r+0x17c>
 8006f28:	b1b0      	cbz	r0, 8006f58 <_svfiprintf_r+0x114>
 8006f2a:	9207      	str	r2, [sp, #28]
 8006f2c:	e014      	b.n	8006f58 <_svfiprintf_r+0x114>
 8006f2e:	eba0 0308 	sub.w	r3, r0, r8
 8006f32:	fa09 f303 	lsl.w	r3, r9, r3
 8006f36:	4313      	orrs	r3, r2
 8006f38:	9304      	str	r3, [sp, #16]
 8006f3a:	46a2      	mov	sl, r4
 8006f3c:	e7d2      	b.n	8006ee4 <_svfiprintf_r+0xa0>
 8006f3e:	9b03      	ldr	r3, [sp, #12]
 8006f40:	1d19      	adds	r1, r3, #4
 8006f42:	681b      	ldr	r3, [r3, #0]
 8006f44:	9103      	str	r1, [sp, #12]
 8006f46:	2b00      	cmp	r3, #0
 8006f48:	bfbb      	ittet	lt
 8006f4a:	425b      	neglt	r3, r3
 8006f4c:	f042 0202 	orrlt.w	r2, r2, #2
 8006f50:	9307      	strge	r3, [sp, #28]
 8006f52:	9307      	strlt	r3, [sp, #28]
 8006f54:	bfb8      	it	lt
 8006f56:	9204      	strlt	r2, [sp, #16]
 8006f58:	7823      	ldrb	r3, [r4, #0]
 8006f5a:	2b2e      	cmp	r3, #46	@ 0x2e
 8006f5c:	d10a      	bne.n	8006f74 <_svfiprintf_r+0x130>
 8006f5e:	7863      	ldrb	r3, [r4, #1]
 8006f60:	2b2a      	cmp	r3, #42	@ 0x2a
 8006f62:	d132      	bne.n	8006fca <_svfiprintf_r+0x186>
 8006f64:	9b03      	ldr	r3, [sp, #12]
 8006f66:	1d1a      	adds	r2, r3, #4
 8006f68:	681b      	ldr	r3, [r3, #0]
 8006f6a:	9203      	str	r2, [sp, #12]
 8006f6c:	ea43 73e3 	orr.w	r3, r3, r3, asr #31
 8006f70:	3402      	adds	r4, #2
 8006f72:	9305      	str	r3, [sp, #20]
 8006f74:	f8df a0c0 	ldr.w	sl, [pc, #192]	@ 8007038 <_svfiprintf_r+0x1f4>
 8006f78:	7821      	ldrb	r1, [r4, #0]
 8006f7a:	2203      	movs	r2, #3
 8006f7c:	4650      	mov	r0, sl
 8006f7e:	f7f9 f9cf 	bl	8000320 <memchr>
 8006f82:	b138      	cbz	r0, 8006f94 <_svfiprintf_r+0x150>
 8006f84:	9b04      	ldr	r3, [sp, #16]
 8006f86:	eba0 000a 	sub.w	r0, r0, sl
 8006f8a:	2240      	movs	r2, #64	@ 0x40
 8006f8c:	4082      	lsls	r2, r0
 8006f8e:	4313      	orrs	r3, r2
 8006f90:	3401      	adds	r4, #1
 8006f92:	9304      	str	r3, [sp, #16]
 8006f94:	f814 1b01 	ldrb.w	r1, [r4], #1
 8006f98:	4824      	ldr	r0, [pc, #144]	@ (800702c <_svfiprintf_r+0x1e8>)
 8006f9a:	f88d 1028 	strb.w	r1, [sp, #40]	@ 0x28
 8006f9e:	2206      	movs	r2, #6
 8006fa0:	f7f9 f9be 	bl	8000320 <memchr>
 8006fa4:	2800      	cmp	r0, #0
 8006fa6:	d036      	beq.n	8007016 <_svfiprintf_r+0x1d2>
 8006fa8:	4b21      	ldr	r3, [pc, #132]	@ (8007030 <_svfiprintf_r+0x1ec>)
 8006faa:	bb1b      	cbnz	r3, 8006ff4 <_svfiprintf_r+0x1b0>
 8006fac:	9b03      	ldr	r3, [sp, #12]
 8006fae:	3307      	adds	r3, #7
 8006fb0:	f023 0307 	bic.w	r3, r3, #7
 8006fb4:	3308      	adds	r3, #8
 8006fb6:	9303      	str	r3, [sp, #12]
 8006fb8:	9b09      	ldr	r3, [sp, #36]	@ 0x24
 8006fba:	4433      	add	r3, r6
 8006fbc:	9309      	str	r3, [sp, #36]	@ 0x24
 8006fbe:	e76a      	b.n	8006e96 <_svfiprintf_r+0x52>
 8006fc0:	fb0c 3202 	mla	r2, ip, r2, r3
 8006fc4:	460c      	mov	r4, r1
 8006fc6:	2001      	movs	r0, #1
 8006fc8:	e7a8      	b.n	8006f1c <_svfiprintf_r+0xd8>
 8006fca:	2300      	movs	r3, #0
 8006fcc:	3401      	adds	r4, #1
 8006fce:	9305      	str	r3, [sp, #20]
 8006fd0:	4619      	mov	r1, r3
 8006fd2:	f04f 0c0a 	mov.w	ip, #10
 8006fd6:	4620      	mov	r0, r4
 8006fd8:	f810 2b01 	ldrb.w	r2, [r0], #1
 8006fdc:	3a30      	subs	r2, #48	@ 0x30
 8006fde:	2a09      	cmp	r2, #9
 8006fe0:	d903      	bls.n	8006fea <_svfiprintf_r+0x1a6>
 8006fe2:	2b00      	cmp	r3, #0
 8006fe4:	d0c6      	beq.n	8006f74 <_svfiprintf_r+0x130>
 8006fe6:	9105      	str	r1, [sp, #20]
 8006fe8:	e7c4      	b.n	8006f74 <_svfiprintf_r+0x130>
 8006fea:	fb0c 2101 	mla	r1, ip, r1, r2
 8006fee:	4604      	mov	r4, r0
 8006ff0:	2301      	movs	r3, #1
 8006ff2:	e7f0      	b.n	8006fd6 <_svfiprintf_r+0x192>
 8006ff4:	ab03      	add	r3, sp, #12
 8006ff6:	9300      	str	r3, [sp, #0]
 8006ff8:	462a      	mov	r2, r5
 8006ffa:	4b0e      	ldr	r3, [pc, #56]	@ (8007034 <_svfiprintf_r+0x1f0>)
 8006ffc:	a904      	add	r1, sp, #16
 8006ffe:	4638      	mov	r0, r7
 8007000:	f3af 8000 	nop.w
 8007004:	1c42      	adds	r2, r0, #1
 8007006:	4606      	mov	r6, r0
 8007008:	d1d6      	bne.n	8006fb8 <_svfiprintf_r+0x174>
 800700a:	89ab      	ldrh	r3, [r5, #12]
 800700c:	065b      	lsls	r3, r3, #25
 800700e:	f53f af2d 	bmi.w	8006e6c <_svfiprintf_r+0x28>
 8007012:	9809      	ldr	r0, [sp, #36]	@ 0x24
 8007014:	e72c      	b.n	8006e70 <_svfiprintf_r+0x2c>
 8007016:	ab03      	add	r3, sp, #12
 8007018:	9300      	str	r3, [sp, #0]
 800701a:	462a      	mov	r2, r5
 800701c:	4b05      	ldr	r3, [pc, #20]	@ (8007034 <_svfiprintf_r+0x1f0>)
 800701e:	a904      	add	r1, sp, #16
 8007020:	4638      	mov	r0, r7
 8007022:	f000 f879 	bl	8007118 <_printf_i>
 8007026:	e7ed      	b.n	8007004 <_svfiprintf_r+0x1c0>
 8007028:	080075ba 	.word	0x080075ba
 800702c:	080075c4 	.word	0x080075c4
 8007030:	00000000 	.word	0x00000000
 8007034:	08006d8d 	.word	0x08006d8d
 8007038:	080075c0 	.word	0x080075c0

0800703c <_printf_common>:
 800703c:	e92d 47f0 	stmdb	sp!, {r4, r5, r6, r7, r8, r9, sl, lr}
 8007040:	4616      	mov	r6, r2
 8007042:	4698      	mov	r8, r3
 8007044:	688a      	ldr	r2, [r1, #8]
 8007046:	690b      	ldr	r3, [r1, #16]
 8007048:	f8dd 9020 	ldr.w	r9, [sp, #32]
 800704c:	4293      	cmp	r3, r2
 800704e:	bfb8      	it	lt
 8007050:	4613      	movlt	r3, r2
 8007052:	6033      	str	r3, [r6, #0]
 8007054:	f891 2043 	ldrb.w	r2, [r1, #67]	@ 0x43
 8007058:	4607      	mov	r7, r0
 800705a:	460c      	mov	r4, r1
 800705c:	b10a      	cbz	r2, 8007062 <_printf_common+0x26>
 800705e:	3301      	adds	r3, #1
 8007060:	6033      	str	r3, [r6, #0]
 8007062:	6823      	ldr	r3, [r4, #0]
 8007064:	0699      	lsls	r1, r3, #26
 8007066:	bf42      	ittt	mi
 8007068:	6833      	ldrmi	r3, [r6, #0]
 800706a:	3302      	addmi	r3, #2
 800706c:	6033      	strmi	r3, [r6, #0]
 800706e:	6825      	ldr	r5, [r4, #0]
 8007070:	f015 0506 	ands.w	r5, r5, #6
 8007074:	d106      	bne.n	8007084 <_printf_common+0x48>
 8007076:	f104 0a19 	add.w	sl, r4, #25
 800707a:	68e3      	ldr	r3, [r4, #12]
 800707c:	6832      	ldr	r2, [r6, #0]
 800707e:	1a9b      	subs	r3, r3, r2
 8007080:	42ab      	cmp	r3, r5
 8007082:	dc26      	bgt.n	80070d2 <_printf_common+0x96>
 8007084:	f894 3043 	ldrb.w	r3, [r4, #67]	@ 0x43
 8007088:	6822      	ldr	r2, [r4, #0]
 800708a:	3b00      	subs	r3, #0
 800708c:	bf18      	it	ne
 800708e:	2301      	movne	r3, #1
 8007090:	0692      	lsls	r2, r2, #26
 8007092:	d42b      	bmi.n	80070ec <_printf_common+0xb0>
 8007094:	f104 0243 	add.w	r2, r4, #67	@ 0x43
 8007098:	4641      	mov	r1, r8
 800709a:	4638      	mov	r0, r7
 800709c:	47c8      	blx	r9
 800709e:	3001      	adds	r0, #1
 80070a0:	d01e      	beq.n	80070e0 <_printf_common+0xa4>
 80070a2:	6823      	ldr	r3, [r4, #0]
 80070a4:	6922      	ldr	r2, [r4, #16]
 80070a6:	f003 0306 	and.w	r3, r3, #6
 80070aa:	2b04      	cmp	r3, #4
 80070ac:	bf02      	ittt	eq
 80070ae:	68e5      	ldreq	r5, [r4, #12]
 80070b0:	6833      	ldreq	r3, [r6, #0]
 80070b2:	1aed      	subeq	r5, r5, r3
 80070b4:	68a3      	ldr	r3, [r4, #8]
 80070b6:	bf0c      	ite	eq
 80070b8:	ea25 75e5 	biceq.w	r5, r5, r5, asr #31
 80070bc:	2500      	movne	r5, #0
 80070be:	4293      	cmp	r3, r2
 80070c0:	bfc4      	itt	gt
 80070c2:	1a9b      	subgt	r3, r3, r2
 80070c4:	18ed      	addgt	r5, r5, r3
 80070c6:	2600      	movs	r6, #0
 80070c8:	341a      	adds	r4, #26
 80070ca:	42b5      	cmp	r5, r6
 80070cc:	d11a      	bne.n	8007104 <_printf_common+0xc8>
 80070ce:	2000      	movs	r0, #0
 80070d0:	e008      	b.n	80070e4 <_printf_common+0xa8>
 80070d2:	2301      	movs	r3, #1
 80070d4:	4652      	mov	r2, sl
 80070d6:	4641      	mov	r1, r8
 80070d8:	4638      	mov	r0, r7
 80070da:	47c8      	blx	r9
 80070dc:	3001      	adds	r0, #1
 80070de:	d103      	bne.n	80070e8 <_printf_common+0xac>
 80070e0:	f04f 30ff 	mov.w	r0, #4294967295
 80070e4:	e8bd 87f0 	ldmia.w	sp!, {r4, r5, r6, r7, r8, r9, sl, pc}
 80070e8:	3501      	adds	r5, #1
 80070ea:	e7c6      	b.n	800707a <_printf_common+0x3e>
 80070ec:	18e1      	adds	r1, r4, r3
 80070ee:	1c5a      	adds	r2, r3, #1
 80070f0:	2030      	movs	r0, #48	@ 0x30
 80070f2:	f881 0043 	strb.w	r0, [r1, #67]	@ 0x43
 80070f6:	4422      	add	r2, r4
 80070f8:	f894 1045 	ldrb.w	r1, [r4, #69]	@ 0x45
 80070fc:	f882 1043 	strb.w	r1, [r2, #67]	@ 0x43
 8007100:	3302      	adds	r3, #2
 8007102:	e7c7      	b.n	8007094 <_printf_common+0x58>
 8007104:	2301      	movs	r3, #1
 8007106:	4622      	mov	r2, r4
 8007108:	4641      	mov	r1, r8
 800710a:	4638      	mov	r0, r7
 800710c:	47c8      	blx	r9
 800710e:	3001      	adds	r0, #1
 8007110:	d0e6      	beq.n	80070e0 <_printf_common+0xa4>
 8007112:	3601      	adds	r6, #1
 8007114:	e7d9      	b.n	80070ca <_printf_common+0x8e>
	...

08007118 <_printf_i>:
 8007118:	e92d 47ff 	stmdb	sp!, {r0, r1, r2, r3, r4, r5, r6, r7, r8, r9, sl, lr}
 800711c:	7e0f      	ldrb	r7, [r1, #24]
 800711e:	9e0c      	ldr	r6, [sp, #48]	@ 0x30
 8007120:	2f78      	cmp	r7, #120	@ 0x78
 8007122:	4691      	mov	r9, r2
 8007124:	4680      	mov	r8, r0
 8007126:	460c      	mov	r4, r1
 8007128:	469a      	mov	sl, r3
 800712a:	f101 0243 	add.w	r2, r1, #67	@ 0x43
 800712e:	d807      	bhi.n	8007140 <_printf_i+0x28>
 8007130:	2f62      	cmp	r7, #98	@ 0x62
 8007132:	d80a      	bhi.n	800714a <_printf_i+0x32>
 8007134:	2f00      	cmp	r7, #0
 8007136:	f000 80d2 	beq.w	80072de <_printf_i+0x1c6>
 800713a:	2f58      	cmp	r7, #88	@ 0x58
 800713c:	f000 80b9 	beq.w	80072b2 <_printf_i+0x19a>
 8007140:	f104 0642 	add.w	r6, r4, #66	@ 0x42
 8007144:	f884 7042 	strb.w	r7, [r4, #66]	@ 0x42
 8007148:	e03a      	b.n	80071c0 <_printf_i+0xa8>
 800714a:	f1a7 0363 	sub.w	r3, r7, #99	@ 0x63
 800714e:	2b15      	cmp	r3, #21
 8007150:	d8f6      	bhi.n	8007140 <_printf_i+0x28>
 8007152:	a101      	add	r1, pc, #4	@ (adr r1, 8007158 <_printf_i+0x40>)
 8007154:	f851 f023 	ldr.w	pc, [r1, r3, lsl #2]
 8007158:	080071b1 	.word	0x080071b1
 800715c:	080071c5 	.word	0x080071c5
 8007160:	08007141 	.word	0x08007141
 8007164:	08007141 	.word	0x08007141
 8007168:	08007141 	.word	0x08007141
 800716c:	08007141 	.word	0x08007141
 8007170:	080071c5 	.word	0x080071c5
 8007174:	08007141 	.word	0x08007141
 8007178:	08007141 	.word	0x08007141
 800717c:	08007141 	.word	0x08007141
 8007180:	08007141 	.word	0x08007141
 8007184:	080072c5 	.word	0x080072c5
 8007188:	080071ef 	.word	0x080071ef
 800718c:	0800727f 	.word	0x0800727f
 8007190:	08007141 	.word	0x08007141
 8007194:	08007141 	.word	0x08007141
 8007198:	080072e7 	.word	0x080072e7
 800719c:	08007141 	.word	0x08007141
 80071a0:	080071ef 	.word	0x080071ef
 80071a4:	08007141 	.word	0x08007141
 80071a8:	08007141 	.word	0x08007141
 80071ac:	08007287 	.word	0x08007287
 80071b0:	6833      	ldr	r3, [r6, #0]
 80071b2:	1d1a      	adds	r2, r3, #4
 80071b4:	681b      	ldr	r3, [r3, #0]
 80071b6:	6032      	str	r2, [r6, #0]
 80071b8:	f104 0642 	add.w	r6, r4, #66	@ 0x42
 80071bc:	f884 3042 	strb.w	r3, [r4, #66]	@ 0x42
 80071c0:	2301      	movs	r3, #1
 80071c2:	e09d      	b.n	8007300 <_printf_i+0x1e8>
 80071c4:	6833      	ldr	r3, [r6, #0]
 80071c6:	6820      	ldr	r0, [r4, #0]
 80071c8:	1d19      	adds	r1, r3, #4
 80071ca:	6031      	str	r1, [r6, #0]
 80071cc:	0606      	lsls	r6, r0, #24
 80071ce:	d501      	bpl.n	80071d4 <_printf_i+0xbc>
 80071d0:	681d      	ldr	r5, [r3, #0]
 80071d2:	e003      	b.n	80071dc <_printf_i+0xc4>
 80071d4:	0645      	lsls	r5, r0, #25
 80071d6:	d5fb      	bpl.n	80071d0 <_printf_i+0xb8>
 80071d8:	f9b3 5000 	ldrsh.w	r5, [r3]
 80071dc:	2d00      	cmp	r5, #0
 80071de:	da03      	bge.n	80071e8 <_printf_i+0xd0>
 80071e0:	232d      	movs	r3, #45	@ 0x2d
 80071e2:	426d      	negs	r5, r5
 80071e4:	f884 3043 	strb.w	r3, [r4, #67]	@ 0x43
 80071e8:	4859      	ldr	r0, [pc, #356]	@ (8007350 <_printf_i+0x238>)
 80071ea:	230a      	movs	r3, #10
 80071ec:	e011      	b.n	8007212 <_printf_i+0xfa>
 80071ee:	6821      	ldr	r1, [r4, #0]
 80071f0:	6833      	ldr	r3, [r6, #0]
 80071f2:	0608      	lsls	r0, r1, #24
 80071f4:	f853 5b04 	ldr.w	r5, [r3], #4
 80071f8:	d402      	bmi.n	8007200 <_printf_i+0xe8>
 80071fa:	0649      	lsls	r1, r1, #25
 80071fc:	bf48      	it	mi
 80071fe:	b2ad      	uxthmi	r5, r5
 8007200:	2f6f      	cmp	r7, #111	@ 0x6f
 8007202:	4853      	ldr	r0, [pc, #332]	@ (8007350 <_printf_i+0x238>)
 8007204:	6033      	str	r3, [r6, #0]
 8007206:	bf14      	ite	ne
 8007208:	230a      	movne	r3, #10
 800720a:	2308      	moveq	r3, #8
 800720c:	2100      	movs	r1, #0
 800720e:	f884 1043 	strb.w	r1, [r4, #67]	@ 0x43
 8007212:	6866      	ldr	r6, [r4, #4]
 8007214:	60a6      	str	r6, [r4, #8]
 8007216:	2e00      	cmp	r6, #0
 8007218:	bfa2      	ittt	ge
 800721a:	6821      	ldrge	r1, [r4, #0]
 800721c:	f021 0104 	bicge.w	r1, r1, #4
 8007220:	6021      	strge	r1, [r4, #0]
 8007222:	b90d      	cbnz	r5, 8007228 <_printf_i+0x110>
 8007224:	2e00      	cmp	r6, #0
 8007226:	d04b      	beq.n	80072c0 <_printf_i+0x1a8>
 8007228:	4616      	mov	r6, r2
 800722a:	fbb5 f1f3 	udiv	r1, r5, r3
 800722e:	fb03 5711 	mls	r7, r3, r1, r5
 8007232:	5dc7      	ldrb	r7, [r0, r7]
 8007234:	f806 7d01 	strb.w	r7, [r6, #-1]!
 8007238:	462f      	mov	r7, r5
 800723a:	42bb      	cmp	r3, r7
 800723c:	460d      	mov	r5, r1
 800723e:	d9f4      	bls.n	800722a <_printf_i+0x112>
 8007240:	2b08      	cmp	r3, #8
 8007242:	d10b      	bne.n	800725c <_printf_i+0x144>
 8007244:	6823      	ldr	r3, [r4, #0]
 8007246:	07df      	lsls	r7, r3, #31
 8007248:	d508      	bpl.n	800725c <_printf_i+0x144>
 800724a:	6923      	ldr	r3, [r4, #16]
 800724c:	6861      	ldr	r1, [r4, #4]
 800724e:	4299      	cmp	r1, r3
 8007250:	bfde      	ittt	le
 8007252:	2330      	movle	r3, #48	@ 0x30
 8007254:	f806 3c01 	strble.w	r3, [r6, #-1]
 8007258:	f106 36ff 	addle.w	r6, r6, #4294967295
 800725c:	1b92      	subs	r2, r2, r6
 800725e:	6122      	str	r2, [r4, #16]
 8007260:	f8cd a000 	str.w	sl, [sp]
 8007264:	464b      	mov	r3, r9
 8007266:	aa03      	add	r2, sp, #12
 8007268:	4621      	mov	r1, r4
 800726a:	4640      	mov	r0, r8
 800726c:	f7ff fee6 	bl	800703c <_printf_common>
 8007270:	3001      	adds	r0, #1
 8007272:	d14a      	bne.n	800730a <_printf_i+0x1f2>
 8007274:	f04f 30ff 	mov.w	r0, #4294967295
 8007278:	b004      	add	sp, #16
 800727a:	e8bd 87f0 	ldmia.w	sp!, {r4, r5, r6, r7, r8, r9, sl, pc}
 800727e:	6823      	ldr	r3, [r4, #0]
 8007280:	f043 0320 	orr.w	r3, r3, #32
 8007284:	6023      	str	r3, [r4, #0]
 8007286:	4833      	ldr	r0, [pc, #204]	@ (8007354 <_printf_i+0x23c>)
 8007288:	2778      	movs	r7, #120	@ 0x78
 800728a:	f884 7045 	strb.w	r7, [r4, #69]	@ 0x45
 800728e:	6823      	ldr	r3, [r4, #0]
 8007290:	6831      	ldr	r1, [r6, #0]
 8007292:	061f      	lsls	r7, r3, #24
 8007294:	f851 5b04 	ldr.w	r5, [r1], #4
 8007298:	d402      	bmi.n	80072a0 <_printf_i+0x188>
 800729a:	065f      	lsls	r7, r3, #25
 800729c:	bf48      	it	mi
 800729e:	b2ad      	uxthmi	r5, r5
 80072a0:	6031      	str	r1, [r6, #0]
 80072a2:	07d9      	lsls	r1, r3, #31
 80072a4:	bf44      	itt	mi
 80072a6:	f043 0320 	orrmi.w	r3, r3, #32
 80072aa:	6023      	strmi	r3, [r4, #0]
 80072ac:	b11d      	cbz	r5, 80072b6 <_printf_i+0x19e>
 80072ae:	2310      	movs	r3, #16
 80072b0:	e7ac      	b.n	800720c <_printf_i+0xf4>
 80072b2:	4827      	ldr	r0, [pc, #156]	@ (8007350 <_printf_i+0x238>)
 80072b4:	e7e9      	b.n	800728a <_printf_i+0x172>
 80072b6:	6823      	ldr	r3, [r4, #0]
 80072b8:	f023 0320 	bic.w	r3, r3, #32
 80072bc:	6023      	str	r3, [r4, #0]
 80072be:	e7f6      	b.n	80072ae <_printf_i+0x196>
 80072c0:	4616      	mov	r6, r2
 80072c2:	e7bd      	b.n	8007240 <_printf_i+0x128>
 80072c4:	6833      	ldr	r3, [r6, #0]
 80072c6:	6825      	ldr	r5, [r4, #0]
 80072c8:	6961      	ldr	r1, [r4, #20]
 80072ca:	1d18      	adds	r0, r3, #4
 80072cc:	6030      	str	r0, [r6, #0]
 80072ce:	062e      	lsls	r6, r5, #24
 80072d0:	681b      	ldr	r3, [r3, #0]
 80072d2:	d501      	bpl.n	80072d8 <_printf_i+0x1c0>
 80072d4:	6019      	str	r1, [r3, #0]
 80072d6:	e002      	b.n	80072de <_printf_i+0x1c6>
 80072d8:	0668      	lsls	r0, r5, #25
 80072da:	d5fb      	bpl.n	80072d4 <_printf_i+0x1bc>
 80072dc:	8019      	strh	r1, [r3, #0]
 80072de:	2300      	movs	r3, #0
 80072e0:	6123      	str	r3, [r4, #16]
 80072e2:	4616      	mov	r6, r2
 80072e4:	e7bc      	b.n	8007260 <_printf_i+0x148>
 80072e6:	6833      	ldr	r3, [r6, #0]
 80072e8:	1d1a      	adds	r2, r3, #4
 80072ea:	6032      	str	r2, [r6, #0]
 80072ec:	681e      	ldr	r6, [r3, #0]
 80072ee:	6862      	ldr	r2, [r4, #4]
 80072f0:	2100      	movs	r1, #0
 80072f2:	4630      	mov	r0, r6
 80072f4:	f7f9 f814 	bl	8000320 <memchr>
 80072f8:	b108      	cbz	r0, 80072fe <_printf_i+0x1e6>
 80072fa:	1b80      	subs	r0, r0, r6
 80072fc:	6060      	str	r0, [r4, #4]
 80072fe:	6863      	ldr	r3, [r4, #4]
 8007300:	6123      	str	r3, [r4, #16]
 8007302:	2300      	movs	r3, #0
 8007304:	f884 3043 	strb.w	r3, [r4, #67]	@ 0x43
 8007308:	e7aa      	b.n	8007260 <_printf_i+0x148>
 800730a:	6923      	ldr	r3, [r4, #16]
 800730c:	4632      	mov	r2, r6
 800730e:	4649      	mov	r1, r9
 8007310:	4640      	mov	r0, r8
 8007312:	47d0      	blx	sl
 8007314:	3001      	adds	r0, #1
 8007316:	d0ad      	beq.n	8007274 <_printf_i+0x15c>
 8007318:	6823      	ldr	r3, [r4, #0]
 800731a:	079b      	lsls	r3, r3, #30
 800731c:	d413      	bmi.n	8007346 <_printf_i+0x22e>
 800731e:	68e0      	ldr	r0, [r4, #12]
 8007320:	9b03      	ldr	r3, [sp, #12]
 8007322:	4298      	cmp	r0, r3
 8007324:	bfb8      	it	lt
 8007326:	4618      	movlt	r0, r3
 8007328:	e7a6      	b.n	8007278 <_printf_i+0x160>
 800732a:	2301      	movs	r3, #1
 800732c:	4632      	mov	r2, r6
 800732e:	4649      	mov	r1, r9
 8007330:	4640      	mov	r0, r8
 8007332:	47d0      	blx	sl
 8007334:	3001      	adds	r0, #1
 8007336:	d09d      	beq.n	8007274 <_printf_i+0x15c>
 8007338:	3501      	adds	r5, #1
 800733a:	68e3      	ldr	r3, [r4, #12]
 800733c:	9903      	ldr	r1, [sp, #12]
 800733e:	1a5b      	subs	r3, r3, r1
 8007340:	42ab      	cmp	r3, r5
 8007342:	dcf2      	bgt.n	800732a <_printf_i+0x212>
 8007344:	e7eb      	b.n	800731e <_printf_i+0x206>
 8007346:	2500      	movs	r5, #0
 8007348:	f104 0619 	add.w	r6, r4, #25
 800734c:	e7f5      	b.n	800733a <_printf_i+0x222>
 800734e:	bf00      	nop
 8007350:	080075cb 	.word	0x080075cb
 8007354:	080075dc 	.word	0x080075dc

08007358 <memmove>:
 8007358:	4288      	cmp	r0, r1
 800735a:	b510      	push	{r4, lr}
 800735c:	eb01 0402 	add.w	r4, r1, r2
 8007360:	d902      	bls.n	8007368 <memmove+0x10>
 8007362:	4284      	cmp	r4, r0
 8007364:	4623      	mov	r3, r4
 8007366:	d807      	bhi.n	8007378 <memmove+0x20>
 8007368:	1e43      	subs	r3, r0, #1
 800736a:	42a1      	cmp	r1, r4
 800736c:	d008      	beq.n	8007380 <memmove+0x28>
 800736e:	f811 2b01 	ldrb.w	r2, [r1], #1
 8007372:	f803 2f01 	strb.w	r2, [r3, #1]!
 8007376:	e7f8      	b.n	800736a <memmove+0x12>
 8007378:	4402      	add	r2, r0
 800737a:	4601      	mov	r1, r0
 800737c:	428a      	cmp	r2, r1
 800737e:	d100      	bne.n	8007382 <memmove+0x2a>
 8007380:	bd10      	pop	{r4, pc}
 8007382:	f813 4d01 	ldrb.w	r4, [r3, #-1]!
 8007386:	f802 4d01 	strb.w	r4, [r2, #-1]!
 800738a:	e7f7      	b.n	800737c <memmove+0x24>

0800738c <_sbrk_r>:
 800738c:	b538      	push	{r3, r4, r5, lr}
 800738e:	4d06      	ldr	r5, [pc, #24]	@ (80073a8 <_sbrk_r+0x1c>)
 8007390:	2300      	movs	r3, #0
 8007392:	4604      	mov	r4, r0
 8007394:	4608      	mov	r0, r1
 8007396:	602b      	str	r3, [r5, #0]
 8007398:	f7f9 fc54 	bl	8000c44 <_sbrk>
 800739c:	1c43      	adds	r3, r0, #1
 800739e:	d102      	bne.n	80073a6 <_sbrk_r+0x1a>
 80073a0:	682b      	ldr	r3, [r5, #0]
 80073a2:	b103      	cbz	r3, 80073a6 <_sbrk_r+0x1a>
 80073a4:	6023      	str	r3, [r4, #0]
 80073a6:	bd38      	pop	{r3, r4, r5, pc}
 80073a8:	24000d4c 	.word	0x24000d4c

080073ac <memcpy>:
 80073ac:	440a      	add	r2, r1
 80073ae:	4291      	cmp	r1, r2
 80073b0:	f100 33ff 	add.w	r3, r0, #4294967295
 80073b4:	d100      	bne.n	80073b8 <memcpy+0xc>
 80073b6:	4770      	bx	lr
 80073b8:	b510      	push	{r4, lr}
 80073ba:	f811 4b01 	ldrb.w	r4, [r1], #1
 80073be:	f803 4f01 	strb.w	r4, [r3, #1]!
 80073c2:	4291      	cmp	r1, r2
 80073c4:	d1f9      	bne.n	80073ba <memcpy+0xe>
 80073c6:	bd10      	pop	{r4, pc}

080073c8 <_realloc_r>:
 80073c8:	e92d 41f0 	stmdb	sp!, {r4, r5, r6, r7, r8, lr}
 80073cc:	4680      	mov	r8, r0
 80073ce:	4615      	mov	r5, r2
 80073d0:	460c      	mov	r4, r1
 80073d2:	b921      	cbnz	r1, 80073de <_realloc_r+0x16>
 80073d4:	e8bd 41f0 	ldmia.w	sp!, {r4, r5, r6, r7, r8, lr}
 80073d8:	4611      	mov	r1, r2
 80073da:	f7ff bc4b 	b.w	8006c74 <_malloc_r>
 80073de:	b92a      	cbnz	r2, 80073ec <_realloc_r+0x24>
 80073e0:	f7ff fbdc 	bl	8006b9c <_free_r>
 80073e4:	2400      	movs	r4, #0
 80073e6:	4620      	mov	r0, r4
 80073e8:	e8bd 81f0 	ldmia.w	sp!, {r4, r5, r6, r7, r8, pc}
 80073ec:	f000 f81a 	bl	8007424 <_malloc_usable_size_r>
 80073f0:	4285      	cmp	r5, r0
 80073f2:	4606      	mov	r6, r0
 80073f4:	d802      	bhi.n	80073fc <_realloc_r+0x34>
 80073f6:	ebb5 0f50 	cmp.w	r5, r0, lsr #1
 80073fa:	d8f4      	bhi.n	80073e6 <_realloc_r+0x1e>
 80073fc:	4629      	mov	r1, r5
 80073fe:	4640      	mov	r0, r8
 8007400:	f7ff fc38 	bl	8006c74 <_malloc_r>
 8007404:	4607      	mov	r7, r0
 8007406:	2800      	cmp	r0, #0
 8007408:	d0ec      	beq.n	80073e4 <_realloc_r+0x1c>
 800740a:	42b5      	cmp	r5, r6
 800740c:	462a      	mov	r2, r5
 800740e:	4621      	mov	r1, r4
 8007410:	bf28      	it	cs
 8007412:	4632      	movcs	r2, r6
 8007414:	f7ff ffca 	bl	80073ac <memcpy>
 8007418:	4621      	mov	r1, r4
 800741a:	4640      	mov	r0, r8
 800741c:	f7ff fbbe 	bl	8006b9c <_free_r>
 8007420:	463c      	mov	r4, r7
 8007422:	e7e0      	b.n	80073e6 <_realloc_r+0x1e>

08007424 <_malloc_usable_size_r>:
 8007424:	f851 3c04 	ldr.w	r3, [r1, #-4]
 8007428:	1f18      	subs	r0, r3, #4
 800742a:	2b00      	cmp	r3, #0
 800742c:	bfbc      	itt	lt
 800742e:	580b      	ldrlt	r3, [r1, r0]
 8007430:	18c0      	addlt	r0, r0, r3
 8007432:	4770      	bx	lr

08007434 <_init>:
 8007434:	b5f8      	push	{r3, r4, r5, r6, r7, lr}
 8007436:	bf00      	nop
 8007438:	bcf8      	pop	{r3, r4, r5, r6, r7}
 800743a:	bc08      	pop	{r3}
 800743c:	469e      	mov	lr, r3
 800743e:	4770      	bx	lr

08007440 <_fini>:
 8007440:	b5f8      	push	{r3, r4, r5, r6, r7, lr}
 8007442:	bf00      	nop
 8007444:	bcf8      	pop	{r3, r4, r5, r6, r7}
 8007446:	bc08      	pop	{r3}
 8007448:	469e      	mov	lr, r3
 800744a:	4770      	bx	lr
